   1              		.cpu arm7tdmi
   2              		.fpu softvfp
   3              		.eabi_attribute 20, 1
   4              		.eabi_attribute 21, 1
   5              		.eabi_attribute 23, 3
   6              		.eabi_attribute 24, 1
   7              		.eabi_attribute 25, 1
   8              		.eabi_attribute 26, 1
   9              		.eabi_attribute 30, 1
  10              		.eabi_attribute 34, 0
  11              		.eabi_attribute 18, 4
  12              		.code	16
  13              		.file	"functions.c"
  14              		.text
  15              	.Ltext0:
  16              		.cfi_sections	.debug_frame
  17              		.section	.text.ClockDisplay,"ax",%progbits
  18              		.align	2
  19              		.global	ClockDisplay
  20              		.code	16
  21              		.thumb_func
  23              	ClockDisplay:
  24              	.LFB376:
  25              		.file 1 "functions.c"
   1:functions.c   **** // -----------------------------------------------------------
   2:functions.c   **** // Software:         GW302 - McHale V6 Fixed Chamber Round Baler
   3:functions.c   **** // C Source File:    functions.c
   4:functions.c   **** // Description:      Graphic Wizard Display Related File
   5:functions.c   **** // -----------------------------------------------------------
   6:functions.c   **** 
   7:functions.c   **** 
   8:functions.c   **** // Include Standard files
   9:functions.c   **** #include "Board.h"
  10:functions.c   **** 
  11:functions.c   **** #include "string.h"
  12:functions.c   **** #include "stdlib.h"
  13:functions.c   **** #include "stdio.h"
  14:functions.c   **** #include "math.h"
  15:functions.c   **** 
  16:functions.c   **** 
  17:functions.c   **** #ifdef WINDOWS
  18:functions.c   ****  // function not available in borland builder
  19:functions.c   ****  float cosf( float x ) { return cos( x ); }
  20:functions.c   ****  float sinf( float x ) { return sin( x ); }
  21:functions.c   ****  float atoff( const char *s ) { return atof( s ); }
  22:functions.c   **** #endif
  23:functions.c   **** 
  24:functions.c   **** // global variables
  25:functions.c   **** // -----------------------------------------------------------
  26:functions.c   **** // constants
  27:functions.c   **** unsigned char const binHex[16] =
  28:functions.c   ****  { '0', '1', '2', '3', '4', '5', '6', '7', '8', '9', 'A', 'B', 'C', 'D', 'E', 'F' };
  29:functions.c   **** unsigned char const * const DayofWeek[7] =
  30:functions.c   ****  { "Sun", "Mon", "Tue", "Wed", "Thr", "Fri", "Sat" };
  31:functions.c   **** unsigned char const * const MonthofYear[13] =
  32:functions.c   ****  { "---", "Jan", "Feb", "Mar", "Apr", "May", "Jun", "Jul", "Aug", "Sep", "Oct", "Nov", "Dec" };
  33:functions.c   **** unsigned char const Store[10] = { 'A', 'B', 'C', 'D', 'E', 'F', 'G', 'H', 'I', 'J' };
  34:functions.c   **** unsigned char const UCkey[] = " ÀÁÂÃÄÅÆABCÇDEÈÉÊËFGHIÌÍÎÏÐJKLMNÑOÒÓÔÕÖØPQRSTUÙÚÛÜVWXYÝßZÞ";
  35:functions.c   **** unsigned char const LCkey[] = " aàáâãäåæbcçdeèéêëfghiìíîïðjklmnñoòóôõöøpqrstuùúûüvwxyýÿzþ";
  36:functions.c   **** unsigned char const NCkey[] = "0123456789.+-±!#¢£$";
  37:functions.c   **** /*    
  38:functions.c   ****     "!\"#$%&'()*+,-./:;<=>?@[\\]^_`"
  39:functions.c   ****     "{|}~ ¡¢£¤¥¦§¨©ª«¬­®¯°±²³´µ¶·¸¹º»¼½¾¿"
  40:functions.c   ****     "0123456789"
  41:functions.c   ****     "ABCDEFGHIJKLMNOPQRSTUVWXYZ"
  42:functions.c   ****     "abcdefghijklmnopqrstuvwxyz"
  43:functions.c   ****     "ÀÁÂÃÄÅÆÇÈÉÊËÌÍÎÏÐÑÒÓÔÕÖ×ØÙÚÛÜÝÞß"
  44:functions.c   ****     "àáâãäåæçèéêëìíîïðñòóôõö÷øùúûüýþÿ"
  45:functions.c   **** */
  46:functions.c   **** //unsigned char const * const RotateShaft[4] = { SeedshaftOff, SEEDSHAFT, SEEDSHAFT2, SEEDSHAFT1 };
  47:functions.c   **** unsigned char const * const ip_status[2] = { SWOPEN, SWCLOSED };
  48:functions.c   **** unsigned char const * const op_status[2] = { BUTTON04, BUTTON01 };
  49:functions.c   **** 
  50:functions.c   **** 
  51:functions.c   **** // Programmable Factors (Array)                                          
  52:functions.c   **** 
  53:functions.c   **** // Machine Menu                                                 Step size,      Minimum,      Maxim
  54:functions.c   **** unsigned char const PF_GW302_BaleProfile[PF_DIM]            = {         1,  BP_PRESET_A,  BP_PRESET
  55:functions.c   **** unsigned char const PF_GW302_BaleDiameter[PF_DIM]           = {         1,           60,          1
  56:functions.c   **** unsigned char const PF_GW302_CoreDiameter[PF_DIM]           = {         1,           60,          1
  57:functions.c   **** unsigned char const PF_GW302_BaleDensity[PF_DIM]            = {         1,            1,           
  58:functions.c   **** unsigned char const PF_GW302_CoreDensity[PF_DIM]            = {         1,            1,           
  59:functions.c   **** float const         PF_GW302_NetLayers[PF_DIM]              = {       0.1,          1.5,          6
  60:functions.c   **** unsigned long int const PF_GW302_BaleTotal[PF_DIM]          = {      1UL,          0UL,        9999
  61:functions.c   **** unsigned char const PF_GW302_BaleStore[PF_DIM]              = {        1,            0,  MAX_STORES
  62:functions.c   **** // LubeCounter      // Moved to preserved run-time totals   = PF_GW302_LubeAlarm[PF_DIM] for range 
  63:functions.c   **** unsigned long int const PF_GW302_GrandBaleTotal[PF_DIM]     = {       1UL,          0UL,     999999
  64:functions.c   **** float const         PF_GW302_DiaPotZero[PF_DIM]             = {    PF_fNA,       PF_fNA,       PF_f
  65:functions.c   **** signed char const   PF_GW302_DiameterCorrection[PF_DIM]     = {         1,          -20,          +
  66:functions.c   **** unsigned char const PF_GW302_BaleShapeIndicator[PF_DIM]     = {         1,      BSI_OFF,     BSI_BE
  67:functions.c   **** float const         PF_GW302_BaleShapeIndicatorZero[PF_DIM] = {    PF_fNA,          0.0,          9
  68:functions.c   **** float const         PF_GW302_TotalNetMetres[PF_DIM]         = {    PF_fNA,          0.0,       9999
  69:functions.c   **** unsigned char const PF_GW302_PreWarningBeep[PF_DIM]         = {         1,            1,          1
  70:functions.c   **** float const         PF_GW302_NetDelay[PF_DIM]               = {       0.1,          0.0,          5
  71:functions.c   **** unsigned char const PF_GW302_NetTwineOption[PF_DIM]         = {         1,       TO_NET,     TO_TWI
  72:functions.c   ****   
  73:functions.c   **** // Technician Menu - Baler Full Page 1/2                        Step size,   Minimum,   Maximum,   
  74:functions.c   **** unsigned short int const PF_GW302_LubeAlarm[PF_DIM]         = {         1,         0,       999,   
  75:functions.c   **** float const              PF_GW302_PresDeadband[PF_DIM]      = {      0.01,      0.00,      9.99,   
  76:functions.c   **** float const              PF_GW302_NetSpeed[PF_DIM]          = {       0.1,       0.0,      99.0,   
  77:functions.c   **** float const              PF_GW302_PresSwDelay[PF_DIM]       = {       0.1,       0.0,       9.9,   
  78:functions.c   **** float const              PF_GW302_DoorClosed[PF_DIM]        = {       0.1,       0.0,       9.9,   
  79:functions.c   **** unsigned char const      PF_GW302_BaleSizeFactor[PF_DIM]    = {         1,       100,       250,   
  80:functions.c   **** 
  81:functions.c   **** // Technician Menu - Baler Full Page 2/2                  Step size,   Minimum,   Maximum,   Defaul
  82:functions.c   **** float const         PF_GW302_FillPotRange[PF_DIM]     = {      0.01,      0.00,      9.99,      1.0
  83:functions.c   **** float const         PF_GW302_FillPotIgnore[PF_DIM]    = {      0.01,      0.00,      9.99,      0.2
  84:functions.c   **** unsigned char const PF_GW302_EngageDiameter[PF_DIM]   = {         1,         0,       100,        9
  85:functions.c   **** unsigned char const PF_GW302_BaleIndicator[PF_DIM]    = {         1,  BI_STEER,   BI_FILL,  BI_STEE
  86:functions.c   **** float const         PF_GW302_RollerDelay[PF_DIM]      = {       0.1,       0.0,       9.9,       0.
  87:functions.c   ****   
  88:functions.c   **** // Technician Menu - Netting Setup Page 1/2               Step size,   Minimum,   Maximum,   Defaul
  89:functions.c   **** float const         PF_GW302_NetOn[PF_DIM]            = {       0.1,       0.0,       9.9,       3.
  90:functions.c   **** unsigned char const PF_GW302_NetCutPulse[PF_DIM]      = {         1,         0,        99,        4
  91:functions.c   **** float const         PF_GW302_NetCutTime[PF_DIM]       = {       0.1,       0.0,       9.9,       6.
  92:functions.c   **** float const         PF_GW302_MinDiaPulsPerLay[PF_DIM] = {       0.1,       0.0,     999.9,      38.
  93:functions.c   **** float const         PF_GW302_MaxDiaPulsPerLay[PF_DIM] = {       0.1,       0.0,     999.9,     108.
  94:functions.c   **** float const         PF_GW302_NetFactor[PF_DIM]        = {       0.1,       0.0,       9.9,       1.
  95:functions.c   **** float const         PF_GW302_NoNetPulse[PF_DIM]       = {       0.1,       0.0,       9.9,       4.
  96:functions.c   **** unsigned char const PF_GW302_PreNetPulse[PF_DIM]      = {         1,         0,        99,         
  97:functions.c   **** 
  98:functions.c   **** // Technician Menu - Netting Setup Page 2/2               Step size,   Minimum,   Maximum,   Defaul
  99:functions.c   **** unsigned char const PF_GW302_NetSystem[PF_DIM]        = {         1,   NS_BEAK, NS_ROLLER, NS_ROLLE
 100:functions.c   **** unsigned char const PF_GW302_BeakEngage[PF_DIM]       = {         1,         0,        99,         
 101:functions.c   **** unsigned char const PF_GW302_TwineOption[PF_DIM]      = {         1,   TO_OFF,  	TO_ON, 	  TO_OFF }
 102:functions.c   **** 
 103:functions.c   **** // Technician Menu - Diameter Setup                                 Step size,   Minimum,   Maximum
 104:functions.c   **** unsigned char const PF_GW302_DiameterMin[PF_DIM]                = {         1,         0,       100
 105:functions.c   **** unsigned char const PF_GW302_DiameterMax[PF_DIM]                = {         1,         0,       100
 106:functions.c   **** float const         PF_GW302_DiaCorrection[PF_DIM]              = {      0.01,      0.00,      0.20
 107:functions.c   **** unsigned char const PF_GW302_BaleDiaSmoothingFactor[PF_DIM]     = {         1,         1,       100
 108:functions.c   **** unsigned char const PF_GW302_DensityPresSmoothingFactor[PF_DIM] = {         1,         1,       100
 109:functions.c   **** unsigned char const PF_GW302_BaleShapeSmoothingFactor[PF_DIM]   = {         1,         1,       100
 110:functions.c   **** unsigned char const PF_GW302_KnifePresSmoothingFactor[PF_DIM]   = {         1,         1,       100
 111:functions.c   ****  
 112:functions.c   **** // Technician Menu - Density Setup Page 1/2    Step size,   Minimum,   Maximum,   Default
 113:functions.c   **** float const PF_GW302_Density1[PF_DIM]      = {      0.01,      0.00,     10.00,      0.00 }; // V -
 114:functions.c   **** float const PF_GW302_Density2[PF_DIM]      = {      0.01,      0.00,     10.00,      0.80 }; // V -
 115:functions.c   **** float const PF_GW302_Density3[PF_DIM]      = {      0.01,      0.00,     10.00,      1.20 }; // V -
 116:functions.c   **** float const PF_GW302_Density4[PF_DIM]      = {      0.01,      0.00,     10.00,      1.60 }; // V -
 117:functions.c   **** float const PF_GW302_Density5[PF_DIM]      = {      0.01,      0.00,     10.00,      2.00 }; // V -
 118:functions.c   **** float const PF_GW302_Density6[PF_DIM]      = {      0.01,      0.00,     10.00,      2.40 }; // V -
 119:functions.c   **** 
 120:functions.c   **** // Technician Menu - Density Setup Page 2/2    Step size,   Minimum,   Maximum,   Default
 121:functions.c   **** float const PF_GW302_Density7[PF_DIM]      = {      0.01,      0.00,     10.00,      2.80 }; // V -
 122:functions.c   **** float const PF_GW302_Density8[PF_DIM]      = {      0.01,      0.00,     10.00,      3.20 }; // V -
 123:functions.c   **** float const PF_GW302_Density9[PF_DIM]      = {      0.01,      0.00,     10.00,      3.60 }; // V -
 124:functions.c   **** float const PF_GW302_Density10[PF_DIM]     = {      0.01,      0.00,     10.00,      4.00 }; // V -
 125:functions.c   **** 
 126:functions.c   **** // Technician Menu - Knives Setup              Step size,   Minimum,   Maximum,   Default
 127:functions.c   **** float const PF_GW302_KnifePressure[PF_DIM] = {      0.01,      0.00,      9.99,      0.90 }; // V
 128:functions.c   **** float const PF_GW302_KnifePresWarn[PF_DIM] = {      0.01,      0.00,      9.99,      1.30 }; // V -
 129:functions.c   **** float const PF_GW302_DiverterDelay[PF_DIM] = {       0.1,       0.0,       9.9,       0.2 }; // s -
 130:functions.c   ****   
 131:functions.c   **** // Technician Menu - Formation 2                            Step size,   Minimum,   Maximum,   Defa
 132:functions.c   **** unsigned char const PF_GW302_FormationDensity[PF_DIM]   = {         1,         1,        10,    PF_
 133:functions.c   **** unsigned char const PF_GW302_FormationDiameter[PF_DIM]  = {         1,         0,       100,    PF_
 134:functions.c   **** unsigned char const PF_GW302_Formation2Density[PF_DIM]  = {         1,         1,        10,    PF_
 135:functions.c   **** unsigned char const PF_GW302_Formation2Diameter[PF_DIM] = {         1,         0,       100,    PF_
 136:functions.c   **** 
 137:functions.c   **** // Diagnostics - Digital Inputs                               Step size,      Minimum,     Maximum,
 138:functions.c   **** unsigned char const PF_GW302_ChoppingKnivesFitted[PF_DIM] = {         1, CKF_DISABLED, CKF_ENABLED,
 139:functions.c   **** 
 140:functions.c   **** 
 141:functions.c   **** // Bale Profile defaults                             Preset =     A    B    C    D    E
 142:functions.c   **** unsigned char const PresetCoreDiameter[BP_PRESET_MAX]       = {  70,  70,  70,  90,  90 }; // Core 
 143:functions.c   **** unsigned char const PresetCoreDensity[BP_PRESET_MAX]        = {   9,   8,   7,   3,   1 }; // Core 
 144:functions.c   **** unsigned char const PresetBaleDiameter[BP_PRESET_MAX]       = { 125, 125, 125, 125, 125 }; // Bale 
 145:functions.c   **** unsigned char const PresetBaleDensity[BP_PRESET_MAX]        = {  10,   9,   8,   4,   2 }; // Bale 
 146:functions.c   **** unsigned char const PresetFormationDiameter[BP_PRESET_MAX]  = {   0,   0,   0,   0,   0 }; // Forma
 147:functions.c   **** unsigned char const PresetFormationDensity[BP_PRESET_MAX]   = {  10,  10,  10,   5,   5 }; // Forma
 148:functions.c   **** unsigned char const PresetFormation2Diameter[BP_PRESET_MAX] = {   0,   0,   0,   0,   0 }; // Forma
 149:functions.c   **** unsigned char const PresetFormation2Density[BP_PRESET_MAX]  = {  10,  10,  10,   5,   5 }; // Forma
 150:functions.c   **** float const PresetNetLayers[BP_PRESET_MAX]                  = { 3.5, 3.0, 2.5, 4.2, 4.2 }; // Net L
 151:functions.c   **** 
 152:functions.c   **** 
 153:functions.c   **** // Bale/Core Density ID     =    1    2    3    4    5    6    7    8    9    10
 154:functions.c   **** unsigned char const Bar[10] = {  0,  40,  60,  80, 100, 120, 140, 160, 180,  200 };
 155:functions.c   **** 
 156:functions.c   **** 
 157:functions.c   **** /*
 158:functions.c   **** struct PinWin {
 159:functions.c   ****   unsigned short int PinNumber;
 160:functions.c   ****   void (*PinWindow)(unsigned int);
 161:functions.c   ****   };
 162:functions.c   **** */
 163:functions.c   **** struct PinWin const PinOption = {
 164:functions.c   ****        PINTECH1, screen141
 165:functions.c   **** };
 166:functions.c   **** 
 167:functions.c   **** // language string pointer
 168:functions.c   **** char const * const *ptText;
 169:functions.c   ****  
 170:functions.c   **** 
 171:functions.c   **** // Zeroed
 172:functions.c   **** unsigned char buffer[GRAPHICS_SIZE+128];
 173:functions.c   **** unsigned char adm[GRAPHICS_SIZE];
 174:functions.c   **** unsigned char startup, selection, escape, leaf, windowdepth, nextwindow;
 175:functions.c   **** unsigned char deftime, reverttime, looptime, offtime, half_second, AutoMan;
 176:functions.c   **** unsigned char swrel;
 177:functions.c   **** unsigned char DisableChoppingKnivesWarnings;
 178:functions.c   **** unsigned char ContinueOnKeyRelease;
 179:functions.c   **** unsigned char StartAutoNet;
 180:functions.c   **** 
 181:functions.c   **** float BaleDiaVolts;
 182:functions.c   **** float DensityPresVolts;
 183:functions.c   **** float BaleShapeVolts;
 184:functions.c   **** float KnifePresVolts;
 185:functions.c   **** 
 186:functions.c   **** float SupplyVolts;
 187:functions.c   **** 
 188:functions.c   **** unsigned char Kniv1_IPClosed;
 189:functions.c   **** 
 190:functions.c   **** unsigned int SeqOpOn, SeqOpOff, KeyOpOn, KeyOpOff;
 191:functions.c   **** 
 192:functions.c   **** float DiaTargetVolts;    // V
 193:functions.c   **** 
 194:functions.c   **** float DiaMinVolts;       // V
 195:functions.c   **** float DiaMaxVolts;       // V
 196:functions.c   **** 
 197:functions.c   **** float DiaMinExtDisplayPercent;    // 0.0 - 100.0 % of extended display range from PotZero to DiaMax
 198:functions.c   **** float DiaTargetExtDisplayPercent; // 0.0 - 100.0 % of extended display range from PotZero to DiaMax
 199:functions.c   **** float BaleDiaExtDisplayPercent;   // 0.0 - 100.0 % of extended display range from PotZero to DiaMax
 200:functions.c   **** 
 201:functions.c   **** float DiaFormationVolts;                  // V
 202:functions.c   **** float DiaFormation2Volts;                 // V
 203:functions.c   **** float DiaCoreVolts;                       // V
 204:functions.c   **** float DiaEngageVolts;                     // V
 205:functions.c   **** float DiaPreWarnVolts;                    // V
 206:functions.c   **** 
 207:functions.c   **** float DensityBaleVolts;                   // V
 208:functions.c   **** float DensityCoreVolts;                   // V
 209:functions.c   **** float DensityFormation2Volts;             // V
 210:functions.c   **** float DensityFormationVolts;              // V
 211:functions.c   **** 
 212:functions.c   **** unsigned char DensityPressureTooHigh;     // 0 / 1
 213:functions.c   **** 
 214:functions.c   **** void (*window)( unsigned int );
 215:functions.c   **** 
 216:functions.c   **** struct sdPreviousWindow PreviousWindow[MAX_WINDOWDEPTH];
 217:functions.c   **** 
 218:functions.c   **** unsigned int key;
 219:functions.c   **** unsigned char savecal, editing, valuechanged, number[16];
 220:functions.c   **** unsigned char SavecalDelayWithinMenus;
 221:functions.c   **** unsigned char SavecalDelayOnMainDisplay;
 222:functions.c   **** 
 223:functions.c   **** unsigned char ClockRam[16];
 224:functions.c   **** unsigned char RunFactorStatus, PowerSwitchedOff;
 225:functions.c   **** unsigned char buzz_count;
 226:functions.c   **** 
 227:functions.c   **** unsigned long int BaleDiaVoltsTotAccumMultSamples;     // V
 228:functions.c   **** unsigned long int DensityPresVoltsTotAccumMultSamples; // V
 229:functions.c   **** unsigned long int BaleShapeVoltsTotAccumMultSamples;   // V
 230:functions.c   **** unsigned long int KnifePresVoltsTotAccumMultSamples;   // V
 231:functions.c   **** 
 232:functions.c   **** unsigned int TC1_interrupt_count;
 233:functions.c   **** unsigned int EOC7_interrupt_count;
 234:functions.c   **** unsigned short int f0count, f6count;
 235:functions.c   **** unsigned int f0time, f6time;
 236:functions.c   **** unsigned char newf6; 
 237:functions.c   **** unsigned int TC1_millisec_count;
 238:functions.c   **** unsigned int buzz_length, off_length;
 239:functions.c   **** unsigned char AllTime;
 240:functions.c   **** unsigned int TC1_count0;
 241:functions.c   **** unsigned char Stage, DelayTime, BeepDelay;
 242:functions.c   **** unsigned char stagecomp, knivesdelay, cont_beep;
 243:functions.c   **** unsigned char target_bale_dia_reached_cont_beep;
 244:functions.c   **** unsigned char pre_warning_cont_beep;
 245:functions.c   **** unsigned char start_chamber_open_delay_cont_beep;
 246:functions.c   **** unsigned char end_chamber_open_delay_cont_beep;
 247:functions.c   **** 
 248:functions.c   **** unsigned int cal_speed_pulses;
 249:functions.c   **** unsigned long int NetPulseCount; // Pulses
 250:functions.c   **** #ifdef DEVELOP // Testing pulse counting
 251:functions.c   **** unsigned long int Saved_NetPulseCount; // Pulses
 252:functions.c   **** unsigned long int SavedPreNetPulseCount; // Pulses
 253:functions.c   **** unsigned long int TargetPreNetPulseCount; // Pulses
 254:functions.c   **** unsigned long int SavedBeakEngagePulseCount; // Pulses
 255:functions.c   **** #endif
 256:functions.c   **** unsigned long int BeakEngagePulseCount; // Pulses
 257:functions.c   **** unsigned long int NetPulseCountPrev; // Pulses
 258:functions.c   **** unsigned long int NewNetPulses; // Pulses
 259:functions.c   **** unsigned long int NetMetresPulseCount; // Pulses
 260:functions.c   **** float NetMetresAppliedForCount; // m
 261:functions.c   **** float NetPulseFrequency; // Hz
 262:functions.c   **** float NetPulsesPerLayer; // Pulses/layer
 263:functions.c   **** unsigned short int TargetNetPulses; // Pulses
 264:functions.c   **** 
 265:functions.c   **** unsigned char SequenceInProgress; 
 266:functions.c   **** 
 267:functions.c   **** unsigned char OP2OnDelayTime, OP2OffDelayTime;
 268:functions.c   **** unsigned char OP7OffDelayTime;
 269:functions.c   **** unsigned char OP8OnDelayTime, OP8OffDelayTime;
 270:functions.c   **** unsigned char NetWarningDelayTime;
 271:functions.c   **** 
 272:functions.c   **** unsigned char NetWarningOn;  // Check Net Error (AKA Net Warning) On/Off switch
 273:functions.c   **** 
 274:functions.c   **** unsigned char RollEngageTurnedOn; // OP5 Roller Engage Solenoid (AKA Pre Net Position) turned on
 275:functions.c   **** unsigned char SavedRollEngageTurnedOn; // Saved when IP3 opens in AUTO mode
 276:functions.c   **** unsigned char NetWarningDisabledWhileIP3OpenInAutoMode;
 277:functions.c   **** unsigned char NettingStartBeepsDisabledWhileIP3OpenInAutoMode; // Including Pre Warning & Net Delay
 278:functions.c   **** unsigned char RollerTimer = 255;      // OP5 Roller Engage Solenoid (AKA Pre Net Position) turned o
 279:functions.c   **** 
 280:functions.c   **** unsigned char RollEngageTurnedOnInManMode; // OP5 Roller Engage Solenoid (AKA Pre Net Position) tur
 281:functions.c   **** 
 282:functions.c   **** unsigned char ChoppingKnives1WarningOn; // Chopping knives position 1 Warning On/Off switch
 283:functions.c   **** 
 284:functions.c   **** unsigned char ChamberClosedDelayTime; // Door Closed
 285:functions.c   **** 
 286:functions.c   **** unsigned char BalerFullDelayTime;     // applies to MAN mode only -- Set to Net Delay
 287:functions.c   **** 
 288:functions.c   **** unsigned char ChamberOpenDelayTime;   // applies to MAN mode only
 289:functions.c   **** 
 290:functions.c   **** unsigned char ChamberOpenBeepDelay;   // applies to AUTO mode only
 291:functions.c   **** 
 292:functions.c   **** unsigned char BaleKickerStatus;                // Bale Kicker Down/Up flags
 293:functions.c   **** unsigned char BaleDiameterStatusInManMode;     // Bale Diameter Below/Above Engage Diameter (in MAN
 294:functions.c   **** unsigned char ChamberStatus;                   // Chamber Closed/Open flags
 295:functions.c   **** 
 296:functions.c   **** unsigned char OP8OnCount;             // Count for Density Release Solenoid (OP8) on after Chamber 
 297:functions.c   **** 
 298:functions.c   **** unsigned char IP4PulsesStoppedCount;        // Count for Net Pulses (on IP4) to stop after Target P
 299:functions.c   **** unsigned long int NetPulseCountAtLastCheck; // Pulses -- Similar NetPulseCountPrev to but used in a
 300:functions.c   **** 
 301:functions.c   **** unsigned char DrivingArrowBeepsDisabled;    // Driving Arrow Beeps turned off/on
 302:functions.c   **** 
 303:functions.c   **** unsigned char DensityControlFunctionActive;                 // Density Control Function (based on T
 304:functions.c   **** unsigned char NetPulseCheckingEnabled;                      // Checking for no pulses on IP4 (for N
 305:functions.c   **** unsigned char OP5TurnedOnAfterBeakEngagePulsesEnabled;      // Turning on Roller Engage Solenoid (O
 306:functions.c   **** unsigned char SavedOP5TurnedOnAfterBeakEngagePulsesEnabled; // Saved when IP3 opens in AUTO mode
 307:functions.c   **** 
 308:functions.c   **** #ifdef DEVELOP // Testing memory
 309:functions.c   **** unsigned char TestOutputReadMemAllocFail;  // flag set in SPI1FlashRead() -- brought out for testin
 310:functions.c   **** unsigned char TestOutputWriteMemAllocFail; // flag set in SPI1FlashWrite() -- brought out for testi
 311:functions.c   **** #endif
 312:functions.c   **** 
 313:functions.c   **** //unsigned long int forward_speed_buffer[6]; // removed on removing contents of functions in CANtes
 314:functions.c   **** //float mcm_forward_speed, local_forward_speed; // removed on removing contents of functions in CAN
 315:functions.c   **** 
 316:functions.c   **** //unsigned char use_simulated_speed;  // removed on removing contents of functions in CANtest.c
 317:functions.c   **** unsigned char tl_target_count[2], tl_confimation_delay[2]; // TC4_irq_handler
 318:functions.c   **** //unsigned char prestart_status;  // removed on removing contents of functions in CANtest.c
 319:functions.c   **** 
 320:functions.c   **** // to be placed in non volatile storage - check factor/runtime split
 321:functions.c   **** struct mcm_struct mcm[MAX_MCM];
 322:functions.c   **** #if 0 // Removed
 323:functions.c   **** struct prodt product[MAX_MCM][MAX_PRODUCTS];
 324:functions.c   **** #endif
 325:functions.c   **** 
 326:functions.c   **** #ifdef WINDOWS
 327:functions.c   ****  unsigned char Sam7A3sfr[0x4000];
 328:functions.c   **** #endif
 329:functions.c   **** 
 330:functions.c   **** // runtime variables for serial flash save held in this structure
 331:functions.c   **** #ifndef WINDOWS
 332:functions.c   ****  union PreservedRuntimeToChar pRun __attribute__((section(".IRamNV")));
 333:functions.c   **** #else 
 334:functions.c   ****  union PreservedRuntimeToChar pRun;
 335:functions.c   **** #endif
 336:functions.c   **** 
 337:functions.c   **** // factors for serial flash save held in this structure
 338:functions.c   **** #ifndef WINDOWS
 339:functions.c   ****  union PreservedFactorsToChar pFac __attribute__((section(".IRamNV")));
 340:functions.c   **** #else
 341:functions.c   ****  union PreservedFactorsToChar pFac;
 342:functions.c   **** #endif 
 343:functions.c   **** // -----------------------------------------------------------
 344:functions.c   **** 
 345:functions.c   **** #ifdef SHOW_TIME
 346:functions.c   **** // -----------------------------------------------------------
 347:functions.c   **** // Function Name       : ClockDisplay
 348:functions.c   **** // -----------------------------------------------------------
 349:functions.c   **** void ClockDisplay( unsigned char icon  )
 350:functions.c   **** {
  26              		.loc 1 350 0
  27              		.cfi_startproc
  28              	.LVL0:
  29 0000 30B5     		push	{r4, r5, lr}
  30              	.LCFI0:
  31              		.cfi_def_cfa_offset 12
  32              		.cfi_offset 4, -12
  33              		.cfi_offset 5, -8
  34              		.cfi_offset 14, -4
  35 0002 8BB0     		sub	sp, sp, #44
  36              	.LCFI1:
  37              		.cfi_def_cfa_offset 56
 351:functions.c   **** 	unsigned char xp, yp, tstring[32];
 352:functions.c   **** 
 353:functions.c   **** 	if( icon == CL0CK_ICON_ON )
  38              		.loc 1 353 0
  39 0004 0128     		cmp	r0, #1
  40 0006 0BD1     		bne	.L4
 354:functions.c   **** 	{
 355:functions.c   **** 		xp = write_bitmap( adm, F1_CLK, 2, 2, OR ) + 3;
  41              		.loc 1 355 0
  42 0008 0223     		mov	r3, #2
  43 000a 0093     		str	r3, [sp]
  44 000c 1948     		ldr	r0, .L5
  45              	.LVL1:
  46 000e 1A49     		ldr	r1, .L5+4
  47 0010 0222     		mov	r2, #2
  48 0012 FFF7FEFF 		bl	write_bitmap
  49              	.LVL2:
  50 0016 C51C     		add	r5, r0, #3
  51 0018 2D06     		lsl	r5, r5, #24
  52 001a 2D0E     		lsr	r5, r5, #24
  53              	.LVL3:
 356:functions.c   **** 		yp = 2;
  54              		.loc 1 356 0
  55 001c 0224     		mov	r4, #2
  56 001e 01E0     		b	.L2
  57              	.LVL4:
  58              	.L4:
 357:functions.c   **** 	}
 358:functions.c   **** 	else // icon == CL0CK_ICON_OFF
 359:functions.c   **** 	{
 360:functions.c   **** 		xp = 3;
 361:functions.c   **** 		yp = 3;
  59              		.loc 1 361 0
  60 0020 0324     		mov	r4, #3
 360:functions.c   **** 		xp = 3;
  61              		.loc 1 360 0
  62 0022 0325     		mov	r5, #3
  63              	.LVL5:
  64              	.L2:
 362:functions.c   **** 	}
 363:functions.c   **** 
 364:functions.c   **** 	sprintf( tstring, "%02X:%02X", ClockRam[2], ClockRam[1] );
  65              		.loc 1 364 0
  66 0024 1549     		ldr	r1, .L5+8
  67 0026 8A78     		ldrb	r2, [r1, #2]
  68 0028 4B78     		ldrb	r3, [r1, #1]
  69 002a 02A8     		add	r0, sp, #8
  70 002c 1449     		ldr	r1, .L5+12
  71 002e FFF7FEFF 		bl	sprintf
  72              	.LVL6:
 365:functions.c   **** 	display_f1_text( tstring, TS5, xp, yp, FIXED ); // 5 wide
  73              		.loc 1 365 0
  74 0032 0023     		mov	r3, #0
  75 0034 0093     		str	r3, [sp]
  76 0036 02A8     		add	r0, sp, #8
  77 0038 0521     		mov	r1, #5
  78 003a 2A1C     		mov	r2, r5
  79 003c 231C     		mov	r3, r4
  80 003e FFF7FEFF 		bl	display_f1_text
  81              	.LVL7:
 366:functions.c   **** 
 367:functions.c   **** 
 368:functions.c   **** 	if( half_second )
  82              		.loc 1 368 0
  83 0042 104B     		ldr	r3, .L5+16
  84 0044 1B78     		ldrb	r3, [r3]
  85 0046 002B     		cmp	r3, #0
  86 0048 0FD0     		beq	.L1
 369:functions.c   **** 	{
 370:functions.c   **** 		draw_box( adm, xp + 12, yp, xp + 13, yp + 6,  CLEAR );
  87              		.loc 1 370 0
  88 004a 291C     		mov	r1, r5
  89 004c 0C31     		add	r1, r1, #12
  90 004e 0906     		lsl	r1, r1, #24
  91 0050 090E     		lsr	r1, r1, #24
  92 0052 2B1C     		mov	r3, r5
  93 0054 0D33     		add	r3, r3, #13
  94 0056 1B06     		lsl	r3, r3, #24
  95 0058 1B0E     		lsr	r3, r3, #24
  96 005a A21D     		add	r2, r4, #6
  97 005c 0092     		str	r2, [sp]
  98 005e 4022     		mov	r2, #64
  99 0060 0192     		str	r2, [sp, #4]
 100 0062 0448     		ldr	r0, .L5
 101 0064 221C     		mov	r2, r4
 102 0066 FFF7FEFF 		bl	draw_box
 103              	.LVL8:
 104              	.L1:
 371:functions.c   **** 	}
 372:functions.c   **** 
 373:functions.c   **** }
 105              		.loc 1 373 0
 106 006a 0BB0     		add	sp, sp, #44
 107              		@ sp needed for prologue
 108              	.LVL9:
 109              	.LVL10:
 110 006c 30BC     		pop	{r4, r5}
 111 006e 01BC     		pop	{r0}
 112 0070 0047     		bx	r0
 113              	.L6:
 114 0072 C046     		.align	2
 115              	.L5:
 116 0074 00000000 		.word	adm
 117 0078 00000000 		.word	F1_CLK
 118 007c 00000000 		.word	ClockRam
 119 0080 00000000 		.word	.LC3
 120 0084 00000000 		.word	half_second
 121              		.cfi_endproc
 122              	.LFE376:
 124              		.section	.text.CheckSumIt,"ax",%progbits
 125              		.align	2
 126              		.global	CheckSumIt
 127              		.code	16
 128              		.thumb_func
 130              	CheckSumIt:
 131              	.LFB377:
 374:functions.c   **** // -----------------------------------------------------------
 375:functions.c   **** #endif
 376:functions.c   **** 
 377:functions.c   **** // -----------------------------------------------------------
 378:functions.c   **** // Function Name       : CheckSumIt
 379:functions.c   **** // -----------------------------------------------------------
 380:functions.c   **** unsigned long int CheckSumIt( unsigned char *data, unsigned char *end )
 381:functions.c   **** {
 132              		.loc 1 381 0
 133              		.cfi_startproc
 134              	.LVL11:
 135 0000 00B5     		push	{lr}
 136              	.LCFI2:
 137              		.cfi_def_cfa_offset 4
 138              		.cfi_offset 14, -4
 139              	.LVL12:
 382:functions.c   **** 	unsigned long int ul;
 383:functions.c   **** 
 384:functions.c   **** 	for( ul = 0; data < end; data++ )
 140              		.loc 1 384 0
 141 0002 8842     		cmp	r0, r1
 142 0004 06D2     		bcs	.L10
 143              		.loc 1 384 0 is_stmt 0 discriminator 2
 144 0006 0023     		mov	r3, #0
 145              	.LVL13:
 146              	.L9:
 385:functions.c   **** 	{
 386:functions.c   **** 		ul += *data;
 147              		.loc 1 386 0 is_stmt 1 discriminator 2
 148 0008 0278     		ldrb	r2, [r0]
 149 000a 9B18     		add	r3, r3, r2
 150              	.LVL14:
 384:functions.c   **** 	for( ul = 0; data < end; data++ )
 151              		.loc 1 384 0 discriminator 2
 152 000c 0130     		add	r0, r0, #1
 153              	.LVL15:
 154 000e 8842     		cmp	r0, r1
 155 0010 FAD1     		bne	.L9
 156 0012 00E0     		b	.L8
 157              	.LVL16:
 158              	.L10:
 384:functions.c   **** 	for( ul = 0; data < end; data++ )
 159              		.loc 1 384 0 is_stmt 0
 160 0014 0023     		mov	r3, #0
 161              	.LVL17:
 162              	.L8:
 387:functions.c   **** 	}
 388:functions.c   **** 
 389:functions.c   **** 	ul = ~ul + 1;
 163              		.loc 1 389 0 is_stmt 1
 164 0016 5842     		neg	r0, r3
 165              	.LVL18:
 390:functions.c   **** 
 391:functions.c   **** 	return( ul );
 392:functions.c   **** }
 166              		.loc 1 392 0
 167              		@ sp needed for prologue
 168 0018 02BC     		pop	{r1}
 169 001a 0847     		bx	r1
 170              		.cfi_endproc
 171              	.LFE377:
 173              		.section	.text.SetDefaultFactors,"ax",%progbits
 174              		.align	2
 175              		.global	SetDefaultFactors
 176              		.code	16
 177              		.thumb_func
 179              	SetDefaultFactors:
 180              	.LFB378:
 393:functions.c   **** // -----------------------------------------------------------
 394:functions.c   **** 
 395:functions.c   **** #if 0 // mcF[MAX_MCM] & prF[MAX_MCM][MAX_PRODUCTS] removed from pFac.pf
 396:functions.c   **** // -----------------------------------------------------------
 397:functions.c   **** // Function Name       : SetFactorPointers
 398:functions.c   **** // Object              : set preserved non volatile memory pointers
 399:functions.c   **** // -----------------------------------------------------------
 400:functions.c   **** void SetFactorPointers( void )
 401:functions.c   **** {
 402:functions.c   **** 	struct mcm_struct *ptm;
 403:functions.c   **** 	struct prodt *ptp;
 404:functions.c   **** 	unsigned int i, j;
 405:functions.c   **** 
 406:functions.c   **** 	for( i = 0; i < MAX_MCM; i++ )
 407:functions.c   **** 	{
 408:functions.c   **** 		// set MCM defaults - for rarely changed non volatile factors
 409:functions.c   **** 		ptm = &mcm[i];
 410:functions.c   **** 		ptm->pF = &(pFac.pf.mcF[i]);
 411:functions.c   **** 		ptm->pR = &(pRun.pr.mcR[i]);
 412:functions.c   **** 
 413:functions.c   **** 		// set Product defaults - for rarely changed non volatile factors
 414:functions.c   **** 		for( j = 0; j < MAX_PRODUCTS; j++ )
 415:functions.c   **** 		{
 416:functions.c   **** 			ptp = &product[i][j];
 417:functions.c   **** 			ptp->pF = &(pFac.pf.prF[i][j]);
 418:functions.c   **** 			ptp->pR = &(pRun.pr.prR[i][j]);
 419:functions.c   **** 		}
 420:functions.c   **** 	}
 421:functions.c   **** 
 422:functions.c   **** }
 423:functions.c   **** // -----------------------------------------------------------
 424:functions.c   **** #endif
 425:functions.c   **** 
 426:functions.c   **** // -----------------------------------------------------------
 427:functions.c   **** // Function Name       : SetDefaultFactors
 428:functions.c   **** // Object              : reset power on defaults & save to flash
 429:functions.c   **** // -----------------------------------------------------------
 430:functions.c   **** void SetDefaultFactors( void )
 431:functions.c   **** {
 181              		.loc 1 431 0
 182              		.cfi_startproc
 183 0000 F0B5     		push	{r4, r5, r6, r7, lr}
 184              	.LCFI3:
 185              		.cfi_def_cfa_offset 20
 186              		.cfi_offset 4, -20
 187              		.cfi_offset 5, -16
 188              		.cfi_offset 6, -12
 189              		.cfi_offset 7, -8
 190              		.cfi_offset 14, -4
 191 0002 5746     		mov	r7, sl
 192 0004 4E46     		mov	r6, r9
 193 0006 4546     		mov	r5, r8
 194 0008 E0B4     		push	{r5, r6, r7}
 195              	.LCFI4:
 196              		.cfi_def_cfa_offset 32
 197              		.cfi_offset 8, -32
 198              		.cfi_offset 9, -28
 199              		.cfi_offset 10, -24
 432:functions.c   **** 	char c;
 433:functions.c   **** 
 434:functions.c   **** 	ptText = TextString[pFac.pf.Lang];
 200              		.loc 1 434 0
 201 000a 8C4B     		ldr	r3, .L20
 202 000c 197B     		ldrb	r1, [r3, #12]
 203 000e 8900     		lsl	r1, r1, #2
 204 0010 8B4A     		ldr	r2, .L20+4
 205 0012 8958     		ldr	r1, [r1, r2]
 206 0014 8B4A     		ldr	r2, .L20+8
 207 0016 1160     		str	r1, [r2]
 435:functions.c   **** 
 436:functions.c   **** 
 437:functions.c   **** 	// set default Programmable Factors
 438:functions.c   **** 
 439:functions.c   **** 	if( pFac.pf.software_type != SOFTWARE ) // Value preserved between successive software versions
 208              		.loc 1 439 0
 209 0018 1A88     		ldrh	r2, [r3]
 210 001a 9723     		mov	r3, #151
 211 001c 5B00     		lsl	r3, r3, #1
 212 001e 9A42     		cmp	r2, r3
 213 0020 02D0     		beq	.L13
 440:functions.c   **** 		pFac.pf.GrandBaleTotal = PF_GW302_GrandBaleTotal[PF_DEF]; // bales
 214              		.loc 1 440 0
 215 0022 0022     		mov	r2, #0
 216 0024 854B     		ldr	r3, .L20
 217 0026 9A60     		str	r2, [r3, #8]
 218              	.L13:
 441:functions.c   **** 
 442:functions.c   **** 	pFac.pf.software_type = SOFTWARE;
 219              		.loc 1 442 0
 220 0028 8449     		ldr	r1, .L20
 221 002a 9723     		mov	r3, #151
 222 002c 5B00     		lsl	r3, r3, #1
 223 002e 0B80     		strh	r3, [r1]
 443:functions.c   **** 	pFac.pf.software_issue = ISSUE;
 224              		.loc 1 443 0
 225 0030 0123     		mov	r3, #1
 226 0032 4B80     		strh	r3, [r1, #2]
 444:functions.c   **** 	pFac.pf.software_revision = REVISION;
 227              		.loc 1 444 0
 228 0034 1723     		mov	r3, #23
 229 0036 8B80     		strh	r3, [r1, #4]
 445:functions.c   **** 
 446:functions.c   **** 	pFac.pf.Lang = 0;                  // Language set to English
 230              		.loc 1 446 0
 231 0038 0023     		mov	r3, #0
 232 003a 0B73     		strb	r3, [r1, #12]
 233              	.LVL19:
 234 003c 0B1C     		mov	r3, r1
 235 003e 1033     		add	r3, r3, #16
 430:functions.c   **** void SetDefaultFactors( void )
 236              		.loc 1 430 0
 237 0040 3831     		add	r1, r1, #56
 447:functions.c   **** 
 448:functions.c   **** 	for( c = 0; c < MAX_STORES; c++ )  // Bale Totals (in Bale Stores A to J) set to 0
 449:functions.c   **** 		pFac.pf.BaleTotal[c] = PF_GW302_BaleTotal[PF_DEF]; // bales
 238              		.loc 1 449 0
 239 0042 0022     		mov	r2, #0
 240              	.LVL20:
 241              	.L14:
 242              		.loc 1 449 0 is_stmt 0 discriminator 2
 243 0044 04C3     		stmia	r3!, {r2}
 448:functions.c   **** 	for( c = 0; c < MAX_STORES; c++ )  // Bale Totals (in Bale Stores A to J) set to 0
 244              		.loc 1 448 0 is_stmt 1 discriminator 2
 245 0046 8B42     		cmp	r3, r1
 246 0048 FCD1     		bne	.L14
 450:functions.c   **** 
 451:functions.c   **** 	pFac.pf.BaleStore = PF_GW302_BaleStore[PF_DEF]; // Bale Store ID set to A
 247              		.loc 1 451 0
 248 004a 7C49     		ldr	r1, .L20
 249 004c 0023     		mov	r3, #0
 250 004e 3822     		mov	r2, #56
 251 0050 8B54     		strb	r3, [r1, r2]
 452:functions.c   **** 
 453:functions.c   **** 	// pFac.pf.BaudRate -- Not set/used
 454:functions.c   **** 
 455:functions.c   **** 	// Machine Menu
 456:functions.c   **** 	pFac.pf.GW302_BaleProfile = PF_GW302_BaleProfile[PF_DEF]; // Preset A to E
 252              		.loc 1 456 0
 253 0052 3A22     		mov	r2, #58
 254 0054 8B54     		strb	r3, [r1, r2]
 255              	.LVL21:
 256 0056 7C48     		ldr	r0, .L20+12
 257 0058 5031     		add	r1, r1, #80
 430:functions.c   **** void SetDefaultFactors( void )
 258              		.loc 1 430 0
 259 005a 784A     		ldr	r2, .L20
 260 005c 9046     		mov	r8, r2
 457:functions.c   **** 	for( c = 0; c < BP_PRESET_MAX; c++ )  // Bale Profile defaults set for Presets A to E
 458:functions.c   **** 	{
 459:functions.c   **** 		pFac.pf.GW302_BaleDiameter[c] =  PresetBaleDiameter[c]; // cm
 261              		.loc 1 459 0
 262 005e 7B4C     		ldr	r4, .L20+16
 263 0060 A446     		mov	ip, r4
 460:functions.c   **** 		pFac.pf.GW302_CoreDiameter[c] =  PresetCoreDiameter[c]; // cm
 264              		.loc 1 460 0
 265 0062 7B4F     		ldr	r7, .L20+20
 461:functions.c   **** 		pFac.pf.GW302_BaleDensity[c]  =  PresetBaleDensity[c]; // ID
 266              		.loc 1 461 0
 267 0064 7B4E     		ldr	r6, .L20+24
 462:functions.c   **** 		pFac.pf.GW302_CoreDensity[c]  =  PresetCoreDensity[c]; // ID
 268              		.loc 1 462 0
 269 0066 7C4D     		ldr	r5, .L20+28
 270 0068 AA46     		mov	sl, r5
 271              	.LVL22:
 272              	.L15:
 430:functions.c   **** void SetDefaultFactors( void )
 273              		.loc 1 430 0 discriminator 2
 274 006a 4446     		mov	r4, r8
 275 006c E218     		add	r2, r4, r3
 276 006e 141C     		mov	r4, r2
 277 0070 3B34     		add	r4, r4, #59
 459:functions.c   **** 		pFac.pf.GW302_BaleDiameter[c] =  PresetBaleDiameter[c]; // cm
 278              		.loc 1 459 0 discriminator 2
 279 0072 6546     		mov	r5, ip
 280 0074 5D5D     		ldrb	r5, [r3, r5]
 281 0076 2570     		strb	r5, [r4]
 430:functions.c   **** void SetDefaultFactors( void )
 282              		.loc 1 430 0 discriminator 2
 283 0078 0534     		add	r4, r4, #5
 460:functions.c   **** 		pFac.pf.GW302_CoreDiameter[c] =  PresetCoreDiameter[c]; // cm
 284              		.loc 1 460 0 discriminator 2
 285 007a DD5D     		ldrb	r5, [r3, r7]
 286 007c 2570     		strb	r5, [r4]
 430:functions.c   **** void SetDefaultFactors( void )
 287              		.loc 1 430 0 discriminator 2
 288 007e 0534     		add	r4, r4, #5
 461:functions.c   **** 		pFac.pf.GW302_BaleDensity[c]  =  PresetBaleDensity[c]; // ID
 289              		.loc 1 461 0 discriminator 2
 290 0080 9D5D     		ldrb	r5, [r3, r6]
 291 0082 2570     		strb	r5, [r4]
 430:functions.c   **** void SetDefaultFactors( void )
 292              		.loc 1 430 0 discriminator 2
 293 0084 4A32     		add	r2, r2, #74
 294              		.loc 1 462 0 discriminator 2
 295 0086 5546     		mov	r5, sl
 296 0088 5C5D     		ldrb	r4, [r3, r5]
 297 008a 1470     		strb	r4, [r2]
 463:functions.c   **** 		pFac.pf.GW302_NetLayers[c]    =  PresetNetLayers[c]; // layers
 298              		.loc 1 463 0 discriminator 2
 299 008c 04C8     		ldmia	r0!, {r2}
 300 008e 04C1     		stmia	r1!, {r2}
 301 0090 0133     		add	r3, r3, #1
 457:functions.c   **** 	for( c = 0; c < BP_PRESET_MAX; c++ )  // Bale Profile defaults set for Presets A to E
 302              		.loc 1 457 0 discriminator 2
 303 0092 052B     		cmp	r3, #5
 304 0094 E9D1     		bne	.L15
 464:functions.c   **** 	}
 465:functions.c   **** 	// LubeCounter -- Moved to preserved run-time totals
 466:functions.c   **** 	// GrandBaleTotal -- Moved to early position in memory since value is to be preserved between succ
 467:functions.c   **** 	pFac.pf.GW302_DiaPotZero = PF_GW302_DiaPotZero[PF_DEF]; // V
 305              		.loc 1 467 0
 306 0096 694B     		ldr	r3, .L20
 307 0098 FE20     		mov	r0, #254
 308 009a 8005     		lsl	r0, r0, #22
 309 009c 5866     		str	r0, [r3, #100]
 468:functions.c   **** 	pFac.pf.GW302_DiameterCorrection = PF_GW302_DiameterCorrection[PF_DEF]; // cm
 310              		.loc 1 468 0
 311 009e 0022     		mov	r2, #0
 312 00a0 6821     		mov	r1, #104
 313 00a2 5A54     		strb	r2, [r3, r1]
 469:functions.c   **** 	pFac.pf.GW302_BaleShapeIndicator = PF_GW302_BaleShapeIndicator[PF_DEF]; // Off/On/Beep
 314              		.loc 1 469 0
 315 00a4 6921     		mov	r1, #105
 316 00a6 5A54     		strb	r2, [r3, r1]
 470:functions.c   **** 	pFac.pf.GW302_BaleShapeIndicatorZero = PF_GW302_BaleShapeIndicatorZero[PF_DEF]; // V
 317              		.loc 1 470 0
 318 00a8 6C49     		ldr	r1, .L20+32
 319 00aa D966     		str	r1, [r3, #108]
 471:functions.c   **** 	pFac.pf.GW302_TotalNetMetres = PF_GW302_TotalNetMetres[PF_DEF]; // m
 320              		.loc 1 471 0
 321 00ac 0021     		mov	r1, #0
 322 00ae 1967     		str	r1, [r3, #112]
 472:functions.c   **** 	pFac.pf.GW302_PreWarningBeep = PF_GW302_PreWarningBeep[PF_DEF]; // %
 323              		.loc 1 472 0
 324 00b0 5A25     		mov	r5, #90
 325 00b2 7424     		mov	r4, #116
 326 00b4 1D55     		strb	r5, [r3, r4]
 473:functions.c   **** 	pFac.pf.GW302_NetDelay = PF_GW302_NetDelay[PF_DEF]; // s
 327              		.loc 1 473 0
 328 00b6 8025     		mov	r5, #128
 329 00b8 ED05     		lsl	r5, r5, #23
 330 00ba 9D67     		str	r5, [r3, #120]
 474:functions.c   **** 
 475:functions.c   **** 	// Technician Menu - Baler Full
 476:functions.c   **** 	pFac.pf.GW302_LubeAlarm = PF_GW302_LubeAlarm[PF_DEF]; // bales
 331              		.loc 1 476 0
 332 00bc 9626     		mov	r6, #150
 333 00be 7600     		lsl	r6, r6, #1
 334 00c0 7E24     		mov	r4, #126
 335 00c2 1E53     		strh	r6, [r3, r4]
 477:functions.c   **** 	pFac.pf.GW302_PresDeadband = PF_GW302_PresDeadband[PF_DEF]; // V
 336              		.loc 1 477 0
 337 00c4 8024     		mov	r4, #128
 338 00c6 1951     		str	r1, [r3, r4]
 478:functions.c   **** 	pFac.pf.GW302_NetSpeed = PF_GW302_NetSpeed[PF_DEF]; // Hz
 339              		.loc 1 478 0
 340 00c8 654E     		ldr	r6, .L20+36
 341 00ca 8424     		mov	r4, #132
 342 00cc 1E51     		str	r6, [r3, r4]
 479:functions.c   **** 	pFac.pf.GW302_PresSwDelay = PF_GW302_PresSwDelay[PF_DEF]; // s
 343              		.loc 1 479 0
 344 00ce 654C     		ldr	r4, .L20+40
 345 00d0 8826     		mov	r6, #136
 346 00d2 9C51     		str	r4, [r3, r6]
 480:functions.c   **** 	pFac.pf.GW302_DoorClosed = PF_GW302_DoorClosed[PF_DEF]; // s
 347              		.loc 1 480 0
 348 00d4 FF27     		mov	r7, #255
 349 00d6 BF05     		lsl	r7, r7, #22
 350 00d8 8C26     		mov	r6, #140
 351 00da 9F51     		str	r7, [r3, r6]
 481:functions.c   **** 	pFac.pf.GW302_BaleSizeFactor = PF_GW302_BaleSizeFactor[PF_DEF];
 352              		.loc 1 481 0
 353 00dc DD27     		mov	r7, #221
 354 00de 9026     		mov	r6, #144
 355 00e0 9F55     		strb	r7, [r3, r6]
 482:functions.c   **** 	pFac.pf.GW302_FillPotRange = PF_GW302_FillPotRange[PF_DEF]; // V
 356              		.loc 1 482 0
 357 00e2 9426     		mov	r6, #148
 358 00e4 9851     		str	r0, [r3, r6]
 483:functions.c   **** 	pFac.pf.GW302_FillPotIgnore = PF_GW302_FillPotIgnore[PF_DEF]; // V
 359              		.loc 1 483 0
 360 00e6 FA27     		mov	r7, #250
 361 00e8 BF05     		lsl	r7, r7, #22
 362 00ea 9826     		mov	r6, #152
 363 00ec 9F51     		str	r7, [r3, r6]
 484:functions.c   **** 	pFac.pf.GW302_EngageDiameter = PF_GW302_EngageDiameter[PF_DEF]; // %
 364              		.loc 1 484 0
 365 00ee 5F27     		mov	r7, #95
 366 00f0 9C26     		mov	r6, #156
 367 00f2 9F55     		strb	r7, [r3, r6]
 485:functions.c   **** 	pFac.pf.GW302_BaleIndicator = PF_GW302_BaleIndicator[PF_DEF]; // Steer/Fill
 368              		.loc 1 485 0
 369 00f4 9D26     		mov	r6, #157
 370 00f6 9A55     		strb	r2, [r3, r6]
 486:functions.c   **** 	pFac.pf.GW302_RollerDelay = PF_GW302_RollerDelay[PF_DEF]; // s
 371              		.loc 1 486 0
 372 00f8 FC27     		mov	r7, #252
 373 00fa BF05     		lsl	r7, r7, #22
 374 00fc A026     		mov	r6, #160
 375 00fe 9F51     		str	r7, [r3, r6]
 487:functions.c   **** 
 488:functions.c   **** 	// Technician Menu - Netting Setup
 489:functions.c   **** 	pFac.pf.GW302_NetOn = PF_GW302_NetOn[PF_DEF]; // s
 376              		.loc 1 489 0
 377 0100 594F     		ldr	r7, .L20+44
 378 0102 A426     		mov	r6, #164
 379 0104 9F51     		str	r7, [r3, r6]
 490:functions.c   **** 	pFac.pf.GW302_NetCutPulse = PF_GW302_NetCutPulse[PF_DEF]; // pulses
 380              		.loc 1 490 0
 381 0106 2827     		mov	r7, #40
 382 0108 A826     		mov	r6, #168
 383 010a 9F55     		strb	r7, [r3, r6]
 491:functions.c   **** 	pFac.pf.GW302_NetCutTime = PF_GW302_NetCutTime[PF_DEF]; // s
 384              		.loc 1 491 0
 385 010c 574F     		ldr	r7, .L20+48
 386 010e AC26     		mov	r6, #172
 387 0110 9F51     		str	r7, [r3, r6]
 492:functions.c   **** 	pFac.pf.GW302_MinDiaPulsPerLay = PF_GW302_MinDiaPulsPerLay[PF_DEF]; // pulses/layer
 388              		.loc 1 492 0
 389 0112 574F     		ldr	r7, .L20+52
 390 0114 B026     		mov	r6, #176
 391 0116 9F51     		str	r7, [r3, r6]
 493:functions.c   **** 	pFac.pf.GW302_MaxDiaPulsPerLay = PF_GW302_MaxDiaPulsPerLay[PF_DEF]; // pulses/layer
 392              		.loc 1 493 0
 393 0118 564F     		ldr	r7, .L20+56
 394 011a B426     		mov	r6, #180
 395 011c 9F51     		str	r7, [r3, r6]
 494:functions.c   **** 	pFac.pf.GW302_NetFactor = PF_GW302_NetFactor[PF_DEF];
 396              		.loc 1 494 0
 397 011e B826     		mov	r6, #184
 398 0120 9851     		str	r0, [r3, r6]
 495:functions.c   **** 	pFac.pf.GW302_NoNetPulse = PF_GW302_NoNetPulse[PF_DEF]; // s
 399              		.loc 1 495 0
 400 0122 8120     		mov	r0, #129
 401 0124 C005     		lsl	r0, r0, #23
 402 0126 BC26     		mov	r6, #188
 403 0128 9851     		str	r0, [r3, r6]
 496:functions.c   **** 	pFac.pf.GW302_PreNetPulse = PF_GW302_PreNetPulse[PF_DEF]; // pulses
 404              		.loc 1 496 0
 405 012a 0227     		mov	r7, #2
 406 012c C026     		mov	r6, #192
 407 012e 9F55     		strb	r7, [r3, r6]
 497:functions.c   **** 	pFac.pf.GW302_NetSystem = PF_GW302_NetSystem[PF_DEF]; // Beak/Roller
 408              		.loc 1 497 0
 409 0130 0127     		mov	r7, #1
 410 0132 C126     		mov	r6, #193
 411 0134 9F55     		strb	r7, [r3, r6]
 498:functions.c   **** 	pFac.pf.GW302_BeakEngage = PF_GW302_BeakEngage[PF_DEF]; // pulses
 412              		.loc 1 498 0
 413 0136 0627     		mov	r7, #6
 414 0138 C226     		mov	r6, #194
 415 013a 9F55     		strb	r7, [r3, r6]
 499:functions.c   **** 	pFac.pf.GW302_TwineOption = PF_GW302_TwineOption[PF_DEF]; // Net option on or off
 416              		.loc 1 499 0
 417 013c C326     		mov	r6, #195
 418 013e 9A55     		strb	r2, [r3, r6]
 500:functions.c   **** 	pFac.pf.GW302_NetTwineOption = PF_GW302_NetTwineOption[PF_DEF]; // Net or twine
 419              		.loc 1 500 0
 420 0140 7C26     		mov	r6, #124
 421 0142 9A55     		strb	r2, [r3, r6]
 501:functions.c   **** 
 502:functions.c   **** 	// Technician Menu - Diameter Setup
 503:functions.c   **** 	pFac.pf.GW302_DiameterMin = PF_GW302_DiameterMin[PF_DEF]; // %
 422              		.loc 1 503 0
 423 0144 0826     		mov	r6, #8
 424 0146 C422     		mov	r2, #196
 425 0148 9E54     		strb	r6, [r3, r2]
 504:functions.c   **** 	pFac.pf.GW302_DiameterMax = PF_GW302_DiameterMax[PF_DEF]; // %
 426              		.loc 1 504 0
 427 014a 6426     		mov	r6, #100
 428 014c C522     		mov	r2, #197
 429 014e 9E54     		strb	r6, [r3, r2]
 505:functions.c   **** 	pFac.pf.GW302_DiaCorrection = PF_GW302_DiaCorrection[PF_DEF]; // V
 430              		.loc 1 505 0
 431 0150 494F     		ldr	r7, .L20+60
 432 0152 C822     		mov	r2, #200
 433 0154 9F50     		str	r7, [r3, r2]
 506:functions.c   **** 	pFac.pf.GW302_BaleDiaSmoothingFactor = PF_GW302_BaleDiaSmoothingFactor[PF_DEF]; // %
 434              		.loc 1 506 0
 435 0156 3222     		mov	r2, #50
 436 0158 CC27     		mov	r7, #204
 437 015a DA55     		strb	r2, [r3, r7]
 507:functions.c   **** 	pFac.pf.GW302_DensityPresSmoothingFactor = PF_GW302_DensityPresSmoothingFactor[PF_DEF]; // %
 438              		.loc 1 507 0
 439 015c CD27     		mov	r7, #205
 440 015e DE55     		strb	r6, [r3, r7]
 508:functions.c   **** 	pFac.pf.GW302_BaleShapeSmoothingFactor = PF_GW302_BaleShapeSmoothingFactor[PF_DEF]; // %
 441              		.loc 1 508 0
 442 0160 CE26     		mov	r6, #206
 443 0162 9A55     		strb	r2, [r3, r6]
 509:functions.c   **** 	pFac.pf.GW302_KnifePresSmoothingFactor = PF_GW302_KnifePresSmoothingFactor[PF_DEF]; // %
 444              		.loc 1 509 0
 445 0164 CF26     		mov	r6, #207
 446 0166 9A55     		strb	r2, [r3, r6]
 510:functions.c   **** 
 511:functions.c   **** 	// Technician Menu - Density Setup
 512:functions.c   **** 	pFac.pf.GW302_Density1 = PF_GW302_Density1[PF_DEF]; // V
 447              		.loc 1 512 0
 448 0168 D022     		mov	r2, #208
 449 016a 9950     		str	r1, [r3, r2]
 513:functions.c   **** 	pFac.pf.GW302_Density2 = PF_GW302_Density2[PF_DEF]; // V
 450              		.loc 1 513 0
 451 016c 4349     		ldr	r1, .L20+64
 452 016e D422     		mov	r2, #212
 453 0170 9950     		str	r1, [r3, r2]
 514:functions.c   **** 	pFac.pf.GW302_Density3 = PF_GW302_Density3[PF_DEF]; // V
 454              		.loc 1 514 0
 455 0172 4349     		ldr	r1, .L20+68
 456 0174 D822     		mov	r2, #216
 457 0176 9950     		str	r1, [r3, r2]
 515:functions.c   **** 	pFac.pf.GW302_Density4 = PF_GW302_Density4[PF_DEF]; // V
 458              		.loc 1 515 0
 459 0178 4249     		ldr	r1, .L20+72
 460 017a DC22     		mov	r2, #220
 461 017c 9950     		str	r1, [r3, r2]
 516:functions.c   **** 	pFac.pf.GW302_Density5 = PF_GW302_Density5[PF_DEF]; // V
 462              		.loc 1 516 0
 463 017e E022     		mov	r2, #224
 464 0180 9D50     		str	r5, [r3, r2]
 517:functions.c   **** 	pFac.pf.GW302_Density6 = PF_GW302_Density6[PF_DEF]; // V
 465              		.loc 1 517 0
 466 0182 4149     		ldr	r1, .L20+76
 467 0184 E422     		mov	r2, #228
 468 0186 9950     		str	r1, [r3, r2]
 518:functions.c   **** 	pFac.pf.GW302_Density7 = PF_GW302_Density7[PF_DEF]; // V
 469              		.loc 1 518 0
 470 0188 4049     		ldr	r1, .L20+80
 471 018a E822     		mov	r2, #232
 472 018c 9950     		str	r1, [r3, r2]
 519:functions.c   **** 	pFac.pf.GW302_Density8 = PF_GW302_Density8[PF_DEF]; // V
 473              		.loc 1 519 0
 474 018e 4049     		ldr	r1, .L20+84
 475 0190 EC22     		mov	r2, #236
 476 0192 9950     		str	r1, [r3, r2]
 520:functions.c   **** 	pFac.pf.GW302_Density9 = PF_GW302_Density9[PF_DEF]; // V
 477              		.loc 1 520 0
 478 0194 3F49     		ldr	r1, .L20+88
 479 0196 F022     		mov	r2, #240
 480 0198 9950     		str	r1, [r3, r2]
 521:functions.c   **** 	pFac.pf.GW302_Density10 = PF_GW302_Density10[PF_DEF]; // V
 481              		.loc 1 521 0
 482 019a F422     		mov	r2, #244
 483 019c 9850     		str	r0, [r3, r2]
 522:functions.c   **** 
 523:functions.c   **** 	// Technician Menu - Knives Setup
 524:functions.c   **** 	pFac.pf.GW302_KnifePressure = PF_GW302_KnifePressure[PF_DEF]; // V
 484              		.loc 1 524 0
 485 019e 3E49     		ldr	r1, .L20+92
 486 01a0 F822     		mov	r2, #248
 487 01a2 9950     		str	r1, [r3, r2]
 525:functions.c   **** 	pFac.pf.GW302_KnifePresWarn = PF_GW302_KnifePresWarn[PF_DEF]; // V
 488              		.loc 1 525 0
 489 01a4 3D49     		ldr	r1, .L20+96
 490 01a6 FC22     		mov	r2, #252
 491 01a8 9950     		str	r1, [r3, r2]
 526:functions.c   **** 	pFac.pf.GW302_DiverterDelay = PF_GW302_DiverterDelay[PF_DEF]; // s
 492              		.loc 1 526 0
 493 01aa 8022     		mov	r2, #128
 494 01ac 5200     		lsl	r2, r2, #1
 495 01ae 9C50     		str	r4, [r3, r2]
 496              	.LVL23:
 497 01b0 0023     		mov	r3, #0
 430:functions.c   **** void SetDefaultFactors( void )
 498              		.loc 1 430 0
 499 01b2 2248     		ldr	r0, .L20
 500 01b4 8446     		mov	ip, r0
 527:functions.c   **** 
 528:functions.c   **** 	// Technician Menu - Formation 2
 529:functions.c   **** 	for( c = 0; c < BP_PRESET_MAX; c++ )   // Bale Profile defaults set for Presets A to E
 530:functions.c   **** 	{
 531:functions.c   **** 		pFac.pf.GW302_FormationDensity[c]   = PresetFormationDensity[c]; // ID
 501              		.loc 1 531 0
 502 01b6 3A4F     		ldr	r7, .L20+100
 532:functions.c   **** 		pFac.pf.GW302_FormationDiameter[c]  = PresetFormationDiameter[c]; // %
 503              		.loc 1 532 0
 504 01b8 3A4E     		ldr	r6, .L20+104
 533:functions.c   **** 		pFac.pf.GW302_Formation2Density[c]  = PresetFormation2Density[c]; // ID
 505              		.loc 1 533 0
 506 01ba 3B4D     		ldr	r5, .L20+108
 534:functions.c   **** 		pFac.pf.GW302_Formation2Diameter[c] = PresetFormation2Diameter[c]; // %
 507              		.loc 1 534 0
 508 01bc 3B4C     		ldr	r4, .L20+112
 509              	.LVL24:
 510              	.L16:
 430:functions.c   **** void SetDefaultFactors( void )
 511              		.loc 1 430 0 discriminator 2
 512 01be 6146     		mov	r1, ip
 513 01c0 CA18     		add	r2, r1, r3
 514 01c2 511D     		add	r1, r2, #5
 515 01c4 FF31     		add	r1, r1, #255
 531:functions.c   **** 		pFac.pf.GW302_FormationDensity[c]   = PresetFormationDensity[c]; // ID
 516              		.loc 1 531 0 discriminator 2
 517 01c6 D85D     		ldrb	r0, [r3, r7]
 518 01c8 0870     		strb	r0, [r1]
 430:functions.c   **** void SetDefaultFactors( void )
 519              		.loc 1 430 0 discriminator 2
 520 01ca 3948     		ldr	r0, .L20+116
 521 01cc 1118     		add	r1, r2, r0
 532:functions.c   **** 		pFac.pf.GW302_FormationDiameter[c]  = PresetFormationDiameter[c]; // %
 522              		.loc 1 532 0 discriminator 2
 523 01ce 985D     		ldrb	r0, [r3, r6]
 524 01d0 0870     		strb	r0, [r1]
 430:functions.c   **** void SetDefaultFactors( void )
 525              		.loc 1 430 0 discriminator 2
 526 01d2 8720     		mov	r0, #135
 527 01d4 4000     		lsl	r0, r0, #1
 528 01d6 1118     		add	r1, r2, r0
 533:functions.c   **** 		pFac.pf.GW302_Formation2Density[c]  = PresetFormation2Density[c]; // ID
 529              		.loc 1 533 0 discriminator 2
 530 01d8 585D     		ldrb	r0, [r3, r5]
 531 01da 0870     		strb	r0, [r1]
 430:functions.c   **** void SetDefaultFactors( void )
 532              		.loc 1 430 0 discriminator 2
 533 01dc 1432     		add	r2, r2, #20
 534 01de FF32     		add	r2, r2, #255
 535              		.loc 1 534 0 discriminator 2
 536 01e0 195D     		ldrb	r1, [r3, r4]
 537 01e2 1170     		strb	r1, [r2]
 538 01e4 0133     		add	r3, r3, #1
 529:functions.c   **** 	for( c = 0; c < BP_PRESET_MAX; c++ )   // Bale Profile defaults set for Presets A to E
 539              		.loc 1 529 0 discriminator 2
 540 01e6 052B     		cmp	r3, #5
 541 01e8 E9D1     		bne	.L16
 535:functions.c   **** 	}
 536:functions.c   **** 
 537:functions.c   **** 	// Diagnostics - Digital Inputs
 538:functions.c   **** 	pFac.pf.GW302_ChoppingKnivesFitted = PF_GW302_ChoppingKnivesFitted[PF_DEF]; // Disabled/Enabled
 542              		.loc 1 538 0
 543 01ea 144C     		ldr	r4, .L20
 544 01ec 0022     		mov	r2, #0
 545 01ee 8C23     		mov	r3, #140
 546 01f0 5B00     		lsl	r3, r3, #1
 547 01f2 E254     		strb	r2, [r4, r3]
 539:functions.c   **** 
 540:functions.c   **** 	pFac.pf.CheckSum = CheckSumIt( &(pFac.ch[0]), (unsigned char *)&(pFac.pf.CheckSum) );
 548              		.loc 1 540 0
 549 01f4 8E22     		mov	r2, #142
 550 01f6 5200     		lsl	r2, r2, #1
 551 01f8 A118     		add	r1, r4, r2
 552 01fa 201C     		mov	r0, r4
 553 01fc FFF7FEFF 		bl	CheckSumIt
 554              	.LVL25:
 555 0200 8E23     		mov	r3, #142
 556 0202 5B00     		lsl	r3, r3, #1
 557 0204 E050     		str	r0, [r4, r3]
 541:functions.c   **** 
 542:functions.c   **** #ifndef WINDOWS
 543:functions.c   **** 	AT91C_BASE_PIOA->PIO_CODR = BUZZER;
 558              		.loc 1 543 0
 559 0206 2B4D     		ldr	r5, .L20+120
 560 0208 8026     		mov	r6, #128
 561 020a F601     		lsl	r6, r6, #7
 562 020c 6E63     		str	r6, [r5, #52]
 544:functions.c   **** 	//AT91C_BASE_PIOA->PIO_CODR = OUT5;
 545:functions.c   **** 
 546:functions.c   **** 	// write main factors to SPI1 Flash @ 0x000000
 547:functions.c   **** 	SPI1FlashWrite( SFC_PW, pFac_BASEADDRESS, &(pFac.ch[0]), sizeof(pFac.pf) );
 563              		.loc 1 547 0
 564 020e 9027     		mov	r7, #144
 565 0210 7F00     		lsl	r7, r7, #1
 566 0212 0A20     		mov	r0, #10
 567 0214 0021     		mov	r1, #0
 568 0216 221C     		mov	r2, r4
 569 0218 3B1C     		mov	r3, r7
 570 021a FFF7FEFF 		bl	SPI1FlashWrite
 571              	.LVL26:
 548:functions.c   **** 
 549:functions.c   **** 	// write backup factors to SPI1 Flash @ 0x000000 + 800h
 550:functions.c   **** 	SPI1FlashWrite( SFC_PW, pFac_BASEADDRESS+ 0x800, &(pFac.ch[0]), sizeof(pFac.pf) );
 572              		.loc 1 550 0
 573 021e 0A20     		mov	r0, #10
 574 0220 8021     		mov	r1, #128
 575 0222 0901     		lsl	r1, r1, #4
 576 0224 221C     		mov	r2, r4
 577 0226 3B1C     		mov	r3, r7
 578 0228 FFF7FEFF 		bl	SPI1FlashWrite
 579              	.LVL27:
 551:functions.c   **** 
 552:functions.c   **** 	AT91C_BASE_PIOA->PIO_SODR = BUZZER;
 580              		.loc 1 552 0
 581 022c 2E63     		str	r6, [r5, #48]
 553:functions.c   **** 	//AT91C_BASE_PIOA->PIO_SODR = OUT5;
 554:functions.c   **** #endif
 555:functions.c   **** }
 582              		.loc 1 555 0
 583              		@ sp needed for prologue
 584 022e 1CBC     		pop	{r2, r3, r4}
 585 0230 9046     		mov	r8, r2
 586 0232 9946     		mov	r9, r3
 587 0234 A246     		mov	sl, r4
 588 0236 F0BC     		pop	{r4, r5, r6, r7}
 589 0238 01BC     		pop	{r0}
 590 023a 0047     		bx	r0
 591              	.L21:
 592              		.align	2
 593              	.L20:
 594 023c 00000000 		.word	.LANCHOR0
 595 0240 00000000 		.word	TextString
 596 0244 00000000 		.word	ptText
 597 0248 00000000 		.word	.LANCHOR1
 598 024c 00000000 		.word	.LANCHOR2
 599 0250 00000000 		.word	.LANCHOR3
 600 0254 00000000 		.word	.LANCHOR4
 601 0258 00000000 		.word	.LANCHOR5
 602 025c 00002040 		.word	1075838976
 603 0260 00004842 		.word	1112014848
 604 0264 CDCC4C3E 		.word	1045220557
 605 0268 00004040 		.word	1077936128
 606 026c 0000C040 		.word	1086324736
 607 0270 00001842 		.word	1108869120
 608 0274 0000D842 		.word	1121452032
 609 0278 0AD7233C 		.word	1008981770
 610 027c CDCC4C3F 		.word	1061997773
 611 0280 9A99993F 		.word	1067030938
 612 0284 CDCCCC3F 		.word	1070386381
 613 0288 9A991940 		.word	1075419546
 614 028c 33333340 		.word	1077097267
 615 0290 CDCC4C40 		.word	1078774989
 616 0294 66666640 		.word	1080452710
 617 0298 6666663F 		.word	1063675494
 618 029c 6666A63F 		.word	1067869798
 619 02a0 00000000 		.word	.LANCHOR6
 620 02a4 00000000 		.word	.LANCHOR7
 621 02a8 00000000 		.word	.LANCHOR8
 622 02ac 00000000 		.word	.LANCHOR9
 623 02b0 09010000 		.word	265
 624 02b4 00F4FFFF 		.word	-3072
 625              		.cfi_endproc
 626              	.LFE378:
 628              		.section	.text.SetDefaultTotals,"ax",%progbits
 629              		.align	2
 630              		.global	SetDefaultTotals
 631              		.code	16
 632              		.thumb_func
 634              	SetDefaultTotals:
 635              	.LFB379:
 556:functions.c   **** // -----------------------------------------------------------
 557:functions.c   **** 
 558:functions.c   **** 
 559:functions.c   **** // -----------------------------------------------------------
 560:functions.c   **** // Function Name       : SetDefaultTotals
 561:functions.c   **** // Object              : reset power on defaults
 562:functions.c   **** // -----------------------------------------------------------
 563:functions.c   **** void SetDefaultTotals( void )
 564:functions.c   **** {
 636              		.loc 1 564 0
 637              		.cfi_startproc
 638 0000 70B5     		push	{r4, r5, r6, lr}
 639              	.LCFI5:
 640              		.cfi_def_cfa_offset 16
 641              		.cfi_offset 4, -16
 642              		.cfi_offset 5, -12
 643              		.cfi_offset 6, -8
 644              		.cfi_offset 14, -4
 565:functions.c   **** 	pRun.pr.Brightness[0] = DISPLAY_DEFAULT_DAY_BRIGHTNESS;
 645              		.loc 1 565 0
 646 0002 184C     		ldr	r4, .L23
 647 0004 2023     		mov	r3, #32
 648 0006 6422     		mov	r2, #100
 649 0008 E254     		strb	r2, [r4, r3]
 566:functions.c   **** 	pRun.pr.Contrast[0] = DISPLAY_DEFAULT_DAY_CONTRAST;
 650              		.loc 1 566 0
 651 000a 2821     		mov	r1, #40
 652 000c 2222     		mov	r2, #34
 653 000e A154     		strb	r1, [r4, r2]
 567:functions.c   **** 
 568:functions.c   **** 	pRun.pr.Brightness[1] = DISPLAY_DEFAULT_BRIGHTNESS;
 654              		.loc 1 568 0
 655 0010 4C21     		mov	r1, #76
 656 0012 2122     		mov	r2, #33
 657 0014 A154     		strb	r1, [r4, r2]
 569:functions.c   **** 	pRun.pr.Contrast[1] = DISPLAY_DEFAULT_CONTRAST;
 658              		.loc 1 569 0
 659 0016 2322     		mov	r2, #35
 660 0018 A354     		strb	r3, [r4, r2]
 570:functions.c   **** 
 571:functions.c   **** 	pRun.pr.DayNight = 0;
 661              		.loc 1 571 0
 662 001a 0023     		mov	r3, #0
 663 001c 2422     		mov	r2, #36
 664 001e A354     		strb	r3, [r4, r2]
 572:functions.c   **** 
 573:functions.c   **** 	pRun.pr.LubeCounter = PF_GW302_LubeAlarm[PF_DEF]; // bales
 665              		.loc 1 573 0
 666 0020 9622     		mov	r2, #150
 667 0022 5200     		lsl	r2, r2, #1
 668 0024 E284     		strh	r2, [r4, #38]
 574:functions.c   **** 
 575:functions.c   **** 	pRun.pr.PowerCount = 0;
 669              		.loc 1 575 0
 670 0026 2385     		strh	r3, [r4, #40]
 576:functions.c   **** 
 577:functions.c   **** 	pRun.pr.CheckSum = CheckSumIt( &(pRun.ch[0]), (unsigned char *)&(pRun.pr.CheckSum) );
 671              		.loc 1 577 0
 672 0028 251C     		mov	r5, r4
 673 002a 2035     		add	r5, r5, #32
 674 002c 211C     		mov	r1, r4
 675 002e 2C31     		add	r1, r1, #44
 676 0030 281C     		mov	r0, r5
 677 0032 FFF7FEFF 		bl	CheckSumIt
 678              	.LVL28:
 679 0036 E062     		str	r0, [r4, #44]
 578:functions.c   **** 
 579:functions.c   **** #ifndef WINDOWS
 580:functions.c   **** 	AT91C_BASE_PIOA->PIO_CODR = BUZZER;
 680              		.loc 1 580 0
 681 0038 0B4C     		ldr	r4, .L23+4
 682 003a 8026     		mov	r6, #128
 683 003c F601     		lsl	r6, r6, #7
 684 003e 6663     		str	r6, [r4, #52]
 581:functions.c   **** 	//AT91C_BASE_PIOA->PIO_CODR = OUT5;
 582:functions.c   **** 
 583:functions.c   **** 	// write runtime factors and totals to SPI1 Flash @ 0x001000
 584:functions.c   **** 	SPI1FlashWrite( SFC_PW, pRun_BASEADDRESS, &(pRun.ch[0]), sizeof(pRun.pr) );
 685              		.loc 1 584 0
 686 0040 0A20     		mov	r0, #10
 687 0042 8021     		mov	r1, #128
 688 0044 4901     		lsl	r1, r1, #5
 689 0046 2A1C     		mov	r2, r5
 690 0048 1023     		mov	r3, #16
 691 004a FFF7FEFF 		bl	SPI1FlashWrite
 692              	.LVL29:
 585:functions.c   **** 
 586:functions.c   **** 	// write runtime factors and totals to SPI1 Flash @ 0x001800
 587:functions.c   **** 	SPI1FlashWrite( SFC_PW, pRun_BASEADDRESS + 0x800, &(pRun.ch[0]), sizeof(pRun.pr) );
 693              		.loc 1 587 0
 694 004e 0A20     		mov	r0, #10
 695 0050 C021     		mov	r1, #192
 696 0052 4901     		lsl	r1, r1, #5
 697 0054 2A1C     		mov	r2, r5
 698 0056 1023     		mov	r3, #16
 699 0058 FFF7FEFF 		bl	SPI1FlashWrite
 700              	.LVL30:
 588:functions.c   **** 
 589:functions.c   **** 	AT91C_BASE_PIOA->PIO_SODR = BUZZER;
 701              		.loc 1 589 0
 702 005c 2663     		str	r6, [r4, #48]
 590:functions.c   **** 	//AT91C_BASE_PIOA->PIO_SODR = OUT5;
 591:functions.c   **** #endif
 592:functions.c   **** 
 593:functions.c   **** }
 703              		.loc 1 593 0
 704              		@ sp needed for prologue
 705 005e 70BC     		pop	{r4, r5, r6}
 706 0060 01BC     		pop	{r0}
 707 0062 0047     		bx	r0
 708              	.L24:
 709              		.align	2
 710              	.L23:
 711 0064 00010000 		.word	.LANCHOR10
 712 0068 00F4FFFF 		.word	-3072
 713              		.cfi_endproc
 714              	.LFE379:
 716              		.section	.text.SetStartupDefaults,"ax",%progbits
 717              		.align	2
 718              		.global	SetStartupDefaults
 719              		.code	16
 720              		.thumb_func
 722              	SetStartupDefaults:
 723              	.LFB380:
 594:functions.c   **** // -----------------------------------------------------------
 595:functions.c   **** 
 596:functions.c   **** 
 597:functions.c   **** // -----------------------------------------------------------
 598:functions.c   **** // Function Name       : SetStartupDefaults
 599:functions.c   **** // Object              : set global variables to power on values
 600:functions.c   **** // -----------------------------------------------------------
 601:functions.c   **** void SetStartupDefaults( void )
 602:functions.c   **** {    
 724              		.loc 1 602 0
 725              		.cfi_startproc
 726 0000 00B5     		push	{lr}
 727              	.LCFI6:
 728              		.cfi_def_cfa_offset 4
 729              		.cfi_offset 14, -4
 603:functions.c   **** 	ptText = TextString[pFac.pf.Lang];
 730              		.loc 1 603 0
 731 0002 104B     		ldr	r3, .L28
 732 0004 1A7B     		ldrb	r2, [r3, #12]
 733 0006 9200     		lsl	r2, r2, #2
 734 0008 0F4B     		ldr	r3, .L28+4
 735 000a D258     		ldr	r2, [r2, r3]
 736 000c 0F4B     		ldr	r3, .L28+8
 737 000e 1A60     		str	r2, [r3]
 604:functions.c   **** 	key = (~AT91C_BASE_PIOB->PIO_PDSR) & SW_MASK;
 738              		.loc 1 604 0
 739 0010 0F4B     		ldr	r3, .L28+12
 740 0012 DA6B     		ldr	r2, [r3, #60]
 741 0014 FF23     		mov	r3, #255
 742 0016 9B00     		lsl	r3, r3, #2
 743 0018 9343     		bic	r3, r2
 744 001a 0E4A     		ldr	r2, .L28+16
 745 001c 1360     		str	r3, [r2]
 605:functions.c   **** 	if( (key & ~(SW_NEW|SW_REP)) == SW_CU )
 746              		.loc 1 605 0
 747 001e 202B     		cmp	r3, #32
 748 0020 03D1     		bne	.L26
 606:functions.c   **** 		window = screen147;  // Technician Menu - Reset Defaults
 749              		.loc 1 606 0
 750 0022 0D4A     		ldr	r2, .L28+20
 751 0024 0D4B     		ldr	r3, .L28+24
 752 0026 1A60     		str	r2, [r3]
 753 0028 02E0     		b	.L27
 754              	.L26:
 607:functions.c   **** 	else
 608:functions.c   **** 		window = screen00;   // Startup Splash Screen
 755              		.loc 1 608 0
 756 002a 0D4A     		ldr	r2, .L28+28
 757 002c 0B4B     		ldr	r3, .L28+24
 758 002e 1A60     		str	r2, [r3]
 759              	.L27:
 609:functions.c   **** 
 610:functions.c   **** 	looptime = 0;
 760              		.loc 1 610 0
 761 0030 0023     		mov	r3, #0
 762 0032 0C4A     		ldr	r2, .L28+32
 763 0034 1370     		strb	r3, [r2]
 611:functions.c   **** 
 612:functions.c   **** 	AutoMan = 0;
 764              		.loc 1 612 0
 765 0036 0C4A     		ldr	r2, .L28+36
 766 0038 1370     		strb	r3, [r2]
 613:functions.c   **** 	SecondScreen = 0;
 767              		.loc 1 613 0
 768 003a 0C4A     		ldr	r2, .L28+40
 769 003c 1370     		strb	r3, [r2]
 614:functions.c   **** }
 770              		.loc 1 614 0
 771              		@ sp needed for prologue
 772 003e 01BC     		pop	{r0}
 773 0040 0047     		bx	r0
 774              	.L29:
 775 0042 C046     		.align	2
 776              	.L28:
 777 0044 00000000 		.word	.LANCHOR0
 778 0048 00000000 		.word	TextString
 779 004c 00000000 		.word	ptText
 780 0050 00F6FFFF 		.word	-2560
 781 0054 00000000 		.word	key
 782 0058 00000000 		.word	screen147
 783 005c 00000000 		.word	window
 784 0060 00000000 		.word	screen00
 785 0064 00000000 		.word	looptime
 786 0068 00000000 		.word	AutoMan
 787 006c 00000000 		.word	SecondScreen
 788              		.cfi_endproc
 789              	.LFE380:
 791              		.global	__aeabi_uidiv
 792              		.global	__aeabi_uidivmod
 793              		.section	.text.btobcd,"ax",%progbits
 794              		.align	2
 795              		.global	btobcd
 796              		.code	16
 797              		.thumb_func
 799              	btobcd:
 800              	.LFB381:
 615:functions.c   **** // -----------------------------------------------------------
 616:functions.c   **** 
 617:functions.c   **** 
 618:functions.c   **** // -----------------------------------------------------------
 619:functions.c   **** // Function Name       : btobcd
 620:functions.c   **** // -----------------------------------------------------------
 621:functions.c   **** unsigned char btobcd( unsigned char bin )
 622:functions.c   **** {
 801              		.loc 1 622 0
 802              		.cfi_startproc
 803              	.LVL31:
 804 0000 38B5     		push	{r3, r4, r5, lr}
 805              	.LCFI7:
 806              		.cfi_def_cfa_offset 16
 807              		.cfi_offset 3, -16
 808              		.cfi_offset 4, -12
 809              		.cfi_offset 5, -8
 810              		.cfi_offset 14, -4
 811 0002 041C     		mov	r4, r0
 623:functions.c   **** 	return( ((bin / 10) * 0x10) + (bin % 10) );
 812              		.loc 1 623 0
 813 0004 0A21     		mov	r1, #10
 814 0006 FFF7FEFF 		bl	__aeabi_uidiv
 815              	.LVL32:
 816 000a 0501     		lsl	r5, r0, #4
 817 000c 201C     		mov	r0, r4
 818 000e 0A21     		mov	r1, #10
 819 0010 FFF7FEFF 		bl	__aeabi_uidivmod
 820              	.LVL33:
 821 0014 6818     		add	r0, r5, r1
 822 0016 0006     		lsl	r0, r0, #24
 823 0018 000E     		lsr	r0, r0, #24
 624:functions.c   **** }
 824              		.loc 1 624 0
 825              		@ sp needed for prologue
 826 001a 38BC     		pop	{r3, r4, r5}
 827 001c 02BC     		pop	{r1}
 828 001e 0847     		bx	r1
 829              		.cfi_endproc
 830              	.LFE381:
 832              		.section	.text.bcdtob,"ax",%progbits
 833              		.align	2
 834              		.global	bcdtob
 835              		.code	16
 836              		.thumb_func
 838              	bcdtob:
 839              	.LFB382:
 625:functions.c   **** // -----------------------------------------------------------
 626:functions.c   **** 
 627:functions.c   **** 
 628:functions.c   **** // -----------------------------------------------------------
 629:functions.c   **** // Function Name       : bcdtob
 630:functions.c   **** // -----------------------------------------------------------
 631:functions.c   **** unsigned char bcdtob( unsigned char bcd )
 632:functions.c   **** {
 840              		.loc 1 632 0
 841              		.cfi_startproc
 842              	.LVL34:
 633:functions.c   **** 	return( ((bcd / 0x10) * 10) + (bcd % 0x10) );
 843              		.loc 1 633 0
 844 0000 0309     		lsr	r3, r0, #4
 845 0002 9A00     		lsl	r2, r3, #2
 846 0004 D318     		add	r3, r2, r3
 847 0006 5B00     		lsl	r3, r3, #1
 848 0008 0F22     		mov	r2, #15
 849 000a 1040     		and	r0, r2
 850              	.LVL35:
 851 000c 1818     		add	r0, r3, r0
 852 000e 0006     		lsl	r0, r0, #24
 853 0010 000E     		lsr	r0, r0, #24
 634:functions.c   **** }
 854              		.loc 1 634 0
 855              		@ sp needed for prologue
 856 0012 7047     		bx	lr
 857              		.cfi_endproc
 858              	.LFE382:
 860              		.global	__aeabi_idiv
 861              		.section	.text.SetOutputPWM,"ax",%progbits
 862              		.align	2
 863              		.global	SetOutputPWM
 864              		.code	16
 865              		.thumb_func
 867              	SetOutputPWM:
 868              	.LFB383:
 635:functions.c   **** // -----------------------------------------------------------
 636:functions.c   **** 
 637:functions.c   **** 
 638:functions.c   **** // -----------------------------------------------------------
 639:functions.c   **** // Function Name       : SetOutputPWM
 640:functions.c   **** // -----------------------------------------------------------
 641:functions.c   **** void SetOutputPWM( unsigned char output, unsigned short int freq, unsigned char duty )
 642:functions.c   **** {
 869              		.loc 1 642 0
 870              		.cfi_startproc
 871              	.LVL36:
 872 0000 F0B5     		push	{r4, r5, r6, r7, lr}
 873              	.LCFI8:
 874              		.cfi_def_cfa_offset 20
 875              		.cfi_offset 4, -20
 876              		.cfi_offset 5, -16
 877              		.cfi_offset 6, -12
 878              		.cfi_offset 7, -8
 879              		.cfi_offset 14, -4
 880 0002 4F46     		mov	r7, r9
 881 0004 4646     		mov	r6, r8
 882 0006 C0B4     		push	{r6, r7}
 883              	.LCFI9:
 884              		.cfi_def_cfa_offset 28
 885              		.cfi_offset 8, -28
 886              		.cfi_offset 9, -24
 887 0008 89B0     		sub	sp, sp, #36
 888              	.LCFI10:
 889              		.cfi_def_cfa_offset 64
 890 000a 061C     		mov	r6, r0
 891 000c 8846     		mov	r8, r1
 892 000e 171C     		mov	r7, r2
 643:functions.c   **** #ifndef WINDOWS    
 644:functions.c   **** 	unsigned int const portpin[8] = { AT91C_PA18_PWM0, AT91C_PA19_PWM1, AT91C_PA20_PWM2, AT91C_PA21_PW
 893              		.loc 1 644 0
 894 0010 5E4C     		ldr	r4, .L43
 895 0012 6B46     		mov	r3, sp
 896 0014 07CC     		ldmia	r4!, {r0, r1, r2}
 897 0016 07C3     		stmia	r3!, {r0, r1, r2}
 898              	.LVL37:
 899 0018 07CC     		ldmia	r4!, {r0, r1, r2}
 900 001a 07C3     		stmia	r3!, {r0, r1, r2}
 901 001c 03CC     		ldmia	r4!, {r0, r1}
 902 001e 03C3     		stmia	r3!, {r0, r1}
 645:functions.c   **** #endif
 646:functions.c   **** 
 647:functions.c   **** 	static int status;
 648:functions.c   **** 	static unsigned char dutyLast[8];
 649:functions.c   **** 	static unsigned short int freqLast[8];
 650:functions.c   **** 
 651:functions.c   **** 	unsigned int mode, mul, period, channel;
 652:functions.c   **** 
 653:functions.c   **** 	channel = ((unsigned int)0x1 << output);
 903              		.loc 1 653 0
 904 0020 0123     		mov	r3, #1
 905 0022 B340     		lsl	r3, r3, r6
 906 0024 9946     		mov	r9, r3
 907              	.LVL38:
 654:functions.c   **** 
 655:functions.c   **** 	if( duty && freq )
 908              		.loc 1 655 0
 909 0026 002F     		cmp	r7, #0
 910 0028 00D1     		bne	.LCB752
 911 002a 97E0     		b	.L33	@long jump
 912              	.LCB752:
 913 002c 4246     		mov	r2, r8
 914 002e 002A     		cmp	r2, #0
 915 0030 00D1     		bne	.LCB758
 916 0032 93E0     		b	.L33	@long jump
 917              	.LCB758:
 656:functions.c   **** 	{
 657:functions.c   **** 		// reading ISR clears all bits, bits indicate new channel period has been achieved
 658:functions.c   **** 		status |= AT91C_BASE_PWMC->PWMC_ISR;
 918              		.loc 1 658 0
 919 0034 564B     		ldr	r3, .L43+4
 920              	.LVL39:
 921 0036 D969     		ldr	r1, [r3, #28]
 922 0038 564A     		ldr	r2, .L43+8
 923 003a 1068     		ldr	r0, [r2]
 924 003c 0143     		orr	r1, r0
 925 003e 1160     		str	r1, [r2]
 659:functions.c   **** 
 660:functions.c   **** 		// if not running or frequency change, calculate clock settings
 661:functions.c   **** 		if( !(AT91C_BASE_PWMC->PWMC_SR & channel) || (freqLast[output] != freq) || (dutyLast[output] != d
 926              		.loc 1 661 0
 927 0040 DB68     		ldr	r3, [r3, #12]
 928 0042 4A46     		mov	r2, r9
 929 0044 1342     		tst	r3, r2
 930 0046 08D0     		beq	.L34
 931              		.loc 1 661 0 is_stmt 0 discriminator 1
 932 0048 7200     		lsl	r2, r6, #1
 933 004a 534B     		ldr	r3, .L43+12
 934 004c D35A     		ldrh	r3, [r2, r3]
 935 004e 4345     		cmp	r3, r8
 936 0050 03D1     		bne	.L34
 937 0052 524B     		ldr	r3, .L43+16
 938 0054 9B5D     		ldrb	r3, [r3, r6]
 939 0056 BB42     		cmp	r3, r7
 940 0058 13D0     		beq	.L35
 941              	.L34:
 662:functions.c   **** 		{
 663:functions.c   **** 			// MCK = 47923200Hz
 664:functions.c   **** 			// prescaler x CPRD = MCK / freq
 665:functions.c   **** 			period = MCK / freq;
 942              		.loc 1 665 0 is_stmt 1
 943 005a 5148     		ldr	r0, .L43+20
 944 005c 4146     		mov	r1, r8
 945 005e FFF7FEFF 		bl	__aeabi_idiv
 946              	.LVL40:
 947 0062 8446     		mov	ip, r0
 948              	.LVL41:
 666:functions.c   **** 			mode = (period / 1048576); // 20 bit count max
 949              		.loc 1 666 0
 950 0064 050D     		lsr	r5, r0, #20
 951              	.LVL42:
 667:functions.c   **** 			if( mode )
 952              		.loc 1 667 0
 953 0066 10D0     		beq	.L36
 954 0068 0024     		mov	r4, #0
 955 006a 0121     		mov	r1, #1
 956              	.LVL43:
 957              	.L37:
 668:functions.c   **** 			{
 669:functions.c   **** 				period = 0;
 670:functions.c   **** 				mul = 1;
 671:functions.c   **** 				while( mode )
 672:functions.c   **** 				{
 673:functions.c   **** 					period++;
 958              		.loc 1 673 0
 959 006c 0134     		add	r4, r4, #1
 960              	.LVL44:
 674:functions.c   **** 					mode /= 2;
 961              		.loc 1 674 0
 962 006e 6D08     		lsr	r5, r5, #1
 963              	.LVL45:
 675:functions.c   **** 					mul *= 2;
 964              		.loc 1 675 0
 965 0070 4900     		lsl	r1, r1, #1
 966              	.LVL46:
 671:functions.c   **** 				while( mode )
 967              		.loc 1 671 0
 968 0072 002D     		cmp	r5, #0
 969 0074 FAD1     		bne	.L37
 970              	.LVL47:
 676:functions.c   **** 				}
 677:functions.c   **** 				mode = period; // 2 to the power of period is divider value
 678:functions.c   **** 				period = MCK / freq / mul;
 971              		.loc 1 678 0
 972 0076 6046     		mov	r0, ip
 973 0078 FFF7FEFF 		bl	__aeabi_uidiv
 974              	.LVL48:
 975 007c 8446     		mov	ip, r0
 976              	.LVL49:
 673:functions.c   **** 					period++;
 977              		.loc 1 673 0
 978 007e 251C     		mov	r5, r4
 979 0080 03E0     		b	.L36
 980              	.LVL50:
 981              	.L35:
 679:functions.c   **** 			}
 680:functions.c   **** 			/*mode |= AT91C_PWMC_CPOL;*/ // output starts high if set
 681:functions.c   **** 		}
 682:functions.c   **** 		else
 683:functions.c   **** 		{
 684:functions.c   **** 			status &= ~channel; // clear status for this channel if no change required
 982              		.loc 1 684 0
 983 0082 4B46     		mov	r3, r9
 984 0084 9943     		bic	r1, r3
 985 0086 434B     		ldr	r3, .L43+8
 986 0088 1960     		str	r1, [r3]
 987              	.L36:
 988              	.LVL51:
 685:functions.c   **** 		}
 686:functions.c   **** 
 687:functions.c   **** 		// if PWM not running
 688:functions.c   **** 		if( !(AT91C_BASE_PWMC->PWMC_SR & channel) )
 989              		.loc 1 688 0
 990 008a 414B     		ldr	r3, .L43+4
 991 008c DB68     		ldr	r3, [r3, #12]
 992 008e 4846     		mov	r0, r9
 993 0090 0342     		tst	r3, r0
 994 0092 20D1     		bne	.L38
 995              	.LVL52:
 689:functions.c   **** 		{
 690:functions.c   **** 			freqLast[output] = freq;
 996              		.loc 1 690 0
 997 0094 7200     		lsl	r2, r6, #1
 998 0096 404B     		ldr	r3, .L43+12
 999 0098 4146     		mov	r1, r8
 1000 009a D152     		strh	r1, [r2, r3]
 691:functions.c   **** 			dutyLast[output] = duty;
 1001              		.loc 1 691 0
 1002 009c 3F4B     		ldr	r3, .L43+16
 1003 009e 9F55     		strb	r7, [r3, r6]
 692:functions.c   **** 
 693:functions.c   **** 			// AT91F_PWMC_CfgChannel()
 694:functions.c   **** 			AT91C_BASE_PWMC->PWMC_CH[output].PWMC_CMR = mode;
 1004              		.loc 1 694 0
 1005 00a0 3B4C     		ldr	r4, .L43+4
 1006 00a2 331C     		mov	r3, r6
 1007 00a4 1033     		add	r3, r3, #16
 1008 00a6 5B01     		lsl	r3, r3, #5
 1009 00a8 9846     		mov	r8, r3
 1010 00aa 1D51     		str	r5, [r3, r4]
 695:functions.c   **** 			AT91C_BASE_PWMC->PWMC_CH[output].PWMC_CPRDR = period;
 1011              		.loc 1 695 0
 1012 00ac 7301     		lsl	r3, r6, #5
 1013 00ae 3D4A     		ldr	r2, .L43+24
 1014 00b0 9B18     		add	r3, r3, r2
 1015 00b2 6046     		mov	r0, ip
 1016              	.LVL53:
 1017 00b4 1860     		str	r0, [r3]
 696:functions.c   **** 			AT91C_BASE_PWMC->PWMC_CH[output].PWMC_CDTYR = period * duty / 100;
 1018              		.loc 1 696 0
 1019 00b6 6046     		mov	r0, ip
 1020 00b8 7843     		mul	r0, r7
 1021 00ba 6421     		mov	r1, #100
 1022 00bc FFF7FEFF 		bl	__aeabi_uidiv
 1023              	.LVL54:
 1024 00c0 231C     		mov	r3, r4
 1025 00c2 4344     		add	r3, r3, r8
 1026 00c4 5860     		str	r0, [r3, #4]
 697:functions.c   **** 
 698:functions.c   **** 			// AT91F_PWMC_StartChannel()
 699:functions.c   **** 			AT91C_BASE_PWMC->PWMC_ENA = channel;
 1027              		.loc 1 699 0
 1028 00c6 4A46     		mov	r2, r9
 1029 00c8 6260     		str	r2, [r4, #4]
 700:functions.c   **** 
 701:functions.c   **** 			// disable PIO mode
 702:functions.c   **** #ifndef WINDOWS
 703:functions.c   **** 			AT91F_PIO_Disable( AT91C_BASE_PIOA, portpin[output] );
 1030              		.loc 1 703 0
 1031 00ca B600     		lsl	r6, r6, #2
 1032 00cc 6B46     		mov	r3, sp
 1033 00ce F258     		ldr	r2, [r6, r3]
 1034              	.LVL55:
 1035              	.LBB8:
 1036              	.LBB9:
 1037              		.file 2 "./include/lib_AT91SAM7A3.h"
   1:./include/lib_AT91SAM7A3.h **** //* ----------------------------------------------------------------------------
   2:./include/lib_AT91SAM7A3.h **** //*         ATMEL Microcontroller Software Support  -  ROUSSET  -
   3:./include/lib_AT91SAM7A3.h **** //* ----------------------------------------------------------------------------
   4:./include/lib_AT91SAM7A3.h **** //* DISCLAIMER:  THIS SOFTWARE IS PROVIDED BY ATMEL "AS IS" AND ANY EXPRESS OR
   5:./include/lib_AT91SAM7A3.h **** //* IMPLIED WARRANTIES, INCLUDING, BUT NOT LIMITED TO, THE IMPLIED WARRANTIES OF
   6:./include/lib_AT91SAM7A3.h **** //* MERCHANTABILITY, FITNESS FOR A PARTICULAR PURPOSE AND NON-INFRINGEMENT ARE
   7:./include/lib_AT91SAM7A3.h **** //* DISCLAIMED. IN NO EVENT SHALL ATMEL BE LIABLE FOR ANY DIRECT, INDIRECT,
   8:./include/lib_AT91SAM7A3.h **** //* INCIDENTAL, SPECIAL, EXEMPLARY, OR CONSEQUENTIAL DAMAGES (INCLUDING, BUT NOT
   9:./include/lib_AT91SAM7A3.h **** //* LIMITED TO, PROCUREMENT OF SUBSTITUTE GOODS OR SERVICES; LOSS OF USE, DATA,
  10:./include/lib_AT91SAM7A3.h **** //* OR PROFITS; OR BUSINESS INTERRUPTION) HOWEVER CAUSED AND ON ANY THEORY OF
  11:./include/lib_AT91SAM7A3.h **** //* LIABILITY, WHETHER IN CONTRACT, STRICT LIABILITY, OR TORT (INCLUDING
  12:./include/lib_AT91SAM7A3.h **** //* NEGLIGENCE OR OTHERWISE) ARISING IN ANY WAY OUT OF THE USE OF THIS SOFTWARE,
  13:./include/lib_AT91SAM7A3.h **** //* EVEN IF ADVISED OF THE POSSIBILITY OF SUCH DAMAGE.
  14:./include/lib_AT91SAM7A3.h **** //* ----------------------------------------------------------------------------
  15:./include/lib_AT91SAM7A3.h **** //* File Name           : lib_AT91SAM7A3.h
  16:./include/lib_AT91SAM7A3.h **** //* Object              : AT91SAM7A3 inlined functions
  17:./include/lib_AT91SAM7A3.h **** //* Generated           : AT91 SW Application Group  01/16/2006 (16:35:45)
  18:./include/lib_AT91SAM7A3.h **** //*
  19:./include/lib_AT91SAM7A3.h **** //* CVS Reference       : /lib_MC_SAM.h/1.3/Thu Mar 25 15:19:14 2004//
  20:./include/lib_AT91SAM7A3.h **** //* CVS Reference       : /lib_pdc.h/1.2/Tue Jul  2 13:29:40 2002//
  21:./include/lib_AT91SAM7A3.h **** //* CVS Reference       : /lib_dbgu.h/1.1/Thu Aug 25 12:56:22 2005//
  22:./include/lib_AT91SAM7A3.h **** //* CVS Reference       : /lib_shdwc_6122A.h/1.1/Wed Oct  6 14:06:00 2004//
  23:./include/lib_AT91SAM7A3.h **** //* CVS Reference       : /lib_spi2.h/1.2/Tue Aug 23 15:37:28 2005//
  24:./include/lib_AT91SAM7A3.h **** //* CVS Reference       : /lib_ssc.h/1.4/Fri Jan 31 12:19:20 2003//
  25:./include/lib_AT91SAM7A3.h **** //* CVS Reference       : /lib_PWM_SAM.h/1.3/Thu Jan 22 10:10:50 2004//
  26:./include/lib_AT91SAM7A3.h **** //* CVS Reference       : /lib_tc_1753b.h/1.1/Fri Jan 31 12:20:02 2003//
  27:./include/lib_AT91SAM7A3.h **** //* CVS Reference       : /lib_pitc_6079A.h/1.2/Tue Nov  9 14:43:56 2004//
  28:./include/lib_AT91SAM7A3.h **** //* CVS Reference       : /lib_adc.h/1.6/Fri Oct 17 09:12:38 2003//
  29:./include/lib_AT91SAM7A3.h **** //* CVS Reference       : /lib_pmc_SAM.h/1.10/Fri Nov  4 09:39:44 2005//
  30:./include/lib_AT91SAM7A3.h **** //* CVS Reference       : /lib_rstc_6098A.h/1.1/Wed Oct  6 10:39:20 2004//
  31:./include/lib_AT91SAM7A3.h **** //* CVS Reference       : /lib_pio.h/1.3/Fri Jan 31 12:18:56 2003//
  32:./include/lib_AT91SAM7A3.h **** //* CVS Reference       : /lib_rttc_6081A.h/1.1/Wed Oct  6 10:39:38 2004//
  33:./include/lib_AT91SAM7A3.h **** //* CVS Reference       : /lib_twi.h/1.3/Mon Jul 19 14:27:58 2004//
  34:./include/lib_AT91SAM7A3.h **** //* CVS Reference       : /lib_usart.h/1.5/Thu Nov 21 16:01:54 2002//
  35:./include/lib_AT91SAM7A3.h **** //* CVS Reference       : /lib_mci.h/1.7/Wed May 19 09:27:28 2004//
  36:./include/lib_AT91SAM7A3.h **** //* CVS Reference       : /lib_wdtc_6080A.h/1.1/Wed Oct  6 10:38:30 2004//
  37:./include/lib_AT91SAM7A3.h **** //* CVS Reference       : /lib_udp.h/1.5/Tue Aug 30 12:13:47 2005//
  38:./include/lib_AT91SAM7A3.h **** //* CVS Reference       : /lib_aic_6075b.h/1.2/Thu Jul  7 07:48:22 2005//
  39:./include/lib_AT91SAM7A3.h **** //* CVS Reference       : /lib_can_AT91.h/1.5/Tue Aug 23 15:37:07 2005//
  40:./include/lib_AT91SAM7A3.h **** //* ----------------------------------------------------------------------------
  41:./include/lib_AT91SAM7A3.h **** 
  42:./include/lib_AT91SAM7A3.h **** #ifndef lib_AT91SAM7A3_H
  43:./include/lib_AT91SAM7A3.h **** #define lib_AT91SAM7A3_H
  44:./include/lib_AT91SAM7A3.h **** 
  45:./include/lib_AT91SAM7A3.h **** /* *****************************************************************************
  46:./include/lib_AT91SAM7A3.h ****                 SOFTWARE API FOR AIC
  47:./include/lib_AT91SAM7A3.h ****    ***************************************************************************** */
  48:./include/lib_AT91SAM7A3.h **** #define AT91C_AIC_BRANCH_OPCODE ((void (*) ()) 0xE51FFF20) // ldr, pc, [pc, #-&F20]
  49:./include/lib_AT91SAM7A3.h **** 
  50:./include/lib_AT91SAM7A3.h **** //*----------------------------------------------------------------------------
  51:./include/lib_AT91SAM7A3.h **** //* \fn    AT91F_AIC_ConfigureIt
  52:./include/lib_AT91SAM7A3.h **** //* \brief Interrupt Handler Initialization
  53:./include/lib_AT91SAM7A3.h **** //*----------------------------------------------------------------------------
  54:./include/lib_AT91SAM7A3.h **** __inline unsigned int AT91F_AIC_ConfigureIt (
  55:./include/lib_AT91SAM7A3.h **** 	AT91PS_AIC pAic,  // \arg pointer to the AIC registers
  56:./include/lib_AT91SAM7A3.h **** 	unsigned int irq_id,     // \arg interrupt number to initialize
  57:./include/lib_AT91SAM7A3.h **** 	unsigned int priority,   // \arg priority to give to the interrupt
  58:./include/lib_AT91SAM7A3.h **** 	unsigned int src_type,   // \arg activation and sense of activation
  59:./include/lib_AT91SAM7A3.h **** 	void (*newHandler) () ) // \arg address of the interrupt handler
  60:./include/lib_AT91SAM7A3.h **** {
  61:./include/lib_AT91SAM7A3.h **** 	unsigned int oldHandler;
  62:./include/lib_AT91SAM7A3.h ****     unsigned int mask ;
  63:./include/lib_AT91SAM7A3.h **** 
  64:./include/lib_AT91SAM7A3.h ****     oldHandler = pAic->AIC_SVR[irq_id];
  65:./include/lib_AT91SAM7A3.h **** 
  66:./include/lib_AT91SAM7A3.h ****     mask = 0x1 << irq_id ;
  67:./include/lib_AT91SAM7A3.h ****     //* Disable the interrupt on the interrupt controller
  68:./include/lib_AT91SAM7A3.h ****     pAic->AIC_IDCR = mask ;
  69:./include/lib_AT91SAM7A3.h ****     //* Save the interrupt handler routine pointer and the interrupt priority
  70:./include/lib_AT91SAM7A3.h ****     pAic->AIC_SVR[irq_id] = (unsigned int) newHandler ;
  71:./include/lib_AT91SAM7A3.h ****     //* Store the Source Mode Register
  72:./include/lib_AT91SAM7A3.h ****     pAic->AIC_SMR[irq_id] = src_type | priority  ;
  73:./include/lib_AT91SAM7A3.h ****     //* Clear the interrupt on the interrupt controller
  74:./include/lib_AT91SAM7A3.h ****     pAic->AIC_ICCR = mask ;
  75:./include/lib_AT91SAM7A3.h **** 
  76:./include/lib_AT91SAM7A3.h **** 	return oldHandler;
  77:./include/lib_AT91SAM7A3.h **** }
  78:./include/lib_AT91SAM7A3.h **** 
  79:./include/lib_AT91SAM7A3.h **** //*----------------------------------------------------------------------------
  80:./include/lib_AT91SAM7A3.h **** //* \fn    AT91F_AIC_EnableIt
  81:./include/lib_AT91SAM7A3.h **** //* \brief Enable corresponding IT number
  82:./include/lib_AT91SAM7A3.h **** //*----------------------------------------------------------------------------
  83:./include/lib_AT91SAM7A3.h **** __inline void AT91F_AIC_EnableIt (
  84:./include/lib_AT91SAM7A3.h **** 	AT91PS_AIC pAic,      // \arg pointer to the AIC registers
  85:./include/lib_AT91SAM7A3.h **** 	unsigned int irq_id ) // \arg interrupt number to initialize
  86:./include/lib_AT91SAM7A3.h **** {
  87:./include/lib_AT91SAM7A3.h ****     //* Enable the interrupt on the interrupt controller
  88:./include/lib_AT91SAM7A3.h ****     pAic->AIC_IECR = 0x1 << irq_id ;
  89:./include/lib_AT91SAM7A3.h **** }
  90:./include/lib_AT91SAM7A3.h **** 
  91:./include/lib_AT91SAM7A3.h **** //*----------------------------------------------------------------------------
  92:./include/lib_AT91SAM7A3.h **** //* \fn    AT91F_AIC_DisableIt
  93:./include/lib_AT91SAM7A3.h **** //* \brief Disable corresponding IT number
  94:./include/lib_AT91SAM7A3.h **** //*----------------------------------------------------------------------------
  95:./include/lib_AT91SAM7A3.h **** __inline void AT91F_AIC_DisableIt (
  96:./include/lib_AT91SAM7A3.h **** 	AT91PS_AIC pAic,      // \arg pointer to the AIC registers
  97:./include/lib_AT91SAM7A3.h **** 	unsigned int irq_id ) // \arg interrupt number to initialize
  98:./include/lib_AT91SAM7A3.h **** {
  99:./include/lib_AT91SAM7A3.h ****     unsigned int mask = 0x1 << irq_id;
 100:./include/lib_AT91SAM7A3.h ****     //* Disable the interrupt on the interrupt controller
 101:./include/lib_AT91SAM7A3.h ****     pAic->AIC_IDCR = mask ;
 102:./include/lib_AT91SAM7A3.h ****     //* Clear the interrupt on the Interrupt Controller ( if one is pending )
 103:./include/lib_AT91SAM7A3.h ****     pAic->AIC_ICCR = mask ;
 104:./include/lib_AT91SAM7A3.h **** }
 105:./include/lib_AT91SAM7A3.h **** 
 106:./include/lib_AT91SAM7A3.h **** //*----------------------------------------------------------------------------
 107:./include/lib_AT91SAM7A3.h **** //* \fn    AT91F_AIC_ClearIt
 108:./include/lib_AT91SAM7A3.h **** //* \brief Clear corresponding IT number
 109:./include/lib_AT91SAM7A3.h **** //*----------------------------------------------------------------------------
 110:./include/lib_AT91SAM7A3.h **** __inline void AT91F_AIC_ClearIt (
 111:./include/lib_AT91SAM7A3.h **** 	AT91PS_AIC pAic,     // \arg pointer to the AIC registers
 112:./include/lib_AT91SAM7A3.h **** 	unsigned int irq_id) // \arg interrupt number to initialize
 113:./include/lib_AT91SAM7A3.h **** {
 114:./include/lib_AT91SAM7A3.h ****     //* Clear the interrupt on the Interrupt Controller ( if one is pending )
 115:./include/lib_AT91SAM7A3.h ****     pAic->AIC_ICCR = (0x1 << irq_id);
 116:./include/lib_AT91SAM7A3.h **** }
 117:./include/lib_AT91SAM7A3.h **** 
 118:./include/lib_AT91SAM7A3.h **** //*----------------------------------------------------------------------------
 119:./include/lib_AT91SAM7A3.h **** //* \fn    AT91F_AIC_AcknowledgeIt
 120:./include/lib_AT91SAM7A3.h **** //* \brief Acknowledge corresponding IT number
 121:./include/lib_AT91SAM7A3.h **** //*----------------------------------------------------------------------------
 122:./include/lib_AT91SAM7A3.h **** __inline void AT91F_AIC_AcknowledgeIt (
 123:./include/lib_AT91SAM7A3.h **** 	AT91PS_AIC pAic)     // \arg pointer to the AIC registers
 124:./include/lib_AT91SAM7A3.h **** {
 125:./include/lib_AT91SAM7A3.h ****     pAic->AIC_EOICR = pAic->AIC_EOICR;
 126:./include/lib_AT91SAM7A3.h **** }
 127:./include/lib_AT91SAM7A3.h **** 
 128:./include/lib_AT91SAM7A3.h **** //*----------------------------------------------------------------------------
 129:./include/lib_AT91SAM7A3.h **** //* \fn    AT91F_AIC_SetExceptionVector
 130:./include/lib_AT91SAM7A3.h **** //* \brief Configure vector handler
 131:./include/lib_AT91SAM7A3.h **** //*----------------------------------------------------------------------------
 132:./include/lib_AT91SAM7A3.h **** __inline unsigned int  AT91F_AIC_SetExceptionVector (
 133:./include/lib_AT91SAM7A3.h **** 	unsigned int *pVector, // \arg pointer to the AIC registers
 134:./include/lib_AT91SAM7A3.h **** 	void (*Handler) () )   // \arg Interrupt Handler
 135:./include/lib_AT91SAM7A3.h **** {
 136:./include/lib_AT91SAM7A3.h **** 	unsigned int oldVector = *pVector;
 137:./include/lib_AT91SAM7A3.h **** 
 138:./include/lib_AT91SAM7A3.h **** 	if ((unsigned int) Handler == (unsigned int) AT91C_AIC_BRANCH_OPCODE)
 139:./include/lib_AT91SAM7A3.h **** 		*pVector = (unsigned int) AT91C_AIC_BRANCH_OPCODE;
 140:./include/lib_AT91SAM7A3.h **** 	else
 141:./include/lib_AT91SAM7A3.h **** 		*pVector = (((((unsigned int) Handler) - ((unsigned int) pVector) - 0x8) >> 2) & 0x00FFFFFF) | 0x
 142:./include/lib_AT91SAM7A3.h **** 
 143:./include/lib_AT91SAM7A3.h **** 	return oldVector;
 144:./include/lib_AT91SAM7A3.h **** }
 145:./include/lib_AT91SAM7A3.h **** 
 146:./include/lib_AT91SAM7A3.h **** //*----------------------------------------------------------------------------
 147:./include/lib_AT91SAM7A3.h **** //* \fn    AT91F_AIC_Trig
 148:./include/lib_AT91SAM7A3.h **** //* \brief Trig an IT
 149:./include/lib_AT91SAM7A3.h **** //*----------------------------------------------------------------------------
 150:./include/lib_AT91SAM7A3.h **** __inline void  AT91F_AIC_Trig (
 151:./include/lib_AT91SAM7A3.h **** 	AT91PS_AIC pAic,     // \arg pointer to the AIC registers
 152:./include/lib_AT91SAM7A3.h **** 	unsigned int irq_id) // \arg interrupt number
 153:./include/lib_AT91SAM7A3.h **** {
 154:./include/lib_AT91SAM7A3.h **** 	pAic->AIC_ISCR = (0x1 << irq_id) ;
 155:./include/lib_AT91SAM7A3.h **** }
 156:./include/lib_AT91SAM7A3.h **** 
 157:./include/lib_AT91SAM7A3.h **** //*----------------------------------------------------------------------------
 158:./include/lib_AT91SAM7A3.h **** //* \fn    AT91F_AIC_IsActive
 159:./include/lib_AT91SAM7A3.h **** //* \brief Test if an IT is active
 160:./include/lib_AT91SAM7A3.h **** //*----------------------------------------------------------------------------
 161:./include/lib_AT91SAM7A3.h **** __inline unsigned int  AT91F_AIC_IsActive (
 162:./include/lib_AT91SAM7A3.h **** 	AT91PS_AIC pAic,     // \arg pointer to the AIC registers
 163:./include/lib_AT91SAM7A3.h **** 	unsigned int irq_id) // \arg Interrupt Number
 164:./include/lib_AT91SAM7A3.h **** {
 165:./include/lib_AT91SAM7A3.h **** 	return (pAic->AIC_ISR & (0x1 << irq_id));
 166:./include/lib_AT91SAM7A3.h **** }
 167:./include/lib_AT91SAM7A3.h **** 
 168:./include/lib_AT91SAM7A3.h **** //*----------------------------------------------------------------------------
 169:./include/lib_AT91SAM7A3.h **** //* \fn    AT91F_AIC_IsPending
 170:./include/lib_AT91SAM7A3.h **** //* \brief Test if an IT is pending
 171:./include/lib_AT91SAM7A3.h **** //*----------------------------------------------------------------------------
 172:./include/lib_AT91SAM7A3.h **** __inline unsigned int  AT91F_AIC_IsPending (
 173:./include/lib_AT91SAM7A3.h **** 	AT91PS_AIC pAic,     // \arg pointer to the AIC registers
 174:./include/lib_AT91SAM7A3.h **** 	unsigned int irq_id) // \arg Interrupt Number
 175:./include/lib_AT91SAM7A3.h **** {
 176:./include/lib_AT91SAM7A3.h **** 	return (pAic->AIC_IPR & (0x1 << irq_id));
 177:./include/lib_AT91SAM7A3.h **** }
 178:./include/lib_AT91SAM7A3.h **** 
 179:./include/lib_AT91SAM7A3.h **** //*----------------------------------------------------------------------------
 180:./include/lib_AT91SAM7A3.h **** //* \fn    AT91F_AIC_Open
 181:./include/lib_AT91SAM7A3.h **** //* \brief Set exception vectors and AIC registers to default values
 182:./include/lib_AT91SAM7A3.h **** //*----------------------------------------------------------------------------
 183:./include/lib_AT91SAM7A3.h **** __inline void AT91F_AIC_Open(
 184:./include/lib_AT91SAM7A3.h **** 	AT91PS_AIC pAic,        // \arg pointer to the AIC registers
 185:./include/lib_AT91SAM7A3.h **** 	void (*IrqHandler) (),  // \arg Default IRQ vector exception
 186:./include/lib_AT91SAM7A3.h **** 	void (*FiqHandler) (),  // \arg Default FIQ vector exception
 187:./include/lib_AT91SAM7A3.h **** 	void (*DefaultHandler)  (), // \arg Default Handler set in ISR
 188:./include/lib_AT91SAM7A3.h **** 	void (*SpuriousHandler) (), // \arg Default Spurious Handler
 189:./include/lib_AT91SAM7A3.h **** 	unsigned int protectMode)   // \arg Debug Control Register
 190:./include/lib_AT91SAM7A3.h **** {
 191:./include/lib_AT91SAM7A3.h **** 	int i;
 192:./include/lib_AT91SAM7A3.h **** 
 193:./include/lib_AT91SAM7A3.h **** 	// Disable all interrupts and set IVR to the default handler
 194:./include/lib_AT91SAM7A3.h **** 	for (i = 0; i < 32; ++i) {
 195:./include/lib_AT91SAM7A3.h **** 		AT91F_AIC_DisableIt(pAic, i);
 196:./include/lib_AT91SAM7A3.h **** 		AT91F_AIC_ConfigureIt(pAic, i, AT91C_AIC_PRIOR_LOWEST, AT91C_AIC_SRCTYPE_HIGH_LEVEL, DefaultHandl
 197:./include/lib_AT91SAM7A3.h **** 	}
 198:./include/lib_AT91SAM7A3.h **** 
 199:./include/lib_AT91SAM7A3.h **** 	// Set the IRQ exception vector
 200:./include/lib_AT91SAM7A3.h **** 	AT91F_AIC_SetExceptionVector((unsigned int *) 0x18, IrqHandler);
 201:./include/lib_AT91SAM7A3.h **** 	// Set the Fast Interrupt exception vector
 202:./include/lib_AT91SAM7A3.h **** 	AT91F_AIC_SetExceptionVector((unsigned int *) 0x1C, FiqHandler);
 203:./include/lib_AT91SAM7A3.h **** 
 204:./include/lib_AT91SAM7A3.h **** 	pAic->AIC_SPU = (unsigned int) SpuriousHandler;
 205:./include/lib_AT91SAM7A3.h **** 	pAic->AIC_DCR = protectMode;
 206:./include/lib_AT91SAM7A3.h **** }
 207:./include/lib_AT91SAM7A3.h **** /* *****************************************************************************
 208:./include/lib_AT91SAM7A3.h ****                 SOFTWARE API FOR PDC
 209:./include/lib_AT91SAM7A3.h ****    ***************************************************************************** */
 210:./include/lib_AT91SAM7A3.h **** //*----------------------------------------------------------------------------
 211:./include/lib_AT91SAM7A3.h **** //* \fn    AT91F_PDC_SetNextRx
 212:./include/lib_AT91SAM7A3.h **** //* \brief Set the next receive transfer descriptor
 213:./include/lib_AT91SAM7A3.h **** //*----------------------------------------------------------------------------
 214:./include/lib_AT91SAM7A3.h **** __inline void AT91F_PDC_SetNextRx (
 215:./include/lib_AT91SAM7A3.h **** 	AT91PS_PDC pPDC,     // \arg pointer to a PDC controller
 216:./include/lib_AT91SAM7A3.h **** 	char *address,       // \arg address to the next bloc to be received
 217:./include/lib_AT91SAM7A3.h **** 	unsigned int bytes)  // \arg number of bytes to be received
 218:./include/lib_AT91SAM7A3.h **** {
 219:./include/lib_AT91SAM7A3.h **** 	pPDC->PDC_RNPR = (unsigned int) address;
 220:./include/lib_AT91SAM7A3.h **** 	pPDC->PDC_RNCR = bytes;
 221:./include/lib_AT91SAM7A3.h **** }
 222:./include/lib_AT91SAM7A3.h **** 
 223:./include/lib_AT91SAM7A3.h **** //*----------------------------------------------------------------------------
 224:./include/lib_AT91SAM7A3.h **** //* \fn    AT91F_PDC_SetNextTx
 225:./include/lib_AT91SAM7A3.h **** //* \brief Set the next transmit transfer descriptor
 226:./include/lib_AT91SAM7A3.h **** //*----------------------------------------------------------------------------
 227:./include/lib_AT91SAM7A3.h **** __inline void AT91F_PDC_SetNextTx (
 228:./include/lib_AT91SAM7A3.h **** 	AT91PS_PDC pPDC,       // \arg pointer to a PDC controller
 229:./include/lib_AT91SAM7A3.h **** 	char *address,         // \arg address to the next bloc to be transmitted
 230:./include/lib_AT91SAM7A3.h **** 	unsigned int bytes)    // \arg number of bytes to be transmitted
 231:./include/lib_AT91SAM7A3.h **** {
 232:./include/lib_AT91SAM7A3.h **** 	pPDC->PDC_TNPR = (unsigned int) address;
 233:./include/lib_AT91SAM7A3.h **** 	pPDC->PDC_TNCR = bytes;
 234:./include/lib_AT91SAM7A3.h **** }
 235:./include/lib_AT91SAM7A3.h **** 
 236:./include/lib_AT91SAM7A3.h **** //*----------------------------------------------------------------------------
 237:./include/lib_AT91SAM7A3.h **** //* \fn    AT91F_PDC_SetRx
 238:./include/lib_AT91SAM7A3.h **** //* \brief Set the receive transfer descriptor
 239:./include/lib_AT91SAM7A3.h **** //*----------------------------------------------------------------------------
 240:./include/lib_AT91SAM7A3.h **** __inline void AT91F_PDC_SetRx (
 241:./include/lib_AT91SAM7A3.h **** 	AT91PS_PDC pPDC,       // \arg pointer to a PDC controller
 242:./include/lib_AT91SAM7A3.h **** 	char *address,         // \arg address to the next bloc to be received
 243:./include/lib_AT91SAM7A3.h **** 	unsigned int bytes)    // \arg number of bytes to be received
 244:./include/lib_AT91SAM7A3.h **** {
 245:./include/lib_AT91SAM7A3.h **** 	pPDC->PDC_RPR = (unsigned int) address;
 246:./include/lib_AT91SAM7A3.h **** 	pPDC->PDC_RCR = bytes;
 247:./include/lib_AT91SAM7A3.h **** }
 248:./include/lib_AT91SAM7A3.h **** 
 249:./include/lib_AT91SAM7A3.h **** //*----------------------------------------------------------------------------
 250:./include/lib_AT91SAM7A3.h **** //* \fn    AT91F_PDC_SetTx
 251:./include/lib_AT91SAM7A3.h **** //* \brief Set the transmit transfer descriptor
 252:./include/lib_AT91SAM7A3.h **** //*----------------------------------------------------------------------------
 253:./include/lib_AT91SAM7A3.h **** __inline void AT91F_PDC_SetTx (
 254:./include/lib_AT91SAM7A3.h **** 	AT91PS_PDC pPDC,       // \arg pointer to a PDC controller
 255:./include/lib_AT91SAM7A3.h **** 	char *address,         // \arg address to the next bloc to be transmitted
 256:./include/lib_AT91SAM7A3.h **** 	unsigned int bytes)    // \arg number of bytes to be transmitted
 257:./include/lib_AT91SAM7A3.h **** {
 258:./include/lib_AT91SAM7A3.h **** 	pPDC->PDC_TPR = (unsigned int) address;
 259:./include/lib_AT91SAM7A3.h **** 	pPDC->PDC_TCR = bytes;
 260:./include/lib_AT91SAM7A3.h **** }
 261:./include/lib_AT91SAM7A3.h **** 
 262:./include/lib_AT91SAM7A3.h **** //*----------------------------------------------------------------------------
 263:./include/lib_AT91SAM7A3.h **** //* \fn    AT91F_PDC_EnableTx
 264:./include/lib_AT91SAM7A3.h **** //* \brief Enable transmit
 265:./include/lib_AT91SAM7A3.h **** //*----------------------------------------------------------------------------
 266:./include/lib_AT91SAM7A3.h **** __inline void AT91F_PDC_EnableTx (
 267:./include/lib_AT91SAM7A3.h **** 	AT91PS_PDC pPDC )       // \arg pointer to a PDC controller
 268:./include/lib_AT91SAM7A3.h **** {
 269:./include/lib_AT91SAM7A3.h **** 	pPDC->PDC_PTCR = AT91C_PDC_TXTEN;
 270:./include/lib_AT91SAM7A3.h **** }
 271:./include/lib_AT91SAM7A3.h **** 
 272:./include/lib_AT91SAM7A3.h **** //*----------------------------------------------------------------------------
 273:./include/lib_AT91SAM7A3.h **** //* \fn    AT91F_PDC_EnableRx
 274:./include/lib_AT91SAM7A3.h **** //* \brief Enable receive
 275:./include/lib_AT91SAM7A3.h **** //*----------------------------------------------------------------------------
 276:./include/lib_AT91SAM7A3.h **** __inline void AT91F_PDC_EnableRx (
 277:./include/lib_AT91SAM7A3.h **** 	AT91PS_PDC pPDC )       // \arg pointer to a PDC controller
 278:./include/lib_AT91SAM7A3.h **** {
 279:./include/lib_AT91SAM7A3.h **** 	pPDC->PDC_PTCR = AT91C_PDC_RXTEN;
 280:./include/lib_AT91SAM7A3.h **** }
 281:./include/lib_AT91SAM7A3.h **** 
 282:./include/lib_AT91SAM7A3.h **** //*----------------------------------------------------------------------------
 283:./include/lib_AT91SAM7A3.h **** //* \fn    AT91F_PDC_DisableTx
 284:./include/lib_AT91SAM7A3.h **** //* \brief Disable transmit
 285:./include/lib_AT91SAM7A3.h **** //*----------------------------------------------------------------------------
 286:./include/lib_AT91SAM7A3.h **** __inline void AT91F_PDC_DisableTx (
 287:./include/lib_AT91SAM7A3.h **** 	AT91PS_PDC pPDC )       // \arg pointer to a PDC controller
 288:./include/lib_AT91SAM7A3.h **** {
 289:./include/lib_AT91SAM7A3.h **** 	pPDC->PDC_PTCR = AT91C_PDC_TXTDIS;
 290:./include/lib_AT91SAM7A3.h **** }
 291:./include/lib_AT91SAM7A3.h **** 
 292:./include/lib_AT91SAM7A3.h **** //*----------------------------------------------------------------------------
 293:./include/lib_AT91SAM7A3.h **** //* \fn    AT91F_PDC_DisableRx
 294:./include/lib_AT91SAM7A3.h **** //* \brief Disable receive
 295:./include/lib_AT91SAM7A3.h **** //*----------------------------------------------------------------------------
 296:./include/lib_AT91SAM7A3.h **** __inline void AT91F_PDC_DisableRx (
 297:./include/lib_AT91SAM7A3.h **** 	AT91PS_PDC pPDC )       // \arg pointer to a PDC controller
 298:./include/lib_AT91SAM7A3.h **** {
 299:./include/lib_AT91SAM7A3.h **** 	pPDC->PDC_PTCR = AT91C_PDC_RXTDIS;
 300:./include/lib_AT91SAM7A3.h **** }
 301:./include/lib_AT91SAM7A3.h **** 
 302:./include/lib_AT91SAM7A3.h **** //*----------------------------------------------------------------------------
 303:./include/lib_AT91SAM7A3.h **** //* \fn    AT91F_PDC_IsTxEmpty
 304:./include/lib_AT91SAM7A3.h **** //* \brief Test if the current transfer descriptor has been sent
 305:./include/lib_AT91SAM7A3.h **** //*----------------------------------------------------------------------------
 306:./include/lib_AT91SAM7A3.h **** __inline int AT91F_PDC_IsTxEmpty ( // \return return 1 if transfer is complete
 307:./include/lib_AT91SAM7A3.h **** 	AT91PS_PDC pPDC )       // \arg pointer to a PDC controller
 308:./include/lib_AT91SAM7A3.h **** {
 309:./include/lib_AT91SAM7A3.h **** 	return !(pPDC->PDC_TCR);
 310:./include/lib_AT91SAM7A3.h **** }
 311:./include/lib_AT91SAM7A3.h **** 
 312:./include/lib_AT91SAM7A3.h **** //*----------------------------------------------------------------------------
 313:./include/lib_AT91SAM7A3.h **** //* \fn    AT91F_PDC_IsNextTxEmpty
 314:./include/lib_AT91SAM7A3.h **** //* \brief Test if the next transfer descriptor has been moved to the current td
 315:./include/lib_AT91SAM7A3.h **** //*----------------------------------------------------------------------------
 316:./include/lib_AT91SAM7A3.h **** __inline int AT91F_PDC_IsNextTxEmpty ( // \return return 1 if transfer is complete
 317:./include/lib_AT91SAM7A3.h **** 	AT91PS_PDC pPDC )       // \arg pointer to a PDC controller
 318:./include/lib_AT91SAM7A3.h **** {
 319:./include/lib_AT91SAM7A3.h **** 	return !(pPDC->PDC_TNCR);
 320:./include/lib_AT91SAM7A3.h **** }
 321:./include/lib_AT91SAM7A3.h **** 
 322:./include/lib_AT91SAM7A3.h **** //*----------------------------------------------------------------------------
 323:./include/lib_AT91SAM7A3.h **** //* \fn    AT91F_PDC_IsRxEmpty
 324:./include/lib_AT91SAM7A3.h **** //* \brief Test if the current transfer descriptor has been filled
 325:./include/lib_AT91SAM7A3.h **** //*----------------------------------------------------------------------------
 326:./include/lib_AT91SAM7A3.h **** __inline int AT91F_PDC_IsRxEmpty ( // \return return 1 if transfer is complete
 327:./include/lib_AT91SAM7A3.h **** 	AT91PS_PDC pPDC )       // \arg pointer to a PDC controller
 328:./include/lib_AT91SAM7A3.h **** {
 329:./include/lib_AT91SAM7A3.h **** 	return !(pPDC->PDC_RCR);
 330:./include/lib_AT91SAM7A3.h **** }
 331:./include/lib_AT91SAM7A3.h **** 
 332:./include/lib_AT91SAM7A3.h **** //*----------------------------------------------------------------------------
 333:./include/lib_AT91SAM7A3.h **** //* \fn    AT91F_PDC_IsNextRxEmpty
 334:./include/lib_AT91SAM7A3.h **** //* \brief Test if the next transfer descriptor has been moved to the current td
 335:./include/lib_AT91SAM7A3.h **** //*----------------------------------------------------------------------------
 336:./include/lib_AT91SAM7A3.h **** __inline int AT91F_PDC_IsNextRxEmpty ( // \return return 1 if transfer is complete
 337:./include/lib_AT91SAM7A3.h **** 	AT91PS_PDC pPDC )       // \arg pointer to a PDC controller
 338:./include/lib_AT91SAM7A3.h **** {
 339:./include/lib_AT91SAM7A3.h **** 	return !(pPDC->PDC_RNCR);
 340:./include/lib_AT91SAM7A3.h **** }
 341:./include/lib_AT91SAM7A3.h **** 
 342:./include/lib_AT91SAM7A3.h **** //*----------------------------------------------------------------------------
 343:./include/lib_AT91SAM7A3.h **** //* \fn    AT91F_PDC_Open
 344:./include/lib_AT91SAM7A3.h **** //* \brief Open PDC: disable TX and RX reset transfer descriptors, re-enable RX and TX
 345:./include/lib_AT91SAM7A3.h **** //*----------------------------------------------------------------------------
 346:./include/lib_AT91SAM7A3.h **** __inline void AT91F_PDC_Open (
 347:./include/lib_AT91SAM7A3.h **** 	AT91PS_PDC pPDC)       // \arg pointer to a PDC controller
 348:./include/lib_AT91SAM7A3.h **** {
 349:./include/lib_AT91SAM7A3.h ****     //* Disable the RX and TX PDC transfer requests
 350:./include/lib_AT91SAM7A3.h **** 	AT91F_PDC_DisableRx(pPDC);
 351:./include/lib_AT91SAM7A3.h **** 	AT91F_PDC_DisableTx(pPDC);
 352:./include/lib_AT91SAM7A3.h **** 
 353:./include/lib_AT91SAM7A3.h **** 	//* Reset all Counter register Next buffer first
 354:./include/lib_AT91SAM7A3.h **** 	AT91F_PDC_SetNextTx(pPDC, (char *) 0, 0);
 355:./include/lib_AT91SAM7A3.h **** 	AT91F_PDC_SetNextRx(pPDC, (char *) 0, 0);
 356:./include/lib_AT91SAM7A3.h **** 	AT91F_PDC_SetTx(pPDC, (char *) 0, 0);
 357:./include/lib_AT91SAM7A3.h **** 	AT91F_PDC_SetRx(pPDC, (char *) 0, 0);
 358:./include/lib_AT91SAM7A3.h **** 
 359:./include/lib_AT91SAM7A3.h ****     //* Enable the RX and TX PDC transfer requests
 360:./include/lib_AT91SAM7A3.h **** 	AT91F_PDC_EnableRx(pPDC);
 361:./include/lib_AT91SAM7A3.h **** 	AT91F_PDC_EnableTx(pPDC);
 362:./include/lib_AT91SAM7A3.h **** }
 363:./include/lib_AT91SAM7A3.h **** 
 364:./include/lib_AT91SAM7A3.h **** //*----------------------------------------------------------------------------
 365:./include/lib_AT91SAM7A3.h **** //* \fn    AT91F_PDC_Close
 366:./include/lib_AT91SAM7A3.h **** //* \brief Close PDC: disable TX and RX reset transfer descriptors
 367:./include/lib_AT91SAM7A3.h **** //*----------------------------------------------------------------------------
 368:./include/lib_AT91SAM7A3.h **** __inline void AT91F_PDC_Close (
 369:./include/lib_AT91SAM7A3.h **** 	AT91PS_PDC pPDC)       // \arg pointer to a PDC controller
 370:./include/lib_AT91SAM7A3.h **** {
 371:./include/lib_AT91SAM7A3.h ****     //* Disable the RX and TX PDC transfer requests
 372:./include/lib_AT91SAM7A3.h **** 	AT91F_PDC_DisableRx(pPDC);
 373:./include/lib_AT91SAM7A3.h **** 	AT91F_PDC_DisableTx(pPDC);
 374:./include/lib_AT91SAM7A3.h **** 
 375:./include/lib_AT91SAM7A3.h **** 	//* Reset all Counter register Next buffer first
 376:./include/lib_AT91SAM7A3.h **** 	AT91F_PDC_SetNextTx(pPDC, (char *) 0, 0);
 377:./include/lib_AT91SAM7A3.h **** 	AT91F_PDC_SetNextRx(pPDC, (char *) 0, 0);
 378:./include/lib_AT91SAM7A3.h **** 	AT91F_PDC_SetTx(pPDC, (char *) 0, 0);
 379:./include/lib_AT91SAM7A3.h **** 	AT91F_PDC_SetRx(pPDC, (char *) 0, 0);
 380:./include/lib_AT91SAM7A3.h **** 
 381:./include/lib_AT91SAM7A3.h **** }
 382:./include/lib_AT91SAM7A3.h **** 
 383:./include/lib_AT91SAM7A3.h **** //*----------------------------------------------------------------------------
 384:./include/lib_AT91SAM7A3.h **** //* \fn    AT91F_PDC_SendFrame
 385:./include/lib_AT91SAM7A3.h **** //* \brief Close PDC: disable TX and RX reset transfer descriptors
 386:./include/lib_AT91SAM7A3.h **** //*----------------------------------------------------------------------------
 387:./include/lib_AT91SAM7A3.h **** __inline unsigned int AT91F_PDC_SendFrame(
 388:./include/lib_AT91SAM7A3.h **** 	AT91PS_PDC pPDC,
 389:./include/lib_AT91SAM7A3.h **** 	char *pBuffer,
 390:./include/lib_AT91SAM7A3.h **** 	unsigned int szBuffer,
 391:./include/lib_AT91SAM7A3.h **** 	char *pNextBuffer,
 392:./include/lib_AT91SAM7A3.h **** 	unsigned int szNextBuffer )
 393:./include/lib_AT91SAM7A3.h **** {
 394:./include/lib_AT91SAM7A3.h **** 	if (AT91F_PDC_IsTxEmpty(pPDC)) {
 395:./include/lib_AT91SAM7A3.h **** 		//* Buffer and next buffer can be initialized
 396:./include/lib_AT91SAM7A3.h **** 		AT91F_PDC_SetTx(pPDC, pBuffer, szBuffer);
 397:./include/lib_AT91SAM7A3.h **** 		AT91F_PDC_SetNextTx(pPDC, pNextBuffer, szNextBuffer);
 398:./include/lib_AT91SAM7A3.h **** 		return 2;
 399:./include/lib_AT91SAM7A3.h **** 	}
 400:./include/lib_AT91SAM7A3.h **** 	else if (AT91F_PDC_IsNextTxEmpty(pPDC)) {
 401:./include/lib_AT91SAM7A3.h **** 		//* Only one buffer can be initialized
 402:./include/lib_AT91SAM7A3.h **** 		AT91F_PDC_SetNextTx(pPDC, pBuffer, szBuffer);
 403:./include/lib_AT91SAM7A3.h **** 		return 1;
 404:./include/lib_AT91SAM7A3.h **** 	}
 405:./include/lib_AT91SAM7A3.h **** 	else {
 406:./include/lib_AT91SAM7A3.h **** 		//* All buffer are in use...
 407:./include/lib_AT91SAM7A3.h **** 		return 0;
 408:./include/lib_AT91SAM7A3.h **** 	}
 409:./include/lib_AT91SAM7A3.h **** }
 410:./include/lib_AT91SAM7A3.h **** 
 411:./include/lib_AT91SAM7A3.h **** //*----------------------------------------------------------------------------
 412:./include/lib_AT91SAM7A3.h **** //* \fn    AT91F_PDC_ReceiveFrame
 413:./include/lib_AT91SAM7A3.h **** //* \brief Close PDC: disable TX and RX reset transfer descriptors
 414:./include/lib_AT91SAM7A3.h **** //*----------------------------------------------------------------------------
 415:./include/lib_AT91SAM7A3.h **** __inline unsigned int AT91F_PDC_ReceiveFrame (
 416:./include/lib_AT91SAM7A3.h **** 	AT91PS_PDC pPDC,
 417:./include/lib_AT91SAM7A3.h **** 	char *pBuffer,
 418:./include/lib_AT91SAM7A3.h **** 	unsigned int szBuffer,
 419:./include/lib_AT91SAM7A3.h **** 	char *pNextBuffer,
 420:./include/lib_AT91SAM7A3.h **** 	unsigned int szNextBuffer )
 421:./include/lib_AT91SAM7A3.h **** {
 422:./include/lib_AT91SAM7A3.h **** 	if (AT91F_PDC_IsRxEmpty(pPDC)) {
 423:./include/lib_AT91SAM7A3.h **** 		//* Buffer and next buffer can be initialized
 424:./include/lib_AT91SAM7A3.h **** 		AT91F_PDC_SetRx(pPDC, pBuffer, szBuffer);
 425:./include/lib_AT91SAM7A3.h **** 		AT91F_PDC_SetNextRx(pPDC, pNextBuffer, szNextBuffer);
 426:./include/lib_AT91SAM7A3.h **** 		return 2;
 427:./include/lib_AT91SAM7A3.h **** 	}
 428:./include/lib_AT91SAM7A3.h **** 	else if (AT91F_PDC_IsNextRxEmpty(pPDC)) {
 429:./include/lib_AT91SAM7A3.h **** 		//* Only one buffer can be initialized
 430:./include/lib_AT91SAM7A3.h **** 		AT91F_PDC_SetNextRx(pPDC, pBuffer, szBuffer);
 431:./include/lib_AT91SAM7A3.h **** 		return 1;
 432:./include/lib_AT91SAM7A3.h **** 	}
 433:./include/lib_AT91SAM7A3.h **** 	else {
 434:./include/lib_AT91SAM7A3.h **** 		//* All buffer are in use...
 435:./include/lib_AT91SAM7A3.h **** 		return 0;
 436:./include/lib_AT91SAM7A3.h **** 	}
 437:./include/lib_AT91SAM7A3.h **** }
 438:./include/lib_AT91SAM7A3.h **** /* *****************************************************************************
 439:./include/lib_AT91SAM7A3.h ****                 SOFTWARE API FOR DBGU
 440:./include/lib_AT91SAM7A3.h ****    ***************************************************************************** */
 441:./include/lib_AT91SAM7A3.h **** //*----------------------------------------------------------------------------
 442:./include/lib_AT91SAM7A3.h **** //* \fn    AT91F_DBGU_InterruptEnable
 443:./include/lib_AT91SAM7A3.h **** //* \brief Enable DBGU Interrupt
 444:./include/lib_AT91SAM7A3.h **** //*----------------------------------------------------------------------------
 445:./include/lib_AT91SAM7A3.h **** __inline void AT91F_DBGU_InterruptEnable(
 446:./include/lib_AT91SAM7A3.h ****         AT91PS_DBGU pDbgu,   // \arg  pointer to a DBGU controller
 447:./include/lib_AT91SAM7A3.h ****         unsigned int flag) // \arg  dbgu interrupt to be enabled
 448:./include/lib_AT91SAM7A3.h **** {
 449:./include/lib_AT91SAM7A3.h ****         pDbgu->DBGU_IER = flag;
 450:./include/lib_AT91SAM7A3.h **** }
 451:./include/lib_AT91SAM7A3.h **** 
 452:./include/lib_AT91SAM7A3.h **** //*----------------------------------------------------------------------------
 453:./include/lib_AT91SAM7A3.h **** //* \fn    AT91F_DBGU_InterruptDisable
 454:./include/lib_AT91SAM7A3.h **** //* \brief Disable DBGU Interrupt
 455:./include/lib_AT91SAM7A3.h **** //*----------------------------------------------------------------------------
 456:./include/lib_AT91SAM7A3.h **** __inline void AT91F_DBGU_InterruptDisable(
 457:./include/lib_AT91SAM7A3.h ****         AT91PS_DBGU pDbgu,   // \arg  pointer to a DBGU controller
 458:./include/lib_AT91SAM7A3.h ****         unsigned int flag) // \arg  dbgu interrupt to be disabled
 459:./include/lib_AT91SAM7A3.h **** {
 460:./include/lib_AT91SAM7A3.h ****         pDbgu->DBGU_IDR = flag;
 461:./include/lib_AT91SAM7A3.h **** }
 462:./include/lib_AT91SAM7A3.h **** 
 463:./include/lib_AT91SAM7A3.h **** //*----------------------------------------------------------------------------
 464:./include/lib_AT91SAM7A3.h **** //* \fn    AT91F_DBGU_GetInterruptMaskStatus
 465:./include/lib_AT91SAM7A3.h **** //* \brief Return DBGU Interrupt Mask Status
 466:./include/lib_AT91SAM7A3.h **** //*----------------------------------------------------------------------------
 467:./include/lib_AT91SAM7A3.h **** __inline unsigned int AT91F_DBGU_GetInterruptMaskStatus( // \return DBGU Interrupt Mask Status
 468:./include/lib_AT91SAM7A3.h ****         AT91PS_DBGU pDbgu) // \arg  pointer to a DBGU controller
 469:./include/lib_AT91SAM7A3.h **** {
 470:./include/lib_AT91SAM7A3.h ****         return pDbgu->DBGU_IMR;
 471:./include/lib_AT91SAM7A3.h **** }
 472:./include/lib_AT91SAM7A3.h **** 
 473:./include/lib_AT91SAM7A3.h **** //*----------------------------------------------------------------------------
 474:./include/lib_AT91SAM7A3.h **** //* \fn    AT91F_DBGU_IsInterruptMasked
 475:./include/lib_AT91SAM7A3.h **** //* \brief Test if DBGU Interrupt is Masked 
 476:./include/lib_AT91SAM7A3.h **** //*----------------------------------------------------------------------------
 477:./include/lib_AT91SAM7A3.h **** __inline int AT91F_DBGU_IsInterruptMasked(
 478:./include/lib_AT91SAM7A3.h ****         AT91PS_DBGU pDbgu,   // \arg  pointer to a DBGU controller
 479:./include/lib_AT91SAM7A3.h ****         unsigned int flag) // \arg  flag to be tested
 480:./include/lib_AT91SAM7A3.h **** {
 481:./include/lib_AT91SAM7A3.h ****         return (AT91F_DBGU_GetInterruptMaskStatus(pDbgu) & flag);
 482:./include/lib_AT91SAM7A3.h **** }
 483:./include/lib_AT91SAM7A3.h **** 
 484:./include/lib_AT91SAM7A3.h **** /* *****************************************************************************
 485:./include/lib_AT91SAM7A3.h ****                 SOFTWARE API FOR PIO
 486:./include/lib_AT91SAM7A3.h ****    ***************************************************************************** */
 487:./include/lib_AT91SAM7A3.h **** //*----------------------------------------------------------------------------
 488:./include/lib_AT91SAM7A3.h **** //* \fn    AT91F_PIO_CfgPeriph
 489:./include/lib_AT91SAM7A3.h **** //* \brief Enable pins to be drived by peripheral
 490:./include/lib_AT91SAM7A3.h **** //*----------------------------------------------------------------------------
 491:./include/lib_AT91SAM7A3.h **** __inline void AT91F_PIO_CfgPeriph(
 492:./include/lib_AT91SAM7A3.h **** 	AT91PS_PIO pPio,             // \arg pointer to a PIO controller
 493:./include/lib_AT91SAM7A3.h **** 	unsigned int periphAEnable,  // \arg PERIPH A to enable
 494:./include/lib_AT91SAM7A3.h **** 	unsigned int periphBEnable)  // \arg PERIPH B to enable
 495:./include/lib_AT91SAM7A3.h **** 
 496:./include/lib_AT91SAM7A3.h **** {
 497:./include/lib_AT91SAM7A3.h **** 	pPio->PIO_ASR = periphAEnable;
 498:./include/lib_AT91SAM7A3.h **** 	pPio->PIO_BSR = periphBEnable;
 499:./include/lib_AT91SAM7A3.h **** 	pPio->PIO_PDR = (periphAEnable | periphBEnable); // Set in Periph mode
 500:./include/lib_AT91SAM7A3.h **** }
 501:./include/lib_AT91SAM7A3.h **** 
 502:./include/lib_AT91SAM7A3.h **** //*----------------------------------------------------------------------------
 503:./include/lib_AT91SAM7A3.h **** //* \fn    AT91F_PIO_CfgOutput
 504:./include/lib_AT91SAM7A3.h **** //* \brief Enable PIO in output mode
 505:./include/lib_AT91SAM7A3.h **** //*----------------------------------------------------------------------------
 506:./include/lib_AT91SAM7A3.h **** __inline void AT91F_PIO_CfgOutput(
 507:./include/lib_AT91SAM7A3.h **** 	AT91PS_PIO pPio,             // \arg pointer to a PIO controller
 508:./include/lib_AT91SAM7A3.h **** 	unsigned int pioEnable)      // \arg PIO to be enabled
 509:./include/lib_AT91SAM7A3.h **** {
 510:./include/lib_AT91SAM7A3.h **** 	pPio->PIO_PER = pioEnable; // Set in PIO mode
 511:./include/lib_AT91SAM7A3.h **** 	pPio->PIO_OER = pioEnable; // Configure in Output
 512:./include/lib_AT91SAM7A3.h **** }
 513:./include/lib_AT91SAM7A3.h **** 
 514:./include/lib_AT91SAM7A3.h **** //*----------------------------------------------------------------------------
 515:./include/lib_AT91SAM7A3.h **** //* \fn    AT91F_PIO_CfgInput
 516:./include/lib_AT91SAM7A3.h **** //* \brief Enable PIO in input mode
 517:./include/lib_AT91SAM7A3.h **** //*----------------------------------------------------------------------------
 518:./include/lib_AT91SAM7A3.h **** __inline void AT91F_PIO_CfgInput(
 519:./include/lib_AT91SAM7A3.h **** 	AT91PS_PIO pPio,             // \arg pointer to a PIO controller
 520:./include/lib_AT91SAM7A3.h **** 	unsigned int inputEnable)      // \arg PIO to be enabled
 521:./include/lib_AT91SAM7A3.h **** {
 522:./include/lib_AT91SAM7A3.h **** 	// Disable output
 523:./include/lib_AT91SAM7A3.h **** 	pPio->PIO_ODR  = inputEnable;
 524:./include/lib_AT91SAM7A3.h **** 	pPio->PIO_PER  = inputEnable;
 525:./include/lib_AT91SAM7A3.h **** }
 526:./include/lib_AT91SAM7A3.h **** 
 527:./include/lib_AT91SAM7A3.h **** //*----------------------------------------------------------------------------
 528:./include/lib_AT91SAM7A3.h **** //* \fn    AT91F_PIO_CfgOpendrain
 529:./include/lib_AT91SAM7A3.h **** //* \brief Configure PIO in open drain
 530:./include/lib_AT91SAM7A3.h **** //*----------------------------------------------------------------------------
 531:./include/lib_AT91SAM7A3.h **** __inline void AT91F_PIO_CfgOpendrain(
 532:./include/lib_AT91SAM7A3.h **** 	AT91PS_PIO pPio,             // \arg pointer to a PIO controller
 533:./include/lib_AT91SAM7A3.h **** 	unsigned int multiDrvEnable) // \arg pio to be configured in open drain
 534:./include/lib_AT91SAM7A3.h **** {
 535:./include/lib_AT91SAM7A3.h **** 	// Configure the multi-drive option
 536:./include/lib_AT91SAM7A3.h **** 	pPio->PIO_MDDR = ~multiDrvEnable;
 537:./include/lib_AT91SAM7A3.h **** 	pPio->PIO_MDER = multiDrvEnable;
 538:./include/lib_AT91SAM7A3.h **** }
 539:./include/lib_AT91SAM7A3.h **** 
 540:./include/lib_AT91SAM7A3.h **** //*----------------------------------------------------------------------------
 541:./include/lib_AT91SAM7A3.h **** //* \fn    AT91F_PIO_CfgPullup
 542:./include/lib_AT91SAM7A3.h **** //* \brief Enable pullup on PIO
 543:./include/lib_AT91SAM7A3.h **** //*----------------------------------------------------------------------------
 544:./include/lib_AT91SAM7A3.h **** __inline void AT91F_PIO_CfgPullup(
 545:./include/lib_AT91SAM7A3.h **** 	AT91PS_PIO pPio,             // \arg pointer to a PIO controller
 546:./include/lib_AT91SAM7A3.h **** 	unsigned int pullupEnable)   // \arg enable pullup on PIO
 547:./include/lib_AT91SAM7A3.h **** {
 548:./include/lib_AT91SAM7A3.h **** 		// Connect or not Pullup
 549:./include/lib_AT91SAM7A3.h **** 	pPio->PIO_PPUDR = ~pullupEnable;
 550:./include/lib_AT91SAM7A3.h **** 	pPio->PIO_PPUER = pullupEnable;
 551:./include/lib_AT91SAM7A3.h **** }
 552:./include/lib_AT91SAM7A3.h **** 
 553:./include/lib_AT91SAM7A3.h **** //*----------------------------------------------------------------------------
 554:./include/lib_AT91SAM7A3.h **** //* \fn    AT91F_PIO_CfgDirectDrive
 555:./include/lib_AT91SAM7A3.h **** //* \brief Enable direct drive on PIO
 556:./include/lib_AT91SAM7A3.h **** //*----------------------------------------------------------------------------
 557:./include/lib_AT91SAM7A3.h **** __inline void AT91F_PIO_CfgDirectDrive(
 558:./include/lib_AT91SAM7A3.h **** 	AT91PS_PIO pPio,             // \arg pointer to a PIO controller
 559:./include/lib_AT91SAM7A3.h **** 	unsigned int directDrive)    // \arg PIO to be configured with direct drive
 560:./include/lib_AT91SAM7A3.h **** 
 561:./include/lib_AT91SAM7A3.h **** {
 562:./include/lib_AT91SAM7A3.h **** 	// Configure the Direct Drive
 563:./include/lib_AT91SAM7A3.h **** 	pPio->PIO_OWDR  = ~directDrive;
 564:./include/lib_AT91SAM7A3.h **** 	pPio->PIO_OWER  = directDrive;
 565:./include/lib_AT91SAM7A3.h **** }
 566:./include/lib_AT91SAM7A3.h **** 
 567:./include/lib_AT91SAM7A3.h **** //*----------------------------------------------------------------------------
 568:./include/lib_AT91SAM7A3.h **** //* \fn    AT91F_PIO_CfgInputFilter
 569:./include/lib_AT91SAM7A3.h **** //* \brief Enable input filter on input PIO
 570:./include/lib_AT91SAM7A3.h **** //*----------------------------------------------------------------------------
 571:./include/lib_AT91SAM7A3.h **** __inline void AT91F_PIO_CfgInputFilter(
 572:./include/lib_AT91SAM7A3.h **** 	AT91PS_PIO pPio,             // \arg pointer to a PIO controller
 573:./include/lib_AT91SAM7A3.h **** 	unsigned int inputFilter)    // \arg PIO to be configured with input filter
 574:./include/lib_AT91SAM7A3.h **** 
 575:./include/lib_AT91SAM7A3.h **** {
 576:./include/lib_AT91SAM7A3.h **** 	// Configure the Direct Drive
 577:./include/lib_AT91SAM7A3.h **** 	pPio->PIO_IFDR  = ~inputFilter;
 578:./include/lib_AT91SAM7A3.h **** 	pPio->PIO_IFER  = inputFilter;
 579:./include/lib_AT91SAM7A3.h **** }
 580:./include/lib_AT91SAM7A3.h **** 
 581:./include/lib_AT91SAM7A3.h **** //*----------------------------------------------------------------------------
 582:./include/lib_AT91SAM7A3.h **** //* \fn    AT91F_PIO_GetInput
 583:./include/lib_AT91SAM7A3.h **** //* \brief Return PIO input value
 584:./include/lib_AT91SAM7A3.h **** //*----------------------------------------------------------------------------
 585:./include/lib_AT91SAM7A3.h **** __inline unsigned int AT91F_PIO_GetInput( // \return PIO input
 586:./include/lib_AT91SAM7A3.h **** 	AT91PS_PIO pPio) // \arg  pointer to a PIO controller
 587:./include/lib_AT91SAM7A3.h **** {
 588:./include/lib_AT91SAM7A3.h **** 	return pPio->PIO_PDSR;
 589:./include/lib_AT91SAM7A3.h **** }
 590:./include/lib_AT91SAM7A3.h **** 
 591:./include/lib_AT91SAM7A3.h **** //*----------------------------------------------------------------------------
 592:./include/lib_AT91SAM7A3.h **** //* \fn    AT91F_PIO_IsInputSet
 593:./include/lib_AT91SAM7A3.h **** //* \brief Test if PIO is input flag is active
 594:./include/lib_AT91SAM7A3.h **** //*----------------------------------------------------------------------------
 595:./include/lib_AT91SAM7A3.h **** __inline int AT91F_PIO_IsInputSet(
 596:./include/lib_AT91SAM7A3.h **** 	AT91PS_PIO pPio,   // \arg  pointer to a PIO controller
 597:./include/lib_AT91SAM7A3.h **** 	unsigned int flag) // \arg  flag to be tested
 598:./include/lib_AT91SAM7A3.h **** {
 599:./include/lib_AT91SAM7A3.h **** 	return (AT91F_PIO_GetInput(pPio) & flag);
 600:./include/lib_AT91SAM7A3.h **** }
 601:./include/lib_AT91SAM7A3.h **** 
 602:./include/lib_AT91SAM7A3.h **** 
 603:./include/lib_AT91SAM7A3.h **** //*----------------------------------------------------------------------------
 604:./include/lib_AT91SAM7A3.h **** //* \fn    AT91F_PIO_SetOutput
 605:./include/lib_AT91SAM7A3.h **** //* \brief Set to 1 output PIO
 606:./include/lib_AT91SAM7A3.h **** //*----------------------------------------------------------------------------
 607:./include/lib_AT91SAM7A3.h **** __inline void AT91F_PIO_SetOutput(
 608:./include/lib_AT91SAM7A3.h **** 	AT91PS_PIO pPio,   // \arg  pointer to a PIO controller
 609:./include/lib_AT91SAM7A3.h **** 	unsigned int flag) // \arg  output to be set
 610:./include/lib_AT91SAM7A3.h **** {
 611:./include/lib_AT91SAM7A3.h **** 	pPio->PIO_SODR = flag;
 612:./include/lib_AT91SAM7A3.h **** }
 613:./include/lib_AT91SAM7A3.h **** 
 614:./include/lib_AT91SAM7A3.h **** //*----------------------------------------------------------------------------
 615:./include/lib_AT91SAM7A3.h **** //* \fn    AT91F_PIO_ClearOutput
 616:./include/lib_AT91SAM7A3.h **** //* \brief Set to 0 output PIO
 617:./include/lib_AT91SAM7A3.h **** //*----------------------------------------------------------------------------
 618:./include/lib_AT91SAM7A3.h **** __inline void AT91F_PIO_ClearOutput(
 619:./include/lib_AT91SAM7A3.h **** 	AT91PS_PIO pPio,   // \arg  pointer to a PIO controller
 620:./include/lib_AT91SAM7A3.h **** 	unsigned int flag) // \arg  output to be cleared
 621:./include/lib_AT91SAM7A3.h **** {
 622:./include/lib_AT91SAM7A3.h **** 	pPio->PIO_CODR = flag;
 623:./include/lib_AT91SAM7A3.h **** }
 624:./include/lib_AT91SAM7A3.h **** 
 625:./include/lib_AT91SAM7A3.h **** //*----------------------------------------------------------------------------
 626:./include/lib_AT91SAM7A3.h **** //* \fn    AT91F_PIO_ForceOutput
 627:./include/lib_AT91SAM7A3.h **** //* \brief Force output when Direct drive option is enabled
 628:./include/lib_AT91SAM7A3.h **** //*----------------------------------------------------------------------------
 629:./include/lib_AT91SAM7A3.h **** __inline void AT91F_PIO_ForceOutput(
 630:./include/lib_AT91SAM7A3.h **** 	AT91PS_PIO pPio,   // \arg  pointer to a PIO controller
 631:./include/lib_AT91SAM7A3.h **** 	unsigned int flag) // \arg  output to be forced
 632:./include/lib_AT91SAM7A3.h **** {
 633:./include/lib_AT91SAM7A3.h **** 	pPio->PIO_ODSR = flag;
 634:./include/lib_AT91SAM7A3.h **** }
 635:./include/lib_AT91SAM7A3.h **** 
 636:./include/lib_AT91SAM7A3.h **** //*----------------------------------------------------------------------------
 637:./include/lib_AT91SAM7A3.h **** //* \fn    AT91F_PIO_Enable
 638:./include/lib_AT91SAM7A3.h **** //* \brief Enable PIO
 639:./include/lib_AT91SAM7A3.h **** //*----------------------------------------------------------------------------
 640:./include/lib_AT91SAM7A3.h **** __inline void AT91F_PIO_Enable(
 641:./include/lib_AT91SAM7A3.h ****         AT91PS_PIO pPio,   // \arg  pointer to a PIO controller
 642:./include/lib_AT91SAM7A3.h ****         unsigned int flag) // \arg  pio to be enabled 
 643:./include/lib_AT91SAM7A3.h **** {
 644:./include/lib_AT91SAM7A3.h ****         pPio->PIO_PER = flag;
 645:./include/lib_AT91SAM7A3.h **** }
 646:./include/lib_AT91SAM7A3.h **** 
 647:./include/lib_AT91SAM7A3.h **** //*----------------------------------------------------------------------------
 648:./include/lib_AT91SAM7A3.h **** //* \fn    AT91F_PIO_Disable
 649:./include/lib_AT91SAM7A3.h **** //* \brief Disable PIO
 650:./include/lib_AT91SAM7A3.h **** //*----------------------------------------------------------------------------
 651:./include/lib_AT91SAM7A3.h **** __inline void AT91F_PIO_Disable(
 652:./include/lib_AT91SAM7A3.h ****         AT91PS_PIO pPio,   // \arg  pointer to a PIO controller
 653:./include/lib_AT91SAM7A3.h ****         unsigned int flag) // \arg  pio to be disabled 
 654:./include/lib_AT91SAM7A3.h **** {
 655:./include/lib_AT91SAM7A3.h ****         pPio->PIO_PDR = flag;
 1038              		.loc 2 655 0
 1039 00d0 354B     		ldr	r3, .L43+28
 1040 00d2 5A60     		str	r2, [r3, #4]
 1041 00d4 53E0     		b	.L32
 1042              	.LVL56:
 1043              	.L38:
 1044              	.LBE9:
 1045              	.LBE8:
 704:functions.c   **** #endif
 705:functions.c   **** 		}
 706:functions.c   **** 		// channel count must be > 1, else if 0 or 1 CUPDR changes CPRDR/CDTYR directly (see Errata)
 707:functions.c   **** 		else if( (status & channel) && (AT91C_BASE_PWMC->PWMC_CH[output].PWMC_CCNTR > 1) )
 1046              		.loc 1 707 0
 1047 00d6 2F4B     		ldr	r3, .L43+8
 1048 00d8 1B68     		ldr	r3, [r3]
 1049 00da 4846     		mov	r0, r9
 1050              	.LVL57:
 1051 00dc 0342     		tst	r3, r0
 1052 00de 4ED0     		beq	.L32
 1053              	.LVL58:
 1054              		.loc 1 707 0 is_stmt 0 discriminator 1
 1055 00e0 7201     		lsl	r2, r6, #5
 1056 00e2 3049     		ldr	r1, .L43+24
 1057 00e4 5218     		add	r2, r2, r1
 1058 00e6 5268     		ldr	r2, [r2, #4]
 1059 00e8 012A     		cmp	r2, #1
 1060 00ea 48D9     		bls	.L32
 708:functions.c   **** 		{
 709:functions.c   **** 			// if frequency changed then both period and duty will need updating
 710:functions.c   **** 			// if period > current duty, set new period - else set new duty first
 711:functions.c   **** 			if( (freqLast[output] != freq) && (period > AT91C_BASE_PWMC->PWMC_CH[output].PWMC_CDTYR) )
 1061              		.loc 1 711 0 is_stmt 1
 1062 00ec 7100     		lsl	r1, r6, #1
 1063 00ee 2A4A     		ldr	r2, .L43+12
 1064 00f0 8A5A     		ldrh	r2, [r1, r2]
 1065 00f2 4245     		cmp	r2, r8
 1066 00f4 3FD0     		beq	.L40
 1067              		.loc 1 711 0 is_stmt 0 discriminator 1
 1068 00f6 7201     		lsl	r2, r6, #5
 1069 00f8 2C48     		ldr	r0, .L43+32
 1070              	.LVL59:
 1071 00fa 1218     		add	r2, r2, r0
 1072 00fc 5268     		ldr	r2, [r2, #4]
 1073 00fe 9445     		cmp	ip, r2
 1074 0100 17D9     		bls	.L41
 712:functions.c   **** 			{
 713:functions.c   **** 				freqLast[output] = freq;
 1075              		.loc 1 713 0 is_stmt 1
 1076 0102 254A     		ldr	r2, .L43+12
 1077 0104 4046     		mov	r0, r8
 1078 0106 8852     		strh	r0, [r1, r2]
 714:functions.c   **** 				dutyLast[output] = 0; // force duty to updated next time
 1079              		.loc 1 714 0
 1080 0108 0021     		mov	r1, #0
 1081 010a 244A     		ldr	r2, .L43+16
 1082 010c 9155     		strb	r1, [r2, r6]
 715:functions.c   **** 				status &= ~channel;
 1083              		.loc 1 715 0
 1084 010e 4946     		mov	r1, r9
 1085 0110 8B43     		bic	r3, r1
 1086 0112 204A     		ldr	r2, .L43+8
 1087 0114 1360     		str	r3, [r2]
 716:functions.c   **** 				// set to update period
 717:functions.c   **** 				AT91C_BASE_PWMC->PWMC_CH[output].PWMC_CMR = mode | AT91C_PWMC_CPD;
 1088              		.loc 1 717 0
 1089 0116 8023     		mov	r3, #128
 1090 0118 DB00     		lsl	r3, r3, #3
 1091 011a 1D43     		orr	r5, r3
 1092              	.LVL60:
 1093 011c 321C     		mov	r2, r6
 1094 011e 1032     		add	r2, r2, #16
 1095 0120 5201     		lsl	r2, r2, #5
 1096 0122 1B4B     		ldr	r3, .L43+4
 1097 0124 D550     		str	r5, [r2, r3]
 718:functions.c   **** 				// set update register for duty
 719:functions.c   **** 				AT91C_BASE_PWMC->PWMC_CH[output].PWMC_CUPDR = period;
 1098              		.loc 1 719 0
 1099 0126 7601     		lsl	r6, r6, #5
 1100 0128 214A     		ldr	r2, .L43+36
 1101 012a B618     		add	r6, r6, r2
 1102 012c 6346     		mov	r3, ip
 1103 012e 3360     		str	r3, [r6]
 1104 0130 25E0     		b	.L32
 1105              	.LVL61:
 1106              	.L41:
 720:functions.c   **** 			}
 721:functions.c   **** 			// if duty or frequency changed, duty needs updating
 722:functions.c   **** 			else if( (dutyLast[output] != duty) || (freqLast[output] != freq) )
 723:functions.c   **** 			{
 724:functions.c   **** 				dutyLast[output] = duty;
 1107              		.loc 1 724 0
 1108 0132 1A4A     		ldr	r2, .L43+16
 1109 0134 9755     		strb	r7, [r2, r6]
 725:functions.c   **** 				status &= ~channel;
 1110              		.loc 1 725 0
 1111 0136 4846     		mov	r0, r9
 1112 0138 8343     		bic	r3, r0
 1113 013a 164A     		ldr	r2, .L43+8
 1114 013c 1360     		str	r3, [r2]
 726:functions.c   **** 				// set to update duty
 727:functions.c   **** 				AT91C_BASE_PWMC->PWMC_CH[output].PWMC_CMR = mode;
 1115              		.loc 1 727 0
 1116 013e 321C     		mov	r2, r6
 1117 0140 1032     		add	r2, r2, #16
 1118 0142 5201     		lsl	r2, r2, #5
 1119 0144 124B     		ldr	r3, .L43+4
 1120 0146 D550     		str	r5, [r2, r3]
 728:functions.c   **** 				// set update register for duty
 729:functions.c   **** 				AT91C_BASE_PWMC->PWMC_CH[output].PWMC_CUPDR = period * duty / 100;
 1121              		.loc 1 729 0
 1122 0148 6046     		mov	r0, ip
 1123 014a 7843     		mul	r0, r7
 1124 014c 6421     		mov	r1, #100
 1125 014e FFF7FEFF 		bl	__aeabi_uidiv
 1126              	.LVL62:
 1127 0152 7601     		lsl	r6, r6, #5
 1128 0154 1649     		ldr	r1, .L43+36
 1129 0156 7618     		add	r6, r6, r1
 1130 0158 3060     		str	r0, [r6]
 1131 015a 10E0     		b	.L32
 1132              	.LVL63:
 1133              	.L33:
 730:functions.c   **** 			}
 731:functions.c   **** 		}
 732:functions.c   **** 	}
 733:functions.c   **** 	else
 734:functions.c   **** 	{
 735:functions.c   **** #ifndef WINDOWS
 736:functions.c   **** 		// turn off output
 737:functions.c   **** 		AT91F_PIO_CfgOutput( AT91C_BASE_PIOA, portpin[output] );
 1134              		.loc 1 737 0
 1135 015c B600     		lsl	r6, r6, #2
 1136 015e 6B46     		mov	r3, sp
 1137              	.LVL64:
 1138 0160 F258     		ldr	r2, [r6, r3]
 1139              	.LVL65:
 1140              	.LBB10:
 1141              	.LBB11:
 510:./include/lib_AT91SAM7A3.h **** 	pPio->PIO_PER = pioEnable; // Set in PIO mode
 1142              		.loc 2 510 0
 1143 0162 114B     		ldr	r3, .L43+28
 1144 0164 1A60     		str	r2, [r3]
 511:./include/lib_AT91SAM7A3.h **** 	pPio->PIO_OER = pioEnable; // Configure in Output
 1145              		.loc 2 511 0
 1146 0166 1A61     		str	r2, [r3, #16]
 1147              	.LBE11:
 1148              	.LBE10:
 738:functions.c   **** 		AT91F_PIO_SetOutput( AT91C_BASE_PIOA, portpin[output] );
 1149              		.loc 1 738 0
 1150 0168 6846     		mov	r0, sp
 1151 016a 3258     		ldr	r2, [r6, r0]
 1152              	.LVL66:
 1153              	.LBB12:
 1154              	.LBB13:
 611:./include/lib_AT91SAM7A3.h **** 	pPio->PIO_SODR = flag;
 1155              		.loc 2 611 0
 1156 016c 1A63     		str	r2, [r3, #48]
 1157              	.LBE13:
 1158              	.LBE12:
 739:functions.c   **** #endif
 740:functions.c   **** 		// Stop PWM
 741:functions.c   **** 		AT91C_BASE_PWMC->PWMC_DIS = channel;
 1159              		.loc 1 741 0
 1160 016e 084B     		ldr	r3, .L43+4
 1161              	.LVL67:
 1162 0170 4946     		mov	r1, r9
 1163 0172 9960     		str	r1, [r3, #8]
 1164 0174 03E0     		b	.L32
 1165              	.LVL68:
 1166              	.L40:
 722:functions.c   **** 			else if( (dutyLast[output] != duty) || (freqLast[output] != freq) )
 1167              		.loc 1 722 0
 1168 0176 094A     		ldr	r2, .L43+16
 1169 0178 925D     		ldrb	r2, [r2, r6]
 1170 017a BA42     		cmp	r2, r7
 1171 017c D9D1     		bne	.L41
 1172              	.LVL69:
 1173              	.L32:
 742:functions.c   **** 	}
 743:functions.c   **** 
 744:functions.c   **** }
 1174              		.loc 1 744 0
 1175 017e 09B0     		add	sp, sp, #36
 1176              		@ sp needed for prologue
 1177              	.LVL70:
 1178 0180 0CBC     		pop	{r2, r3}
 1179 0182 9046     		mov	r8, r2
 1180 0184 9946     		mov	r9, r3
 1181 0186 F0BC     		pop	{r4, r5, r6, r7}
 1182 0188 01BC     		pop	{r0}
 1183 018a 0047     		bx	r0
 1184              	.L44:
 1185              		.align	2
 1186              	.L43:
 1187 018c 00000000 		.word	.LANCHOR11
 1188 0190 00C0FCFF 		.word	-212992
 1189 0194 00000000 		.word	.LANCHOR12
 1190 0198 00000000 		.word	.LANCHOR13
 1191 019c 00000000 		.word	.LANCHOR14
 1192 01a0 0040DB02 		.word	47923200
 1193 01a4 08C2FCFF 		.word	-212472
 1194 01a8 00F4FFFF 		.word	-3072
 1195 01ac 00C2FCFF 		.word	-212480
 1196 01b0 10C2FCFF 		.word	-212464
 1197              		.cfi_endproc
 1198              	.LFE383:
 1200              		.section	.text.ResetLubeCount,"ax",%progbits
 1201              		.align	2
 1202              		.global	ResetLubeCount
 1203              		.code	16
 1204              		.thumb_func
 1206              	ResetLubeCount:
 1207              	.LFB384:
 745:functions.c   **** // -----------------------------------------------------------
 746:functions.c   **** 
 747:functions.c   **** 
 748:functions.c   **** // -----------------------------------------------------------
 749:functions.c   **** // Function Name       : ResetLubeCount
 750:functions.c   **** // -----------------------------------------------------------
 751:functions.c   **** void ResetLubeCount( void )
 752:functions.c   **** {
 1208              		.loc 1 752 0
 1209              		.cfi_startproc
 1210 0000 00B5     		push	{lr}
 1211              	.LCFI11:
 1212              		.cfi_def_cfa_offset 4
 1213              		.cfi_offset 14, -4
 753:functions.c   **** 
 754:functions.c   **** 	if( pRun.pr.LubeCounter < 0 )
 1214              		.loc 1 754 0
 1215 0002 094B     		ldr	r3, .L48
 1216 0004 DA8C     		ldrh	r2, [r3, #38]
 1217 0006 1304     		lsl	r3, r2, #16
 1218 0008 1B14     		asr	r3, r3, #16
 1219 000a 06D5     		bpl	.L46
 755:functions.c   **** 	{
 756:functions.c   **** 		pRun.pr.LubeCounter += pFac.pf.GW302_LubeAlarm; // Reset to Lube Alarm (in bales) minus the numbe
 1220              		.loc 1 756 0
 1221 000c 7E23     		mov	r3, #126
 1222 000e 0749     		ldr	r1, .L48+4
 1223 0010 CB5A     		ldrh	r3, [r1, r3]
 1224 0012 D218     		add	r2, r2, r3
 1225 0014 044B     		ldr	r3, .L48
 1226 0016 DA84     		strh	r2, [r3, #38]
 1227 0018 04E0     		b	.L45
 1228              	.L46:
 757:functions.c   **** 	}
 758:functions.c   **** 	else // No extra bales since alarm first appeared
 759:functions.c   **** 	{
 760:functions.c   **** 		pRun.pr.LubeCounter = pFac.pf.GW302_LubeAlarm; // Reset to Lube Alarm (in bales)
 1229              		.loc 1 760 0
 1230 001a 7E23     		mov	r3, #126
 1231 001c 034A     		ldr	r2, .L48+4
 1232 001e D25A     		ldrh	r2, [r2, r3]
 1233 0020 014B     		ldr	r3, .L48
 1234 0022 DA84     		strh	r2, [r3, #38]
 1235              	.L45:
 761:functions.c   **** 	}
 762:functions.c   **** 
 763:functions.c   **** }
 1236              		.loc 1 763 0
 1237              		@ sp needed for prologue
 1238 0024 01BC     		pop	{r0}
 1239 0026 0047     		bx	r0
 1240              	.L49:
 1241              		.align	2
 1242              	.L48:
 1243 0028 00010000 		.word	.LANCHOR10
 1244 002c 00000000 		.word	.LANCHOR0
 1245              		.cfi_endproc
 1246              	.LFE384:
 1248              		.global	__aeabi_ui2f
 1249              		.global	__aeabi_f2d
 1250              		.global	__aeabi_dmul
 1251              		.global	__aeabi_ddiv
 1252              		.global	__aeabi_d2f
 1253              		.global	__aeabi_i2f
 1254              		.global	__aeabi_fmul
 1255              		.global	__aeabi_fadd
 1256              		.global	__aeabi_fsub
 1257              		.global	__aeabi_fdiv
 1258              		.global	__aeabi_fcmplt
 1259              		.global	__aeabi_fcmpgt
 1260              		.global	__aeabi_dadd
 1261              		.section	.text.Inputs,"ax",%progbits
 1262              		.align	2
 1263              		.global	Inputs
 1264              		.code	16
 1265              		.thumb_func
 1267              	Inputs:
 1268              	.LFB385:
 764:functions.c   **** // -----------------------------------------------------------
 765:functions.c   **** 
 766:functions.c   **** 
 767:functions.c   **** // -----------------------------------------------------------
 768:functions.c   **** // Function Name       : Inputs
 769:functions.c   **** // Object              : Calculates inputs
 770:functions.c   **** // Output Parameters   : DiaTargetVolts
 771:functions.c   **** //                       DiaMinExtDisplayPercent     (0.0 - 100.0 % of extended display range from 
 772:functions.c   **** //                       DiaTargetExtDisplayPercent  (0.0 - 100.0 % of extended display range from 
 773:functions.c   **** //                       BaleDiaExtDisplayPercent    (0.0 - 100.0 % of extended display range from 
 774:functions.c   **** //                       DiaMinVolts
 775:functions.c   **** //                       DiaMaxVolts
 776:functions.c   **** // -----------------------------------------------------------
 777:functions.c   **** void Inputs( void )
 778:functions.c   **** {    
 1269              		.loc 1 778 0
 1270              		.cfi_startproc
 1271 0000 F0B5     		push	{r4, r5, r6, r7, lr}
 1272              	.LCFI12:
 1273              		.cfi_def_cfa_offset 20
 1274              		.cfi_offset 4, -20
 1275              		.cfi_offset 5, -16
 1276              		.cfi_offset 6, -12
 1277              		.cfi_offset 7, -8
 1278              		.cfi_offset 14, -4
 1279 0002 5F46     		mov	r7, fp
 1280 0004 5646     		mov	r6, sl
 1281 0006 4D46     		mov	r5, r9
 1282 0008 4446     		mov	r4, r8
 1283 000a F0B4     		push	{r4, r5, r6, r7}
 1284              	.LCFI13:
 1285              		.cfi_def_cfa_offset 36
 1286              		.cfi_offset 8, -36
 1287              		.cfi_offset 9, -32
 1288              		.cfi_offset 10, -28
 1289              		.cfi_offset 11, -24
 1290 000c 83B0     		sub	sp, sp, #12
 1291              	.LCFI14:
 1292              		.cfi_def_cfa_offset 48
 779:functions.c   **** 	float DiaVoltsPer1PercentFullRange;       // V
 780:functions.c   **** 	float DiaCorrectionNudgeVolts;            // V
 781:functions.c   **** 	float DiaZeroVolts;                       // V
 782:functions.c   **** 
 783:functions.c   **** 	float DiaVoltsPerSetting;                 // V where Setting = 1 to 109 (which corresponds to 60 t
 784:functions.c   **** 
 785:functions.c   **** #ifdef DEVELOP
 786:functions.c   **** 	float DiaVoltsPer1PercentDisplayRange;    // V where DisplayRange = 0 to 100 % (which corresponds 
 787:functions.c   **** 
 788:functions.c   **** 	unsigned char tstring[32];                // used in printing out values
 789:functions.c   **** #endif
 790:functions.c   **** 
 791:functions.c   **** 	// Volts per 1% of full range = Voltage Range / 100  where Voltage Range = Bale Size Factor x Fixe
 792:functions.c   **** 	DiaVoltsPer1PercentFullRange = ((float)pFac.pf.GW302_BaleSizeFactor * DIA_FIXED_MULTIPLIER) / 100.
 1293              		.loc 1 792 0
 1294 000e E84C     		ldr	r4, .L117+16
 1295 0010 9023     		mov	r3, #144
 1296 0012 E05C     		ldrb	r0, [r4, r3]
 1297 0014 FFF7FEFF 		bl	__aeabi_ui2f
 1298              	.LVL71:
 1299 0018 FFF7FEFF 		bl	__aeabi_f2d
 1300              	.LVL72:
 1301 001c E14B     		ldr	r3, .L117+4
 1302 001e E04A     		ldr	r2, .L117
 1303 0020 FFF7FEFF 		bl	__aeabi_dmul
 1304              	.LVL73:
 1305 0024 E04A     		ldr	r2, .L117+8
 1306 0026 E14B     		ldr	r3, .L117+12
 1307 0028 FFF7FEFF 		bl	__aeabi_ddiv
 1308              	.LVL74:
 1309 002c FFF7FEFF 		bl	__aeabi_d2f
 1310              	.LVL75:
 1311 0030 051C     		add	r5, r0, #0
 1312              	.LVL76:
 793:functions.c   **** 
 794:functions.c   **** 	// Correction nudge voltage = Units nudged x Size of unit
 795:functions.c   **** 	DiaCorrectionNudgeVolts = (float)pFac.pf.GW302_DiameterCorrection * pFac.pf.GW302_DiaCorrection;
 1313              		.loc 1 795 0
 1314 0032 6823     		mov	r3, #104
 1315 0034 E056     		ldrsb	r0, [r4, r3]
 1316              	.LVL77:
 1317 0036 FFF7FEFF 		bl	__aeabi_i2f
 1318              	.LVL78:
 1319 003a C823     		mov	r3, #200
 1320 003c E158     		ldr	r1, [r4, r3]
 1321 003e FFF7FEFF 		bl	__aeabi_fmul
 1322              	.LVL79:
 796:functions.c   **** 
 797:functions.c   **** 	// Diameter zero voltage corresponding to 0cm = Pot Zero Voltage + Correction nudge voltage
 798:functions.c   **** 	DiaZeroVolts = pFac.pf.GW302_DiaPotZero + DiaCorrectionNudgeVolts;
 1323              		.loc 1 798 0
 1324 0042 616E     		ldr	r1, [r4, #100]
 1325 0044 FFF7FEFF 		bl	__aeabi_fadd
 1326              	.LVL80:
 1327 0048 8346     		mov	fp, r0
 1328              	.LVL81:
 799:functions.c   **** 
 800:functions.c   **** 	// Minimum voltage = (% diameter at setting 1 x Volts per 1%) + Diameter zero voltage correspondin
 801:functions.c   **** 	DiaMinVolts = ((float)pFac.pf.GW302_DiameterMin * DiaVoltsPer1PercentFullRange) + DiaZeroVolts;
 1329              		.loc 1 801 0
 1330 004a C423     		mov	r3, #196
 1331 004c E05C     		ldrb	r0, [r4, r3]
 1332              	.LVL82:
 1333 004e FFF7FEFF 		bl	__aeabi_ui2f
 1334              	.LVL83:
 1335 0052 291C     		add	r1, r5, #0
 1336 0054 FFF7FEFF 		bl	__aeabi_fmul
 1337              	.LVL84:
 1338 0058 5946     		mov	r1, fp
 1339 005a FFF7FEFF 		bl	__aeabi_fadd
 1340              	.LVL85:
 1341 005e 8146     		mov	r9, r0
 1342 0060 D44B     		ldr	r3, .L117+20
 1343 0062 1860     		str	r0, [r3]
 802:functions.c   **** 
 803:functions.c   **** 	// Maximum voltage = (% diameter at setting 109 x Volts per 1%) + Diameter zero voltage correspond
 804:functions.c   **** 	DiaMaxVolts = ((float)pFac.pf.GW302_DiameterMax * DiaVoltsPer1PercentFullRange) + DiaZeroVolts;
 1344              		.loc 1 804 0
 1345 0064 C523     		mov	r3, #197
 1346 0066 E05C     		ldrb	r0, [r4, r3]
 1347 0068 FFF7FEFF 		bl	__aeabi_ui2f
 1348              	.LVL86:
 1349 006c 291C     		add	r1, r5, #0
 1350 006e FFF7FEFF 		bl	__aeabi_fmul
 1351              	.LVL87:
 1352 0072 5946     		mov	r1, fp
 1353 0074 FFF7FEFF 		bl	__aeabi_fadd
 1354              	.LVL88:
 1355 0078 061C     		add	r6, r0, #0
 1356 007a CF4B     		ldr	r3, .L117+24
 1357 007c 1860     		str	r0, [r3]
 805:functions.c   **** 
 806:functions.c   **** 	// Volts per setting division = (Maximum voltage - Minimum voltage) / (109 - 1) where setting is 1
 807:functions.c   **** 	DiaVoltsPerSetting = (DiaMaxVolts - DiaMinVolts) / 108.0;
 1358              		.loc 1 807 0
 1359 007e 4946     		mov	r1, r9
 1360 0080 FFF7FEFF 		bl	__aeabi_fsub
 1361              	.LVL89:
 1362 0084 CD49     		ldr	r1, .L117+28
 1363 0086 FFF7FEFF 		bl	__aeabi_fdiv
 1364              	.LVL90:
 1365 008a 0190     		str	r0, [sp, #4]
 1366              	.LVL91:
 808:functions.c   **** 
 809:functions.c   **** 	// Target bale diameter voltage = ( (Target setting in cm - 60cm) x Volts per setting division  ) 
 810:functions.c   **** 	// Note: Target bale diameter voltage = Minimum voltage when Target setting is 60cm
 811:functions.c   **** 	DiaTargetVolts = ((float)(pFac.pf.GW302_BaleDiameter[pFac.pf.GW302_BaleProfile] - 60) * DiaVoltsPe
 1367              		.loc 1 811 0
 1368 008c 3A23     		mov	r3, #58
 1369 008e E35C     		ldrb	r3, [r4, r3]
 1370 0090 9A46     		mov	sl, r3
 1371 0092 5444     		add	r4, r4, sl
 1372 0094 3834     		add	r4, r4, #56
 1373 0096 E078     		ldrb	r0, [r4, #3]
 1374              	.LVL92:
 1375 0098 3C38     		sub	r0, r0, #60
 1376 009a FFF7FEFF 		bl	__aeabi_i2f
 1377              	.LVL93:
 1378 009e 0199     		ldr	r1, [sp, #4]
 1379 00a0 FFF7FEFF 		bl	__aeabi_fmul
 1380              	.LVL94:
 1381 00a4 011C     		add	r1, r0, #0
 1382 00a6 4846     		mov	r0, r9
 1383 00a8 FFF7FEFF 		bl	__aeabi_fadd
 1384              	.LVL95:
 1385 00ac 0090     		str	r0, [sp]
 1386 00ae C44B     		ldr	r3, .L117+32
 1387 00b0 1860     		str	r0, [r3]
 812:functions.c   **** 
 813:functions.c   **** #ifdef DEVELOP
 814:functions.c   **** 	// Volts per 1% of display range (from 0 to 100 % corresponding to 60 to 168cm and setting 1 to 10
 815:functions.c   **** 	// Not used in any calculations
 816:functions.c   **** 	DiaVoltsPer1PercentDisplayRange = (DiaMaxVolts - DiaMinVolts) / 100.0;
 817:functions.c   **** #endif
 818:functions.c   **** 
 819:functions.c   **** 	// Current bale diameter -- shown on scale with target & minimum bale diameters indicated
 820:functions.c   **** 
 821:functions.c   **** 	// Minimum bale diameter extended display percentage (0 - 100 % of extended display range from Pot
 822:functions.c   **** 	if(DiaMinVolts > DiaZeroVolts)
 1388              		.loc 1 822 0
 1389 00b2 5846     		mov	r0, fp
 1390 00b4 4946     		mov	r1, r9
 1391 00b6 FFF7FEFF 		bl	__aeabi_fcmplt
 1392              	.LVL96:
 1393 00ba 0028     		cmp	r0, #0
 1394 00bc 17D0     		beq	.L114
 823:functions.c   **** 		DiaMinExtDisplayPercent = ( (DiaMinVolts - DiaZeroVolts) / (DiaMaxVolts - DiaZeroVolts) ) * 100.0
 1395              		.loc 1 823 0
 1396 00be 4846     		mov	r0, r9
 1397 00c0 5946     		mov	r1, fp
 1398 00c2 FFF7FEFF 		bl	__aeabi_fsub
 1399              	.LVL97:
 1400 00c6 041C     		add	r4, r0, #0
 1401 00c8 301C     		add	r0, r6, #0
 1402 00ca 5946     		mov	r1, fp
 1403 00cc FFF7FEFF 		bl	__aeabi_fsub
 1404              	.LVL98:
 1405 00d0 011C     		add	r1, r0, #0
 1406 00d2 201C     		add	r0, r4, #0
 1407 00d4 FFF7FEFF 		bl	__aeabi_fdiv
 1408              	.LVL99:
 1409 00d8 BA49     		ldr	r1, .L117+36
 1410 00da FFF7FEFF 		bl	__aeabi_fmul
 1411              	.LVL100:
 1412 00de BA4B     		ldr	r3, .L117+40
 1413 00e0 1860     		str	r0, [r3]
 824:functions.c   **** 	else
 825:functions.c   **** 		DiaMinExtDisplayPercent = 0.0; // Limiting to 0.0%
 826:functions.c   **** 	if( DiaMinExtDisplayPercent > 100.0)
 1414              		.loc 1 826 0
 1415 00e2 B849     		ldr	r1, .L117+36
 1416 00e4 FFF7FEFF 		bl	__aeabi_fcmpgt
 1417              	.LVL101:
 1418 00e8 0028     		cmp	r0, #0
 1419 00ea 04D1     		bne	.L53
 1420 00ec 06E0     		b	.L54
 1421              	.L114:
 825:functions.c   **** 		DiaMinExtDisplayPercent = 0.0; // Limiting to 0.0%
 1422              		.loc 1 825 0
 1423 00ee 0022     		mov	r2, #0
 1424 00f0 B54B     		ldr	r3, .L117+40
 1425 00f2 1A60     		str	r2, [r3]
 1426 00f4 02E0     		b	.L54
 1427              	.L53:
 827:functions.c   **** 		DiaMinExtDisplayPercent = 100.0; // Limiting to 100.0%
 1428              		.loc 1 827 0
 1429 00f6 B34A     		ldr	r2, .L117+36
 1430 00f8 B34B     		ldr	r3, .L117+40
 1431 00fa 1A60     		str	r2, [r3]
 1432              	.L54:
 828:functions.c   **** 
 829:functions.c   **** 	// Target bale diameter extended display percentage (0 - 100 % of extended display range from PotZ
 830:functions.c   **** 	if(DiaTargetVolts > DiaZeroVolts)
 1433              		.loc 1 830 0
 1434 00fc 5846     		mov	r0, fp
 1435 00fe 0099     		ldr	r1, [sp]
 1436 0100 FFF7FEFF 		bl	__aeabi_fcmplt
 1437              	.LVL102:
 1438 0104 0028     		cmp	r0, #0
 1439 0106 17D0     		beq	.L115
 831:functions.c   **** 		DiaTargetExtDisplayPercent = ( (DiaTargetVolts - DiaZeroVolts) / (DiaMaxVolts - DiaZeroVolts) ) *
 1440              		.loc 1 831 0
 1441 0108 0098     		ldr	r0, [sp]
 1442 010a 5946     		mov	r1, fp
 1443 010c FFF7FEFF 		bl	__aeabi_fsub
 1444              	.LVL103:
 1445 0110 041C     		add	r4, r0, #0
 1446 0112 301C     		add	r0, r6, #0
 1447 0114 5946     		mov	r1, fp
 1448 0116 FFF7FEFF 		bl	__aeabi_fsub
 1449              	.LVL104:
 1450 011a 011C     		add	r1, r0, #0
 1451 011c 201C     		add	r0, r4, #0
 1452 011e FFF7FEFF 		bl	__aeabi_fdiv
 1453              	.LVL105:
 1454 0122 A849     		ldr	r1, .L117+36
 1455 0124 FFF7FEFF 		bl	__aeabi_fmul
 1456              	.LVL106:
 1457 0128 A84B     		ldr	r3, .L117+44
 1458 012a 1860     		str	r0, [r3]
 832:functions.c   **** 	else
 833:functions.c   **** 		DiaTargetExtDisplayPercent = 0.0; // Limiting to 0.0%
 834:functions.c   **** 	if( DiaTargetExtDisplayPercent > 100.0)
 1459              		.loc 1 834 0
 1460 012c A549     		ldr	r1, .L117+36
 1461 012e FFF7FEFF 		bl	__aeabi_fcmpgt
 1462              	.LVL107:
 1463 0132 0028     		cmp	r0, #0
 1464 0134 04D1     		bne	.L57
 1465 0136 06E0     		b	.L58
 1466              	.L115:
 833:functions.c   **** 		DiaTargetExtDisplayPercent = 0.0; // Limiting to 0.0%
 1467              		.loc 1 833 0
 1468 0138 0022     		mov	r2, #0
 1469 013a A44B     		ldr	r3, .L117+44
 1470 013c 1A60     		str	r2, [r3]
 1471 013e 02E0     		b	.L58
 1472              	.L57:
 835:functions.c   **** 		DiaTargetExtDisplayPercent = 100.0; // Limiting to 100.0%
 1473              		.loc 1 835 0
 1474 0140 A04A     		ldr	r2, .L117+36
 1475 0142 A24B     		ldr	r3, .L117+44
 1476 0144 1A60     		str	r2, [r3]
 1477              	.L58:
 836:functions.c   **** 
 837:functions.c   **** 	// Current bale diameter extended display percentage (0 - 100 %) = (Current bale diameter voltage 
 838:functions.c   **** 	if(BaleDiaVolts > DiaZeroVolts)
 1478              		.loc 1 838 0
 1479 0146 A24B     		ldr	r3, .L117+48
 1480 0148 1C68     		ldr	r4, [r3]
 1481 014a 5846     		mov	r0, fp
 1482 014c 211C     		add	r1, r4, #0
 1483 014e FFF7FEFF 		bl	__aeabi_fcmplt
 1484              	.LVL108:
 1485 0152 0028     		cmp	r0, #0
 1486 0154 21D0     		beq	.L116
 839:functions.c   **** 		// Multiplying (BaleDiaVolts - DiaZeroVolts) by 100.0 before division for accuracy
 840:functions.c   **** 		BaleDiaExtDisplayPercent = ( (BaleDiaVolts - DiaZeroVolts) * 100.0 ) / ( DiaMaxVolts - DiaZeroVol
 1487              		.loc 1 840 0
 1488 0156 201C     		add	r0, r4, #0
 1489 0158 5946     		mov	r1, fp
 1490 015a FFF7FEFF 		bl	__aeabi_fsub
 1491              	.LVL109:
 1492 015e FFF7FEFF 		bl	__aeabi_f2d
 1493              	.LVL110:
 1494 0162 914A     		ldr	r2, .L117+8
 1495 0164 914B     		ldr	r3, .L117+12
 1496 0166 FFF7FEFF 		bl	__aeabi_dmul
 1497              	.LVL111:
 1498 016a 041C     		mov	r4, r0
 1499 016c 0D1C     		mov	r5, r1
 1500              	.LVL112:
 1501 016e 301C     		add	r0, r6, #0
 1502 0170 5946     		mov	r1, fp
 1503 0172 FFF7FEFF 		bl	__aeabi_fsub
 1504              	.LVL113:
 1505 0176 FFF7FEFF 		bl	__aeabi_f2d
 1506              	.LVL114:
 1507 017a 021C     		mov	r2, r0
 1508 017c 0B1C     		mov	r3, r1
 1509 017e 201C     		mov	r0, r4
 1510 0180 291C     		mov	r1, r5
 1511 0182 FFF7FEFF 		bl	__aeabi_ddiv
 1512              	.LVL115:
 1513 0186 FFF7FEFF 		bl	__aeabi_d2f
 1514              	.LVL116:
 1515 018a 924B     		ldr	r3, .L117+52
 1516 018c 1860     		str	r0, [r3]
 841:functions.c   **** 	else
 842:functions.c   **** 		BaleDiaExtDisplayPercent = 0.0; // Limiting to 0.0%
 843:functions.c   **** 	if( BaleDiaExtDisplayPercent > 100.0)
 1517              		.loc 1 843 0
 1518 018e 8D49     		ldr	r1, .L117+36
 1519 0190 FFF7FEFF 		bl	__aeabi_fcmpgt
 1520              	.LVL117:
 1521 0194 0028     		cmp	r0, #0
 1522 0196 04D1     		bne	.L61
 1523 0198 06E0     		b	.L62
 1524              	.LVL118:
 1525              	.L116:
 842:functions.c   **** 		BaleDiaExtDisplayPercent = 0.0; // Limiting to 0.0%
 1526              		.loc 1 842 0
 1527 019a 0022     		mov	r2, #0
 1528 019c 8D4B     		ldr	r3, .L117+52
 1529 019e 1A60     		str	r2, [r3]
 1530 01a0 02E0     		b	.L62
 1531              	.LVL119:
 1532              	.L61:
 844:functions.c   **** 		BaleDiaExtDisplayPercent = 100.0; // Limiting to 100.0%
 1533              		.loc 1 844 0
 1534 01a2 884A     		ldr	r2, .L117+36
 1535 01a4 8B4B     		ldr	r3, .L117+52
 1536 01a6 1A60     		str	r2, [r3]
 1537              	.L62:
 845:functions.c   **** 
 846:functions.c   **** 
 847:functions.c   **** 	// Formation diameter voltage = % Upper diameter limit of 'Formation' stage * 100 % range from 0cm
 848:functions.c   **** 	DiaFormationVolts = ((float)pFac.pf.GW302_FormationDiameter[pFac.pf.GW302_BaleProfile] * ((DiaMaxV
 1538              		.loc 1 848 0
 1539 01a8 301C     		add	r0, r6, #0
 1540 01aa 5946     		mov	r1, fp
 1541 01ac FFF7FEFF 		bl	__aeabi_fsub
 1542              	.LVL120:
 1543 01b0 FFF7FEFF 		bl	__aeabi_f2d
 1544              	.LVL121:
 1545 01b4 7C4A     		ldr	r2, .L117+8
 1546 01b6 7D4B     		ldr	r3, .L117+12
 1547 01b8 FFF7FEFF 		bl	__aeabi_ddiv
 1548              	.LVL122:
 1549 01bc 061C     		mov	r6, r0
 1550 01be 0F1C     		mov	r7, r1
 1551 01c0 5846     		mov	r0, fp
 1552 01c2 FFF7FEFF 		bl	__aeabi_f2d
 1553              	.LVL123:
 1554 01c6 041C     		mov	r4, r0
 1555 01c8 0D1C     		mov	r5, r1
 1556 01ca 794A     		ldr	r2, .L117+16
 1557 01cc 9046     		mov	r8, r2
 1558 01ce D044     		add	r8, r8, sl
 1559 01d0 4346     		mov	r3, r8
 1560 01d2 0933     		add	r3, r3, #9
 1561 01d4 FF33     		add	r3, r3, #255
 1562 01d6 5878     		ldrb	r0, [r3, #1]
 1563 01d8 FFF7FEFF 		bl	__aeabi_ui2f
 1564              	.LVL124:
 1565 01dc FFF7FEFF 		bl	__aeabi_f2d
 1566              	.LVL125:
 1567 01e0 321C     		mov	r2, r6
 1568 01e2 3B1C     		mov	r3, r7
 1569 01e4 FFF7FEFF 		bl	__aeabi_dmul
 1570              	.LVL126:
 1571 01e8 221C     		mov	r2, r4
 1572 01ea 2B1C     		mov	r3, r5
 1573 01ec FFF7FEFF 		bl	__aeabi_dadd
 1574              	.LVL127:
 1575 01f0 FFF7FEFF 		bl	__aeabi_d2f
 1576              	.LVL128:
 1577 01f4 784B     		ldr	r3, .L117+56
 1578 01f6 1860     		str	r0, [r3]
 849:functions.c   **** 
 850:functions.c   **** 	// Formation2 diameter voltage = % Upper diameter limit of 'Formation2' stage * 100 % range from 0
 851:functions.c   **** 	DiaFormation2Volts = ((float)pFac.pf.GW302_Formation2Diameter[pFac.pf.GW302_BaleProfile] * ((DiaMa
 1579              		.loc 1 851 0
 1580 01f8 4346     		mov	r3, r8
 1581 01fa 1133     		add	r3, r3, #17
 1582 01fc FF33     		add	r3, r3, #255
 1583 01fe D878     		ldrb	r0, [r3, #3]
 1584 0200 FFF7FEFF 		bl	__aeabi_ui2f
 1585              	.LVL129:
 1586 0204 FFF7FEFF 		bl	__aeabi_f2d
 1587              	.LVL130:
 1588 0208 021C     		mov	r2, r0
 1589 020a 0B1C     		mov	r3, r1
 1590 020c 301C     		mov	r0, r6
 1591 020e 391C     		mov	r1, r7
 1592 0210 FFF7FEFF 		bl	__aeabi_dmul
 1593              	.LVL131:
 1594 0214 021C     		mov	r2, r0
 1595 0216 0B1C     		mov	r3, r1
 1596 0218 201C     		mov	r0, r4
 1597 021a 291C     		mov	r1, r5
 1598 021c FFF7FEFF 		bl	__aeabi_dadd
 1599              	.LVL132:
 1600 0220 FFF7FEFF 		bl	__aeabi_d2f
 1601              	.LVL133:
 1602 0224 6D4B     		ldr	r3, .L117+60
 1603 0226 1860     		str	r0, [r3]
 852:functions.c   **** 
 853:functions.c   **** 	// Core diameter voltage = ( (Core setting in cm - 60cm) x Volts per setting division  ) + Minimum
 854:functions.c   **** 	DiaCoreVolts = ((float)(pFac.pf.GW302_CoreDiameter[pFac.pf.GW302_BaleProfile] - 60) * DiaVoltsPerS
 1604              		.loc 1 854 0
 1605 0228 4023     		mov	r3, #64
 1606 022a 9844     		add	r8, r8, r3
 1607 022c 4246     		mov	r2, r8
 1608 022e 1078     		ldrb	r0, [r2]
 1609 0230 3C38     		sub	r0, r0, #60
 1610 0232 FFF7FEFF 		bl	__aeabi_i2f
 1611              	.LVL134:
 1612 0236 0199     		ldr	r1, [sp, #4]
 1613 0238 FFF7FEFF 		bl	__aeabi_fmul
 1614              	.LVL135:
 1615 023c 011C     		add	r1, r0, #0
 1616 023e 4846     		mov	r0, r9
 1617 0240 FFF7FEFF 		bl	__aeabi_fadd
 1618              	.LVL136:
 1619 0244 664B     		ldr	r3, .L117+64
 1620 0246 1860     		str	r0, [r3]
 855:functions.c   **** 
 856:functions.c   **** 	// Engage diameter voltage = Engage % setting x Target diameter voltage (from Zero pot voltage)
 857:functions.c   **** 	DiaEngageVolts = ((float)pFac.pf.GW302_EngageDiameter * ((DiaTargetVolts - DiaZeroVolts) / 100.0))
 1621              		.loc 1 857 0
 1622 0248 0098     		ldr	r0, [sp]
 1623 024a 5946     		mov	r1, fp
 1624 024c FFF7FEFF 		bl	__aeabi_fsub
 1625              	.LVL137:
 1626 0250 FFF7FEFF 		bl	__aeabi_f2d
 1627              	.LVL138:
 1628 0254 544A     		ldr	r2, .L117+8
 1629 0256 554B     		ldr	r3, .L117+12
 1630 0258 FFF7FEFF 		bl	__aeabi_ddiv
 1631              	.LVL139:
 1632 025c 061C     		mov	r6, r0
 1633 025e 0F1C     		mov	r7, r1
 1634 0260 9C23     		mov	r3, #156
 1635 0262 534A     		ldr	r2, .L117+16
 1636 0264 D05C     		ldrb	r0, [r2, r3]
 1637 0266 FFF7FEFF 		bl	__aeabi_ui2f
 1638              	.LVL140:
 1639 026a FFF7FEFF 		bl	__aeabi_f2d
 1640              	.LVL141:
 1641 026e 321C     		mov	r2, r6
 1642 0270 3B1C     		mov	r3, r7
 1643 0272 FFF7FEFF 		bl	__aeabi_dmul
 1644              	.LVL142:
 1645 0276 021C     		mov	r2, r0
 1646 0278 0B1C     		mov	r3, r1
 1647 027a 201C     		mov	r0, r4
 1648 027c 291C     		mov	r1, r5
 1649 027e FFF7FEFF 		bl	__aeabi_dadd
 1650              	.LVL143:
 1651 0282 FFF7FEFF 		bl	__aeabi_d2f
 1652              	.LVL144:
 1653 0286 574B     		ldr	r3, .L117+68
 1654 0288 1860     		str	r0, [r3]
 858:functions.c   **** 
 859:functions.c   **** 	// Pre warning beep diameter voltage = Pre Warning Beep % setting x Target diameter voltage (from 
 860:functions.c   **** 	DiaPreWarnVolts = ((float)pFac.pf.GW302_PreWarningBeep * ((DiaTargetVolts - DiaZeroVolts) / 100.0)
 1655              		.loc 1 860 0
 1656 028a 7423     		mov	r3, #116
 1657 028c 484A     		ldr	r2, .L117+16
 1658 028e D05C     		ldrb	r0, [r2, r3]
 1659 0290 FFF7FEFF 		bl	__aeabi_ui2f
 1660              	.LVL145:
 1661 0294 FFF7FEFF 		bl	__aeabi_f2d
 1662              	.LVL146:
 1663 0298 021C     		mov	r2, r0
 1664 029a 0B1C     		mov	r3, r1
 1665 029c 301C     		mov	r0, r6
 1666 029e 391C     		mov	r1, r7
 1667 02a0 FFF7FEFF 		bl	__aeabi_dmul
 1668              	.LVL147:
 1669 02a4 021C     		mov	r2, r0
 1670 02a6 0B1C     		mov	r3, r1
 1671 02a8 201C     		mov	r0, r4
 1672 02aa 291C     		mov	r1, r5
 1673 02ac FFF7FEFF 		bl	__aeabi_dadd
 1674              	.LVL148:
 1675 02b0 FFF7FEFF 		bl	__aeabi_d2f
 1676              	.LVL149:
 1677 02b4 4C4B     		ldr	r3, .L117+72
 1678 02b6 1860     		str	r0, [r3]
 861:functions.c   **** 
 862:functions.c   **** 
 863:functions.c   **** 	// Target density voltage during Main stage
 864:functions.c   **** 	switch( pFac.pf.GW302_BaleDensity[pFac.pf.GW302_BaleProfile] )
 1679              		.loc 1 864 0
 1680 02b8 4246     		mov	r2, r8
 1681 02ba 5379     		ldrb	r3, [r2, #5]
 1682 02bc 092B     		cmp	r3, #9
 1683 02be 39D8     		bhi	.L63
 1684 02c0 9B00     		lsl	r3, r3, #2
 1685 02c2 4A4A     		ldr	r2, .L117+76
 1686 02c4 D358     		ldr	r3, [r2, r3]
 1687 02c6 9F46     		mov	pc, r3
 1688              		.section	.rodata.Inputs,"a",%progbits
 1689              		.align	2
 1690              	.L73:
 1691 0000 34030000 		.word	.L63
 1692 0004 C8020000 		.word	.L64
 1693 0008 D4020000 		.word	.L65
 1694 000c E0020000 		.word	.L66
 1695 0010 EC020000 		.word	.L67
 1696 0014 F8020000 		.word	.L68
 1697 0018 04030000 		.word	.L69
 1698 001c 10030000 		.word	.L70
 1699 0020 1C030000 		.word	.L71
 1700 0024 28030000 		.word	.L72
 1701              		.section	.text.Inputs
 1702              	.L64:
 865:functions.c   **** 	{
 866:functions.c   **** 	case 1:
 867:functions.c   **** 		DensityBaleVolts = pFac.pf.GW302_Density1;
 1703              		.loc 1 867 0
 1704 02c8 D023     		mov	r3, #208
 1705 02ca 394A     		ldr	r2, .L117+16
 1706 02cc D258     		ldr	r2, [r2, r3]
 1707 02ce 484B     		ldr	r3, .L117+80
 1708 02d0 1A60     		str	r2, [r3]
 868:functions.c   **** 		break;
 1709              		.loc 1 868 0
 1710 02d2 34E0     		b	.L74
 1711              	.L65:
 869:functions.c   **** 	case 2:
 870:functions.c   **** 		DensityBaleVolts = pFac.pf.GW302_Density2;
 1712              		.loc 1 870 0
 1713 02d4 D423     		mov	r3, #212
 1714 02d6 364A     		ldr	r2, .L117+16
 1715 02d8 D258     		ldr	r2, [r2, r3]
 1716 02da 454B     		ldr	r3, .L117+80
 1717 02dc 1A60     		str	r2, [r3]
 871:functions.c   **** 		break;
 1718              		.loc 1 871 0
 1719 02de 2EE0     		b	.L74
 1720              	.L66:
 872:functions.c   **** 	case 3:
 873:functions.c   **** 		DensityBaleVolts = pFac.pf.GW302_Density3;
 1721              		.loc 1 873 0
 1722 02e0 D823     		mov	r3, #216
 1723 02e2 334A     		ldr	r2, .L117+16
 1724 02e4 D258     		ldr	r2, [r2, r3]
 1725 02e6 424B     		ldr	r3, .L117+80
 1726 02e8 1A60     		str	r2, [r3]
 874:functions.c   **** 		break;
 1727              		.loc 1 874 0
 1728 02ea 28E0     		b	.L74
 1729              	.L67:
 875:functions.c   **** 	case 4:
 876:functions.c   **** 		DensityBaleVolts = pFac.pf.GW302_Density4;
 1730              		.loc 1 876 0
 1731 02ec DC23     		mov	r3, #220
 1732 02ee 304A     		ldr	r2, .L117+16
 1733 02f0 D258     		ldr	r2, [r2, r3]
 1734 02f2 3F4B     		ldr	r3, .L117+80
 1735 02f4 1A60     		str	r2, [r3]
 877:functions.c   **** 		break;
 1736              		.loc 1 877 0
 1737 02f6 22E0     		b	.L74
 1738              	.L68:
 878:functions.c   **** 	case 5:
 879:functions.c   **** 		DensityBaleVolts = pFac.pf.GW302_Density5;
 1739              		.loc 1 879 0
 1740 02f8 E023     		mov	r3, #224
 1741 02fa 2D4A     		ldr	r2, .L117+16
 1742 02fc D258     		ldr	r2, [r2, r3]
 1743 02fe 3C4B     		ldr	r3, .L117+80
 1744 0300 1A60     		str	r2, [r3]
 880:functions.c   **** 		break;
 1745              		.loc 1 880 0
 1746 0302 1CE0     		b	.L74
 1747              	.L69:
 881:functions.c   **** 	case 6:
 882:functions.c   **** 		DensityBaleVolts = pFac.pf.GW302_Density6;
 1748              		.loc 1 882 0
 1749 0304 E423     		mov	r3, #228
 1750 0306 2A4A     		ldr	r2, .L117+16
 1751 0308 D258     		ldr	r2, [r2, r3]
 1752 030a 394B     		ldr	r3, .L117+80
 1753 030c 1A60     		str	r2, [r3]
 883:functions.c   **** 		break;
 1754              		.loc 1 883 0
 1755 030e 16E0     		b	.L74
 1756              	.L70:
 884:functions.c   **** 	case 7:
 885:functions.c   **** 		DensityBaleVolts = pFac.pf.GW302_Density7;
 1757              		.loc 1 885 0
 1758 0310 E823     		mov	r3, #232
 1759 0312 274A     		ldr	r2, .L117+16
 1760 0314 D258     		ldr	r2, [r2, r3]
 1761 0316 364B     		ldr	r3, .L117+80
 1762 0318 1A60     		str	r2, [r3]
 886:functions.c   **** 		break;
 1763              		.loc 1 886 0
 1764 031a 10E0     		b	.L74
 1765              	.L71:
 887:functions.c   **** 	case 8:
 888:functions.c   **** 		DensityBaleVolts = pFac.pf.GW302_Density8;
 1766              		.loc 1 888 0
 1767 031c EC23     		mov	r3, #236
 1768 031e 244A     		ldr	r2, .L117+16
 1769 0320 D258     		ldr	r2, [r2, r3]
 1770 0322 334B     		ldr	r3, .L117+80
 1771 0324 1A60     		str	r2, [r3]
 889:functions.c   **** 		break;
 1772              		.loc 1 889 0
 1773 0326 0AE0     		b	.L74
 1774              	.L72:
 890:functions.c   **** 	case 9:
 891:functions.c   **** 		DensityBaleVolts = pFac.pf.GW302_Density9;
 1775              		.loc 1 891 0
 1776 0328 F023     		mov	r3, #240
 1777 032a 214A     		ldr	r2, .L117+16
 1778 032c D258     		ldr	r2, [r2, r3]
 1779 032e 304B     		ldr	r3, .L117+80
 1780 0330 1A60     		str	r2, [r3]
 892:functions.c   **** 		break;
 1781              		.loc 1 892 0
 1782 0332 04E0     		b	.L74
 1783              	.L63:
 893:functions.c   **** 	default: // 10
 894:functions.c   **** 	DensityBaleVolts = pFac.pf.GW302_Density10;
 1784              		.loc 1 894 0
 1785 0334 F423     		mov	r3, #244
 1786 0336 1E4A     		ldr	r2, .L117+16
 1787 0338 D258     		ldr	r2, [r2, r3]
 1788 033a 2D4B     		ldr	r3, .L117+80
 1789 033c 1A60     		str	r2, [r3]
 1790              	.L74:
 895:functions.c   **** 	break;
 896:functions.c   **** 	}
 897:functions.c   **** 
 898:functions.c   **** 	// Target density voltage during Core stage
 899:functions.c   **** 	switch( pFac.pf.GW302_CoreDensity[pFac.pf.GW302_BaleProfile] )
 1791              		.loc 1 899 0
 1792 033e 1C4B     		ldr	r3, .L117+16
 1793 0340 5344     		add	r3, r3, sl
 1794 0342 4833     		add	r3, r3, #72
 1795 0344 9A78     		ldrb	r2, [r3, #2]
 1796 0346 092A     		cmp	r2, #9
 1797 0348 6AD8     		bhi	.L75
 1798 034a 9300     		lsl	r3, r2, #2
 1799 034c 294A     		ldr	r2, .L117+84
 1800 034e D358     		ldr	r3, [r2, r3]
 1801 0350 9F46     		mov	pc, r3
 1802              		.section	.rodata.Inputs
 1803              		.align	2
 1804              	.L85:
 1805 0028 20040000 		.word	.L75
 1806 002c 52030000 		.word	.L76
 1807 0030 5E030000 		.word	.L77
 1808 0034 6A030000 		.word	.L78
 1809 0038 76030000 		.word	.L79
 1810 003c 82030000 		.word	.L80
 1811 0040 8E030000 		.word	.L81
 1812 0044 FC030000 		.word	.L82
 1813 0048 08040000 		.word	.L83
 1814 004c 14040000 		.word	.L84
 1815              		.section	.text.Inputs
 1816              	.L76:
 900:functions.c   **** 	{
 901:functions.c   **** 	case 1:
 902:functions.c   **** 		DensityCoreVolts = pFac.pf.GW302_Density1;
 1817              		.loc 1 902 0
 1818 0352 D023     		mov	r3, #208
 1819 0354 164A     		ldr	r2, .L117+16
 1820 0356 D258     		ldr	r2, [r2, r3]
 1821 0358 274B     		ldr	r3, .L117+88
 1822 035a 1A60     		str	r2, [r3]
 903:functions.c   **** 		break;
 1823              		.loc 1 903 0
 1824 035c 65E0     		b	.L86
 1825              	.L77:
 904:functions.c   **** 	case 2:
 905:functions.c   **** 		DensityCoreVolts = pFac.pf.GW302_Density2;
 1826              		.loc 1 905 0
 1827 035e D423     		mov	r3, #212
 1828 0360 134A     		ldr	r2, .L117+16
 1829 0362 D258     		ldr	r2, [r2, r3]
 1830 0364 244B     		ldr	r3, .L117+88
 1831 0366 1A60     		str	r2, [r3]
 906:functions.c   **** 		break;
 1832              		.loc 1 906 0
 1833 0368 5FE0     		b	.L86
 1834              	.L78:
 907:functions.c   **** 	case 3:
 908:functions.c   **** 		DensityCoreVolts = pFac.pf.GW302_Density3;
 1835              		.loc 1 908 0
 1836 036a D823     		mov	r3, #216
 1837 036c 104A     		ldr	r2, .L117+16
 1838 036e D258     		ldr	r2, [r2, r3]
 1839 0370 214B     		ldr	r3, .L117+88
 1840 0372 1A60     		str	r2, [r3]
 909:functions.c   **** 		break;
 1841              		.loc 1 909 0
 1842 0374 59E0     		b	.L86
 1843              	.L79:
 910:functions.c   **** 	case 4:
 911:functions.c   **** 		DensityCoreVolts = pFac.pf.GW302_Density4;
 1844              		.loc 1 911 0
 1845 0376 DC23     		mov	r3, #220
 1846 0378 0D4A     		ldr	r2, .L117+16
 1847 037a D258     		ldr	r2, [r2, r3]
 1848 037c 1E4B     		ldr	r3, .L117+88
 1849 037e 1A60     		str	r2, [r3]
 912:functions.c   **** 		break;
 1850              		.loc 1 912 0
 1851 0380 53E0     		b	.L86
 1852              	.L80:
 913:functions.c   **** 	case 5:
 914:functions.c   **** 		DensityCoreVolts = pFac.pf.GW302_Density5;
 1853              		.loc 1 914 0
 1854 0382 E023     		mov	r3, #224
 1855 0384 0A4A     		ldr	r2, .L117+16
 1856 0386 D258     		ldr	r2, [r2, r3]
 1857 0388 1B4B     		ldr	r3, .L117+88
 1858 038a 1A60     		str	r2, [r3]
 915:functions.c   **** 		break;
 1859              		.loc 1 915 0
 1860 038c 4DE0     		b	.L86
 1861              	.L81:
 916:functions.c   **** 	case 6:
 917:functions.c   **** 		DensityCoreVolts = pFac.pf.GW302_Density6;
 1862              		.loc 1 917 0
 1863 038e E423     		mov	r3, #228
 1864 0390 074A     		ldr	r2, .L117+16
 1865 0392 D258     		ldr	r2, [r2, r3]
 1866 0394 184B     		ldr	r3, .L117+88
 1867 0396 1A60     		str	r2, [r3]
 918:functions.c   **** 		break;
 1868              		.loc 1 918 0
 1869 0398 47E0     		b	.L86
 1870              	.L118:
 1871 039a C046C046 		.align	3
 1871      C046
 1872              	.L117:
 1873 03a0 39B4C876 		.word	1992864825
 1874 03a4 BE9F8A3F 		.word	1066049470
 1875 03a8 00000000 		.word	0
 1876 03ac 00005940 		.word	1079574528
 1877 03b0 00000000 		.word	.LANCHOR0
 1878 03b4 00000000 		.word	DiaMinVolts
 1879 03b8 00000000 		.word	DiaMaxVolts
 1880 03bc 0000D842 		.word	1121452032
 1881 03c0 00000000 		.word	DiaTargetVolts
 1882 03c4 0000C842 		.word	1120403456
 1883 03c8 00000000 		.word	DiaMinExtDisplayPercent
 1884 03cc 00000000 		.word	DiaTargetExtDisplayPercent
 1885 03d0 00000000 		.word	BaleDiaVolts
 1886 03d4 00000000 		.word	BaleDiaExtDisplayPercent
 1887 03d8 00000000 		.word	DiaFormationVolts
 1888 03dc 00000000 		.word	DiaFormation2Volts
 1889 03e0 00000000 		.word	DiaCoreVolts
 1890 03e4 00000000 		.word	DiaEngageVolts
 1891 03e8 00000000 		.word	DiaPreWarnVolts
 1892 03ec 00000000 		.word	.L73
 1893 03f0 00000000 		.word	DensityBaleVolts
 1894 03f4 28000000 		.word	.L85
 1895 03f8 00000000 		.word	DensityCoreVolts
 1896              	.L82:
 919:functions.c   **** 	case 7:
 920:functions.c   **** 		DensityCoreVolts = pFac.pf.GW302_Density7;
 1897              		.loc 1 920 0
 1898 03fc E823     		mov	r3, #232
 1899 03fe 554A     		ldr	r2, .L119
 1900 0400 D258     		ldr	r2, [r2, r3]
 1901 0402 554B     		ldr	r3, .L119+4
 1902 0404 1A60     		str	r2, [r3]
 921:functions.c   **** 		break;
 1903              		.loc 1 921 0
 1904 0406 10E0     		b	.L86
 1905              	.L83:
 922:functions.c   **** 	case 8:
 923:functions.c   **** 		DensityCoreVolts = pFac.pf.GW302_Density8;
 1906              		.loc 1 923 0
 1907 0408 EC23     		mov	r3, #236
 1908 040a 524A     		ldr	r2, .L119
 1909 040c D258     		ldr	r2, [r2, r3]
 1910 040e 524B     		ldr	r3, .L119+4
 1911 0410 1A60     		str	r2, [r3]
 924:functions.c   **** 		break;
 1912              		.loc 1 924 0
 1913 0412 0AE0     		b	.L86
 1914              	.L84:
 925:functions.c   **** 	case 9:
 926:functions.c   **** 		DensityCoreVolts = pFac.pf.GW302_Density9;
 1915              		.loc 1 926 0
 1916 0414 F023     		mov	r3, #240
 1917 0416 4F4A     		ldr	r2, .L119
 1918 0418 D258     		ldr	r2, [r2, r3]
 1919 041a 4F4B     		ldr	r3, .L119+4
 1920 041c 1A60     		str	r2, [r3]
 927:functions.c   **** 		break;
 1921              		.loc 1 927 0
 1922 041e 04E0     		b	.L86
 1923              	.L75:
 928:functions.c   **** 	default: // 10
 929:functions.c   **** 	DensityCoreVolts = pFac.pf.GW302_Density10;
 1924              		.loc 1 929 0
 1925 0420 F423     		mov	r3, #244
 1926 0422 4C4A     		ldr	r2, .L119
 1927 0424 D258     		ldr	r2, [r2, r3]
 1928 0426 4C4B     		ldr	r3, .L119+4
 1929 0428 1A60     		str	r2, [r3]
 1930              	.L86:
 930:functions.c   **** 	break;
 931:functions.c   **** 	}
 932:functions.c   **** 
 933:functions.c   **** 	// Target density voltage during Formation2 stage
 934:functions.c   **** 	switch( pFac.pf.GW302_Formation2Density[pFac.pf.GW302_BaleProfile] )
 1931              		.loc 1 934 0
 1932 042a 4A4B     		ldr	r3, .L119
 1933 042c 5344     		add	r3, r3, sl
 1934 042e 0933     		add	r3, r3, #9
 1935 0430 FF33     		add	r3, r3, #255
 1936 0432 9A79     		ldrb	r2, [r3, #6]
 1937 0434 092A     		cmp	r2, #9
 1938 0436 39D8     		bhi	.L87
 1939 0438 9300     		lsl	r3, r2, #2
 1940 043a 484A     		ldr	r2, .L119+8
 1941 043c D358     		ldr	r3, [r2, r3]
 1942 043e 9F46     		mov	pc, r3
 1943              		.section	.rodata.Inputs
 1944              		.align	2
 1945              	.L97:
 1946 0050 AC040000 		.word	.L87
 1947 0054 40040000 		.word	.L88
 1948 0058 4C040000 		.word	.L89
 1949 005c 58040000 		.word	.L90
 1950 0060 64040000 		.word	.L91
 1951 0064 70040000 		.word	.L92
 1952 0068 7C040000 		.word	.L93
 1953 006c 88040000 		.word	.L94
 1954 0070 94040000 		.word	.L95
 1955 0074 A0040000 		.word	.L96
 1956              		.section	.text.Inputs
 1957              	.L88:
 935:functions.c   **** 	{
 936:functions.c   **** 	case 1:
 937:functions.c   **** 		DensityFormation2Volts = pFac.pf.GW302_Density1;
 1958              		.loc 1 937 0
 1959 0440 D023     		mov	r3, #208
 1960 0442 444A     		ldr	r2, .L119
 1961 0444 D258     		ldr	r2, [r2, r3]
 1962 0446 464B     		ldr	r3, .L119+12
 1963 0448 1A60     		str	r2, [r3]
 938:functions.c   **** 		break;
 1964              		.loc 1 938 0
 1965 044a 34E0     		b	.L98
 1966              	.L89:
 939:functions.c   **** 	case 2:
 940:functions.c   **** 		DensityFormation2Volts = pFac.pf.GW302_Density2;
 1967              		.loc 1 940 0
 1968 044c D423     		mov	r3, #212
 1969 044e 414A     		ldr	r2, .L119
 1970 0450 D258     		ldr	r2, [r2, r3]
 1971 0452 434B     		ldr	r3, .L119+12
 1972 0454 1A60     		str	r2, [r3]
 941:functions.c   **** 		break;
 1973              		.loc 1 941 0
 1974 0456 2EE0     		b	.L98
 1975              	.L90:
 942:functions.c   **** 	case 3:
 943:functions.c   **** 		DensityFormation2Volts = pFac.pf.GW302_Density3;
 1976              		.loc 1 943 0
 1977 0458 D823     		mov	r3, #216
 1978 045a 3E4A     		ldr	r2, .L119
 1979 045c D258     		ldr	r2, [r2, r3]
 1980 045e 404B     		ldr	r3, .L119+12
 1981 0460 1A60     		str	r2, [r3]
 944:functions.c   **** 		break;
 1982              		.loc 1 944 0
 1983 0462 28E0     		b	.L98
 1984              	.L91:
 945:functions.c   **** 	case 4:
 946:functions.c   **** 		DensityFormation2Volts = pFac.pf.GW302_Density4;
 1985              		.loc 1 946 0
 1986 0464 DC23     		mov	r3, #220
 1987 0466 3B4A     		ldr	r2, .L119
 1988 0468 D258     		ldr	r2, [r2, r3]
 1989 046a 3D4B     		ldr	r3, .L119+12
 1990 046c 1A60     		str	r2, [r3]
 947:functions.c   **** 		break;
 1991              		.loc 1 947 0
 1992 046e 22E0     		b	.L98
 1993              	.L92:
 948:functions.c   **** 	case 5:
 949:functions.c   **** 		DensityFormation2Volts = pFac.pf.GW302_Density5;
 1994              		.loc 1 949 0
 1995 0470 E023     		mov	r3, #224
 1996 0472 384A     		ldr	r2, .L119
 1997 0474 D258     		ldr	r2, [r2, r3]
 1998 0476 3A4B     		ldr	r3, .L119+12
 1999 0478 1A60     		str	r2, [r3]
 950:functions.c   **** 		break;
 2000              		.loc 1 950 0
 2001 047a 1CE0     		b	.L98
 2002              	.L93:
 951:functions.c   **** 	case 6:
 952:functions.c   **** 		DensityFormation2Volts = pFac.pf.GW302_Density6;
 2003              		.loc 1 952 0
 2004 047c E423     		mov	r3, #228
 2005 047e 354A     		ldr	r2, .L119
 2006 0480 D258     		ldr	r2, [r2, r3]
 2007 0482 374B     		ldr	r3, .L119+12
 2008 0484 1A60     		str	r2, [r3]
 953:functions.c   **** 		break;
 2009              		.loc 1 953 0
 2010 0486 16E0     		b	.L98
 2011              	.L94:
 954:functions.c   **** 	case 7:
 955:functions.c   **** 		DensityFormation2Volts = pFac.pf.GW302_Density7;
 2012              		.loc 1 955 0
 2013 0488 E823     		mov	r3, #232
 2014 048a 324A     		ldr	r2, .L119
 2015 048c D258     		ldr	r2, [r2, r3]
 2016 048e 344B     		ldr	r3, .L119+12
 2017 0490 1A60     		str	r2, [r3]
 956:functions.c   **** 		break;
 2018              		.loc 1 956 0
 2019 0492 10E0     		b	.L98
 2020              	.L95:
 957:functions.c   **** 	case 8:
 958:functions.c   **** 		DensityFormation2Volts = pFac.pf.GW302_Density8;
 2021              		.loc 1 958 0
 2022 0494 EC23     		mov	r3, #236
 2023 0496 2F4A     		ldr	r2, .L119
 2024 0498 D258     		ldr	r2, [r2, r3]
 2025 049a 314B     		ldr	r3, .L119+12
 2026 049c 1A60     		str	r2, [r3]
 959:functions.c   **** 		break;
 2027              		.loc 1 959 0
 2028 049e 0AE0     		b	.L98
 2029              	.L96:
 960:functions.c   **** 	case 9:
 961:functions.c   **** 		DensityFormation2Volts = pFac.pf.GW302_Density9;
 2030              		.loc 1 961 0
 2031 04a0 F023     		mov	r3, #240
 2032 04a2 2C4A     		ldr	r2, .L119
 2033 04a4 D258     		ldr	r2, [r2, r3]
 2034 04a6 2E4B     		ldr	r3, .L119+12
 2035 04a8 1A60     		str	r2, [r3]
 962:functions.c   **** 		break;
 2036              		.loc 1 962 0
 2037 04aa 04E0     		b	.L98
 2038              	.L87:
 963:functions.c   **** 	default: // 10
 964:functions.c   **** 	DensityFormation2Volts = pFac.pf.GW302_Density10;
 2039              		.loc 1 964 0
 2040 04ac F423     		mov	r3, #244
 2041 04ae 294A     		ldr	r2, .L119
 2042 04b0 D258     		ldr	r2, [r2, r3]
 2043 04b2 2B4B     		ldr	r3, .L119+12
 2044 04b4 1A60     		str	r2, [r3]
 2045              	.L98:
 965:functions.c   **** 	break;
 966:functions.c   **** 	}
 967:functions.c   **** 
 968:functions.c   **** 	// Target density voltage during Formation stage
 969:functions.c   **** 	switch( pFac.pf.GW302_FormationDensity[pFac.pf.GW302_BaleProfile] )
 2046              		.loc 1 969 0
 2047 04b6 274B     		ldr	r3, .L119
 2048 04b8 5344     		add	r3, r3, sl
 2049 04ba 0133     		add	r3, r3, #1
 2050 04bc FF33     		add	r3, r3, #255
 2051 04be 1A79     		ldrb	r2, [r3, #4]
 2052 04c0 092A     		cmp	r2, #9
 2053 04c2 39D8     		bhi	.L99
 2054 04c4 9300     		lsl	r3, r2, #2
 2055 04c6 274A     		ldr	r2, .L119+16
 2056 04c8 D358     		ldr	r3, [r2, r3]
 2057 04ca 9F46     		mov	pc, r3
 2058              		.section	.rodata.Inputs
 2059              		.align	2
 2060              	.L109:
 2061 0078 38050000 		.word	.L99
 2062 007c CC040000 		.word	.L100
 2063 0080 D8040000 		.word	.L101
 2064 0084 E4040000 		.word	.L102
 2065 0088 F0040000 		.word	.L103
 2066 008c FC040000 		.word	.L104
 2067 0090 08050000 		.word	.L105
 2068 0094 14050000 		.word	.L106
 2069 0098 20050000 		.word	.L107
 2070 009c 2C050000 		.word	.L108
 2071              		.section	.text.Inputs
 2072              	.L100:
 970:functions.c   **** 	{
 971:functions.c   **** 	case 1:
 972:functions.c   **** 		DensityFormationVolts = pFac.pf.GW302_Density1;
 2073              		.loc 1 972 0
 2074 04cc D023     		mov	r3, #208
 2075 04ce 214A     		ldr	r2, .L119
 2076 04d0 D258     		ldr	r2, [r2, r3]
 2077 04d2 254B     		ldr	r3, .L119+20
 2078 04d4 1A60     		str	r2, [r3]
 973:functions.c   **** 		break;
 2079              		.loc 1 973 0
 2080 04d6 34E0     		b	.L50
 2081              	.L101:
 974:functions.c   **** 	case 2:
 975:functions.c   **** 		DensityFormationVolts = pFac.pf.GW302_Density2;
 2082              		.loc 1 975 0
 2083 04d8 D423     		mov	r3, #212
 2084 04da 1E4A     		ldr	r2, .L119
 2085 04dc D258     		ldr	r2, [r2, r3]
 2086 04de 224B     		ldr	r3, .L119+20
 2087 04e0 1A60     		str	r2, [r3]
 976:functions.c   **** 		break;
 2088              		.loc 1 976 0
 2089 04e2 2EE0     		b	.L50
 2090              	.L102:
 977:functions.c   **** 	case 3:
 978:functions.c   **** 		DensityFormationVolts = pFac.pf.GW302_Density3;
 2091              		.loc 1 978 0
 2092 04e4 D823     		mov	r3, #216
 2093 04e6 1B4A     		ldr	r2, .L119
 2094 04e8 D258     		ldr	r2, [r2, r3]
 2095 04ea 1F4B     		ldr	r3, .L119+20
 2096 04ec 1A60     		str	r2, [r3]
 979:functions.c   **** 		break;
 2097              		.loc 1 979 0
 2098 04ee 28E0     		b	.L50
 2099              	.L103:
 980:functions.c   **** 	case 4:
 981:functions.c   **** 		DensityFormationVolts = pFac.pf.GW302_Density4;
 2100              		.loc 1 981 0
 2101 04f0 DC23     		mov	r3, #220
 2102 04f2 184A     		ldr	r2, .L119
 2103 04f4 D258     		ldr	r2, [r2, r3]
 2104 04f6 1C4B     		ldr	r3, .L119+20
 2105 04f8 1A60     		str	r2, [r3]
 982:functions.c   **** 		break;
 2106              		.loc 1 982 0
 2107 04fa 22E0     		b	.L50
 2108              	.L104:
 983:functions.c   **** 	case 5:
 984:functions.c   **** 		DensityFormationVolts = pFac.pf.GW302_Density5;
 2109              		.loc 1 984 0
 2110 04fc E023     		mov	r3, #224
 2111 04fe 154A     		ldr	r2, .L119
 2112 0500 D258     		ldr	r2, [r2, r3]
 2113 0502 194B     		ldr	r3, .L119+20
 2114 0504 1A60     		str	r2, [r3]
 985:functions.c   **** 		break;
 2115              		.loc 1 985 0
 2116 0506 1CE0     		b	.L50
 2117              	.L105:
 986:functions.c   **** 	case 6:
 987:functions.c   **** 		DensityFormationVolts = pFac.pf.GW302_Density6;
 2118              		.loc 1 987 0
 2119 0508 E423     		mov	r3, #228
 2120 050a 124A     		ldr	r2, .L119
 2121 050c D258     		ldr	r2, [r2, r3]
 2122 050e 164B     		ldr	r3, .L119+20
 2123 0510 1A60     		str	r2, [r3]
 988:functions.c   **** 		break;
 2124              		.loc 1 988 0
 2125 0512 16E0     		b	.L50
 2126              	.L106:
 989:functions.c   **** 	case 7:
 990:functions.c   **** 		DensityFormationVolts = pFac.pf.GW302_Density7;
 2127              		.loc 1 990 0
 2128 0514 E823     		mov	r3, #232
 2129 0516 0F4A     		ldr	r2, .L119
 2130 0518 D258     		ldr	r2, [r2, r3]
 2131 051a 134B     		ldr	r3, .L119+20
 2132 051c 1A60     		str	r2, [r3]
 991:functions.c   **** 		break;
 2133              		.loc 1 991 0
 2134 051e 10E0     		b	.L50
 2135              	.L107:
 992:functions.c   **** 	case 8:
 993:functions.c   **** 		DensityFormationVolts = pFac.pf.GW302_Density8;
 2136              		.loc 1 993 0
 2137 0520 EC23     		mov	r3, #236
 2138 0522 0C4A     		ldr	r2, .L119
 2139 0524 D258     		ldr	r2, [r2, r3]
 2140 0526 104B     		ldr	r3, .L119+20
 2141 0528 1A60     		str	r2, [r3]
 994:functions.c   **** 		break;
 2142              		.loc 1 994 0
 2143 052a 0AE0     		b	.L50
 2144              	.L108:
 995:functions.c   **** 	case 9:
 996:functions.c   **** 		DensityFormationVolts = pFac.pf.GW302_Density9;
 2145              		.loc 1 996 0
 2146 052c F023     		mov	r3, #240
 2147 052e 094A     		ldr	r2, .L119
 2148 0530 D258     		ldr	r2, [r2, r3]
 2149 0532 0D4B     		ldr	r3, .L119+20
 2150 0534 1A60     		str	r2, [r3]
 997:functions.c   **** 		break;
 2151              		.loc 1 997 0
 2152 0536 04E0     		b	.L50
 2153              	.L99:
 998:functions.c   **** 	default: // 10
 999:functions.c   **** 	DensityFormationVolts = pFac.pf.GW302_Density10;
 2154              		.loc 1 999 0
 2155 0538 F423     		mov	r3, #244
 2156 053a 064A     		ldr	r2, .L119
 2157 053c D258     		ldr	r2, [r2, r3]
 2158 053e 0A4B     		ldr	r3, .L119+20
 2159 0540 1A60     		str	r2, [r3]
 2160              	.L50:
1000:functions.c   **** 	break;
1001:functions.c   **** 	}
1002:functions.c   **** 
1003:functions.c   **** 
1004:functions.c   **** #if 0 // Testing - intermediate inputs & outputs
1005:functions.c   **** 
1006:functions.c   **** 	sprintf( tstring, "VP=%6.5fV", DiaVoltsPer1PercentFullRange ); // Calculated
1007:functions.c   **** 	display_f1_text( tstring, TSMAX, 2, 8, FIXED );
1008:functions.c   **** 	sprintf( tstring, "CN=%6.5fV", DiaCorrectionNudgeVolts ); // Calculated
1009:functions.c   **** 	display_f1_text( tstring, TSMAX, 2, 18, FIXED );
1010:functions.c   **** 	sprintf( tstring, "MI=%6.5fV", DiaMinVolts ); // Calculated
1011:functions.c   **** 	display_f1_text( tstring, TSMAX, 2, 28, FIXED );
1012:functions.c   **** 	sprintf( tstring, "MA=%6.5fV", DiaMaxVolts ); // Calculated
1013:functions.c   **** 	display_f1_text( tstring, TSMAX, 2, 38, FIXED );
1014:functions.c   **** 	sprintf( tstring, "PS=%6.5fV", DiaVoltsPerSetting ); // Calculated
1015:functions.c   **** 	display_f1_text( tstring, TSMAX, 2, 48, FIXED );
1016:functions.c   **** 	sprintf( tstring, "PP=%6.5fV", DiaVoltsPer1PercentDisplayRange ); // Calculated
1017:functions.c   **** 	display_f1_text( tstring, TSMAX, 2, 58, FIXED );
1018:functions.c   **** #endif
1019:functions.c   **** 
1020:functions.c   **** #if 0 // Testing - intermediate inputs & outputs
1021:functions.c   **** 
1022:functions.c   **** 	sprintf( tstring, "ZV=%6.5fV", DiaZeroVolts ); // Calculated
1023:functions.c   **** 	display_f1_text( tstring, TSMAX, 2, 8, FIXED );
1024:functions.c   **** 	sprintf( tstring, "FV=%6.5fV", DiaFormationVolts ); // Calculated
1025:functions.c   **** 	display_f1_text( tstring, TSMAX, 2, 18, FIXED );
1026:functions.c   **** 	sprintf( tstring, "F2=%6.5fV", DiaFormation2Volts ); // Calculated
1027:functions.c   **** 	display_f1_text( tstring, TSMAX, 2, 28, FIXED );
1028:functions.c   **** 	sprintf( tstring, "CV=%6.5fV", DiaCoreVolts ); // Calculated
1029:functions.c   **** 	display_f1_text( tstring, TSMAX, 2, 38, FIXED );
1030:functions.c   **** 	sprintf( tstring, "EV=%6.5fV", DiaEngageVolts ); // Calculated
1031:functions.c   **** 	display_f1_text( tstring, TSMAX, 2, 48, FIXED );
1032:functions.c   **** 	sprintf( tstring, "PW=%6.5fV", DiaPreWarnVolts ); // Calculated
1033:functions.c   **** 	display_f1_text( tstring, TSMAX, 2, 58, FIXED );
1034:functions.c   **** 
1035:functions.c   **** #endif
1036:functions.c   **** 
1037:functions.c   **** #if 0 // Testing - intermediate inputs & outputs
1038:functions.c   **** 
1039:functions.c   **** 	sprintf( tstring, "BD=%6.5fV", DensityBaleVolts ); // Set
1040:functions.c   **** 	display_f1_text( tstring, TSMAX, 2, 8, FIXED );
1041:functions.c   **** 	sprintf( tstring, "CD=%6.5fV", DensityCoreVolts ); // Set
1042:functions.c   **** 	display_f1_text( tstring, TSMAX, 2, 18, FIXED );
1043:functions.c   **** 	sprintf( tstring, "F2=%6.5fV", DensityFormation2Volts ); // Set
1044:functions.c   **** 	display_f1_text( tstring, TSMAX, 2, 28, FIXED );
1045:functions.c   **** 	sprintf( tstring, "FD=%6.5fV", DensityFormationVolts ); // Set
1046:functions.c   **** 	display_f1_text( tstring, TSMAX, 2, 38, FIXED );
1047:functions.c   **** 	sprintf( tstring, "On8=%02u Off8=%02u On2=%02u", OP8OnDelayTime, OP8OffDelayTime, OP2OnDelayTime);
1048:functions.c   **** 	display_f1_text( tstring, TSMAX, 2, 48, FIXED );
1049:functions.c   **** 	sprintf( tstring, "DV=%6.5fV", DensityPresVolts ); // Input
1050:functions.c   **** 	display_f1_text( tstring, TSMAX, 2, 58, FIXED );
1051:functions.c   **** #endif
1052:functions.c   **** 
1053:functions.c   **** #if 0 // Testing - main inputs & outputs
1054:functions.c   **** 
1055:functions.c   **** 	//sprintf( tstring, "ST=%02X SC=%02X", Stage, stagecomp );
1056:functions.c   **** 	//display_f1_text( tstring, TSMAX, 2, 68, FIXED );
1057:functions.c   **** 
1058:functions.c   **** 	sprintf( tstring, "DiMaV=%3.2fV", DiaMaxVolts ); // Calculated
1059:functions.c   **** 	display_f1_text( tstring, TSMAX, 2, 8, FIXED );
1060:functions.c   **** 
1061:functions.c   **** 	sprintf( tstring, "DTarV=%3.2fV", DiaTargetVolts );     // Calculated
1062:functions.c   **** 	display_f1_text( tstring, TSMAX, 2, 18, FIXED );
1063:functions.c   **** 
1064:functions.c   **** 	sprintf( tstring, "DiMiV=%3.2fV", DiaMinVolts ); // Calculated
1065:functions.c   **** 	display_f1_text( tstring, TSMAX, 2, 38, FIXED );
1066:functions.c   **** 
1067:functions.c   **** 	sprintf( tstring, "MiEx%%=%3.2f%%", DiaMinExtDisplayPercent ); // Calculated
1068:functions.c   **** 	display_f1_text( tstring, TSMAX, 2, 48, FIXED );
1069:functions.c   **** 
1070:functions.c   **** 	sprintf( tstring, "TaEx%%=%3.2f%%", DiaTargetExtDisplayPercent ); // Calculated
1071:functions.c   **** 	display_f1_text( tstring, TSMAX, 2, 58, FIXED );
1072:functions.c   **** 
1073:functions.c   **** 	sprintf( tstring, "BDiE%%=%3.2f%%", BaleDiaExtDisplayPercent ); // Calculated
1074:functions.c   **** 	display_f1_text( tstring, TSMAX, 2, 68, FIXED );
1075:functions.c   **** 
1076:functions.c   **** 	sprintf( tstring, "ZV=%6.5fV", DiaZeroVolts ); // Calculated
1077:functions.c   **** 	display_f1_text( tstring, TSMAX, 2, 88, FIXED );
1078:functions.c   **** 
1079:functions.c   **** 	sprintf( tstring, "PP=%6.5fV", DiaVoltsPer1PercentDisplayRange ); // Calculated
1080:functions.c   **** 	display_f1_text( tstring, TSMAX, 2, 98, FIXED );
1081:functions.c   **** 
1082:functions.c   **** 	sprintf( tstring, "PS=%6.5fV", DiaVoltsPerSetting ); // Calculated
1083:functions.c   **** 	display_f1_text( tstring, TSMAX, 2, 108, FIXED );
1084:functions.c   **** 
1085:functions.c   **** #endif
1086:functions.c   **** 
1087:functions.c   **** #if 0 // Testing Analogue inputs
1088:functions.c   **** 	sprintf( tstring, "KnifePresV=%4.3f", KnifePresVolts );
1089:functions.c   **** 	display_f1_text( tstring, TSMAX, 2, 48, FIXED );
1090:functions.c   **** 
1091:functions.c   **** 	sprintf( tstring, "BaleDiaV=%4.3f", BaleDiaVolts );
1092:functions.c   **** 	display_f1_text( tstring, TSMAX, 2, 58, FIXED );
1093:functions.c   **** 
1094:functions.c   **** 	sprintf( tstring, "DensityPresV=%4.3f", DensityPresVolts );
1095:functions.c   **** 	display_f1_text( tstring, TSMAX, 2, 68, FIXED );
1096:functions.c   **** 
1097:functions.c   **** 	sprintf( tstring, "BaleShapeV=%4.3f", BaleShapeVolts );
1098:functions.c   **** 	display_f1_text( tstring, TSMAX, 2, 78, FIXED );
1099:functions.c   **** #endif
1100:functions.c   **** 
1101:functions.c   **** #if 0 // Testing - inputs & outputs
1102:functions.c   **** 	sprintf( tstring, "%2.1fV", KnifePresVolts ); // Input Top - left
1103:functions.c   **** 	display_f1_text( tstring, TSMAX, 42, 8, FIXED );
1104:functions.c   **** 
1105:functions.c   **** 	sprintf( tstring, "%2.1fV", BaleShapeVolts ); // Input Top - right
1106:functions.c   **** 	display_f1_text( tstring, TSMAX, 66, 8, FIXED );
1107:functions.c   **** 
1108:functions.c   **** 	sprintf( tstring, "%2.1fV", DensityPresVolts ); // Input Bot - left
1109:functions.c   **** 	display_f1_text( tstring, TSMAX, 42, 18, FIXED );
1110:functions.c   **** 
1111:functions.c   **** 	sprintf( tstring, "%2.1fV", BaleDiaVolts ); // Input Bot - right
1112:functions.c   **** 	display_f1_text( tstring, TSMAX, 66, 18, FIXED );
1113:functions.c   **** #endif
1114:functions.c   **** 
1115:functions.c   **** #if 0 // Testing
1116:functions.c   **** 	sprintf( tstring, "%2.1fHz", NetPulseFrequency );
1117:functions.c   **** 	display_f1_text( tstring, TSMAX, 2, 78, FIXED );
1118:functions.c   **** 
1119:functions.c   **** 	sprintf( tstring, "%4u", TargetNetPulses ); // Input Bot - far right
1120:functions.c   **** 	display_f1_text( tstring, TSMAX, 50, 98, FIXED );
1121:functions.c   **** 
1122:functions.c   **** 	sprintf( tstring, "%4u", NetPulseCount ); // Input Bot - farthest far right
1123:functions.c   **** 	display_f1_text( tstring, TSMAX, 84, 98, FIXED );
1124:functions.c   **** 
1125:functions.c   **** 	//sprintf( tstring, "%4u", NetMetresPulseCount ); // Input Bot - farthest far right
1126:functions.c   **** 	//display_f1_text( tstring, TSMAX, 118, 98, FIXED );
1127:functions.c   **** #endif
1128:functions.c   **** 
1129:functions.c   **** #if 0 // Testing pulse counting
1130:functions.c   **** 	sprintf( tstring, "%2.1fHz", NetPulseFrequency );
1131:functions.c   **** 	display_f1_text( tstring, TSMAX, 2, 78, FIXED );
1132:functions.c   **** 
1133:functions.c   **** 	sprintf( tstring, "%4u", TargetNetPulses ); // Input Bot - far right
1134:functions.c   **** 	display_f1_text( tstring, TSMAX, 50, 98, FIXED );
1135:functions.c   **** 
1136:functions.c   **** 	sprintf( tstring, "%4u", NetPulseCount ); // Input Bot - farthest far right
1137:functions.c   **** 	display_f1_text( tstring, TSMAX, 84, 98, FIXED );
1138:functions.c   **** 
1139:functions.c   **** 	//sprintf( tstring, "%4u", NetMetresPulseCount ); // Input Bot - farthest far right
1140:functions.c   **** 	//display_f1_text( tstring, TSMAX, 118, 98, FIXED );
1141:functions.c   **** 
1142:functions.c   **** 	sprintf( tstring, "%4u", NewNetPulses ); // Input Bot - far right
1143:functions.c   **** 	display_f1_text( tstring, TSMAX, 50, 88, FIXED );
1144:functions.c   **** 
1145:functions.c   **** 	sprintf( tstring, "%4u", NetPulseCountPrev ); // Input Bot - farthest far right
1146:functions.c   **** 	display_f1_text( tstring, TSMAX, 84, 88, FIXED );
1147:functions.c   **** 
1148:functions.c   **** 	sprintf( tstring, "%4u", NetMetresPulseCount ); // Input Bot - farthest far right
1149:functions.c   **** 	display_f1_text( tstring, TSMAX, 118, 88, FIXED );
1150:functions.c   **** 
1151:functions.c   **** #endif
1152:functions.c   **** 
1153:functions.c   **** #if 0 // Testing net metres, pulse count, target pulses
1154:functions.c   **** 	sprintf( tstring, "MI=%2.1fV", DiaMinVolts ); // Calculated
1155:functions.c   **** 	display_f1_text( tstring, TSMAX, 42, 18, FIXED );
1156:functions.c   **** 
1157:functions.c   **** 	sprintf( tstring, "MA=%2.1fV", DiaMaxVolts ); // Calculated
1158:functions.c   **** 	display_f1_text( tstring, TSMAX, 42, 28, FIXED );
1159:functions.c   **** 
1160:functions.c   **** 	sprintf( tstring, "T=%2.1fV", DiaTargetVolts );     // Calculated
1161:functions.c   **** 	display_f1_text( tstring, TSMAX, 42, 38, FIXED );
1162:functions.c   **** 
1163:functions.c   **** 	sprintf( tstring, "ST=%02X", Stage );
1164:functions.c   **** 	display_f1_text( tstring, TSMAX, 2, 58, FIXED );
1165:functions.c   **** 
1166:functions.c   **** 	sprintf( tstring, "SC=%02X", stagecomp );
1167:functions.c   **** 	display_f1_text( tstring, TSMAX, 2, 68, FIXED );
1168:functions.c   **** 
1169:functions.c   **** 	/*sprintf( tstring, "%6u", TotalNetMetresLastSaved ); // NOT USED NOW
1170:functions.c   ****     display_f1_text( tstring, TSMAX, 2, 78, FIXED );*/
1171:functions.c   **** 
1172:functions.c   **** 	sprintf( tstring, "%2.1fHz", NetPulseFrequency );
1173:functions.c   **** 	display_f1_text( tstring, TSMAX, 2, 78, FIXED );
1174:functions.c   **** 
1175:functions.c   **** 	sprintf( tstring, "%2.1fV", KnifePresVolts ); // Input Top - left
1176:functions.c   **** 	display_f1_text( tstring, TSMAX, 2, 88, FIXED );
1177:functions.c   **** 
1178:functions.c   **** 	sprintf( tstring, "%2.1fV", BaleShapeVolts ); // Input Top - right
1179:functions.c   **** 	display_f1_text( tstring, TSMAX, 26, 88, FIXED );
1180:functions.c   **** 
1181:functions.c   **** 	sprintf( tstring, "%2.1fp/l", NetPulsesPerLayer ); // Input Top - far right
1182:functions.c   **** 	display_f1_text( tstring, TSMAX, 50, 88, FIXED );
1183:functions.c   **** 
1184:functions.c   **** 	sprintf( tstring, "%2.1fV", DensityPresVolts ); // Input Bot - left
1185:functions.c   **** 	display_f1_text( tstring, TSMAX, 2, 98, FIXED );
1186:functions.c   **** 
1187:functions.c   **** 	sprintf( tstring, "%2.1fV", BaleDiaVolts ); // Input Bot - right
1188:functions.c   **** 	display_f1_text( tstring, TSMAX, 26, 98, FIXED );
1189:functions.c   **** 
1190:functions.c   **** 	sprintf( tstring, "%u p", TargetNetPulses ); // Input Bot - far right
1191:functions.c   **** 	display_f1_text( tstring, TSMAX, 50, 98, FIXED );
1192:functions.c   **** 
1193:functions.c   **** 	sprintf( tstring, "%u p", NetPulseCount ); // Input Bot - farthest far right
1194:functions.c   **** 	display_f1_text( tstring, TSMAX, 74, 98, FIXED );
1195:functions.c   **** #endif
1196:functions.c   **** 
1197:functions.c   **** #if 0 // Testing Count for Net Pulses (on IP4) to stop after Target Pulses reached for Net Cut (OP7
1198:functions.c   **** 	sprintf( tstring, "NPC=%u", NetPulseCount );
1199:functions.c   **** 	display_f1_text( tstring, TSMAX, 69,  8, FIXED );
1200:functions.c   **** 
1201:functions.c   **** 	sprintf( tstring, "LST=%u", NetPulseCountAtLastCheck );
1202:functions.c   **** 	display_f1_text( tstring, TSMAX, 69,  18, FIXED );
1203:functions.c   **** 
1204:functions.c   **** 	sprintf( tstring, "OP7=%u", OP7OffDelayTime );
1205:functions.c   **** 	display_f1_text( tstring, TSMAX, 69,  28, FIXED );
1206:functions.c   **** 
1207:functions.c   **** 	sprintf( tstring, "STP=%u", IP4PulsesStoppedCount );
1208:functions.c   **** 	display_f1_text( tstring, TSMAX, 69,  38, FIXED );
1209:functions.c   **** #endif
1210:functions.c   **** 
1211:functions.c   **** #if 0 // Testing Analogue inputs
1212:functions.c   **** 	sprintf( tstring, "D1=%4.3f", BaleDiaVolts );
1213:functions.c   **** 	display_f1_text( tstring, TSMAX, 69, 28, FIXED );
1214:functions.c   **** 
1215:functions.c   **** 	sprintf( tstring, "P2=%4.3f", DensityPresVolts );
1216:functions.c   **** 	display_f1_text( tstring, TSMAX, 69, 78, FIXED );
1217:functions.c   **** 
1218:functions.c   **** 	sprintf( tstring, "S3=%4.3f", BaleShapeVolts );
1219:functions.c   **** 	display_f1_text( tstring, TSMAX, 69, 88, FIXED );
1220:functions.c   **** 
1221:functions.c   **** 	sprintf( tstring, "K4=%4.3f", KnifePresVolts );
1222:functions.c   **** 	display_f1_text( tstring, TSMAX, 69, 98, FIXED );
1223:functions.c   **** #endif
1224:functions.c   **** 
1225:functions.c   **** #if 0 // Testing memory
1226:functions.c   **** 	sprintf( tstring, "F=%3u", sizeof(pFac.pf) );
1227:functions.c   **** 	display_f1_text( tstring, TSMAX, 127, 16, FIXED );
1228:functions.c   **** 
1229:functions.c   **** 	sprintf( tstring, "R=%3u", sizeof(pRun.pr) );
1230:functions.c   **** 	display_f1_text( tstring, TSMAX, 127, 26, FIXED );
1231:functions.c   **** 
1232:functions.c   **** 	sprintf( tstring, "RF=%1u", TestOutputReadMemAllocFail);
1233:functions.c   **** 	display_f1_text( tstring, TSMAX, 127, 48, FIXED );
1234:functions.c   **** 
1235:functions.c   **** 	sprintf( tstring, "WF=%1u", TestOutputWriteMemAllocFail);
1236:functions.c   **** 	display_f1_text( tstring, TSMAX, 127, 58, FIXED );
1237:functions.c   **** #endif
1238:functions.c   **** 
1239:functions.c   **** #if 0 // Testing BaleKickerStatus & BaleDiameterStatusInManMode & ChamberStatus
1240:functions.c   **** 	sprintf( tstring, "BKS=%02X", BaleKickerStatus );
1241:functions.c   **** 	display_f1_text( tstring, TSMAX, 3, 78, FIXED );
1242:functions.c   **** 
1243:functions.c   **** 	sprintf( tstring, "BDSIMM=%02X", BaleDiameterStatusInManMode );
1244:functions.c   **** 	display_f1_text( tstring, TSMAX, 3, 88, FIXED );
1245:functions.c   **** 
1246:functions.c   **** 	sprintf( tstring, "CS=%02X", ChamberStatus );
1247:functions.c   **** 	display_f1_text( tstring, TSMAX, 3, 98, FIXED );
1248:functions.c   **** #endif
1249:functions.c   **** 
1250:functions.c   **** #if 0 // Testing Net Pulses (on IP4)
1251:functions.c   **** 	sprintf( tstring, "NPC=%3lu", NetPulseCount ); // added l
1252:functions.c   **** 	display_f1_text( tstring, TSMAX, 69,  8, FIXED );
1253:functions.c   **** 
1254:functions.c   **** 	sprintf( tstring, "TNP=%3u", TargetNetPulses );
1255:functions.c   **** 	display_f1_text( tstring, TSMAX, 69,  18, FIXED );
1256:functions.c   **** 
1257:functions.c   **** 	sprintf( tstring, "LST=%3u", NetPulseCountAtLastCheck );
1258:functions.c   **** 	display_f1_text( tstring, TSMAX, 69,  28, FIXED );
1259:functions.c   **** 
1260:functions.c   **** 	sprintf( tstring, "OP7=%3u", OP7OffDelayTime );
1261:functions.c   **** 	display_f1_text( tstring, TSMAX, 69,  38, FIXED );
1262:functions.c   **** 
1263:functions.c   **** 	sprintf( tstring, "STP=%3u", IP4PulsesStoppedCount );
1264:functions.c   **** 	display_f1_text( tstring, TSMAX, 69,  48, FIXED );
1265:functions.c   **** 
1266:functions.c   **** 	sprintf( tstring, "BEP=%3lu", BeakEngagePulseCount ); // added l
1267:functions.c   **** 	display_f1_text( tstring, TSMAX, 69,  58, FIXED );
1268:functions.c   **** #endif
1269:functions.c   **** 
1270:functions.c   **** #if 0 //#ifdef DEVELOP // Testing pulse counting -- Incl. testing Pre Net Pulses & Beak Engage Puls
1271:functions.c   **** 	sprintf( tstring, "  NPC=%4lu", NetPulseCount );
1272:functions.c   **** 	display_f1_text( tstring, TSMAX, 49,  8, FIXED );
1273:functions.c   **** 
1274:functions.c   **** 	sprintf( tstring, " SNPC=%4lu", Saved_NetPulseCount );
1275:functions.c   **** 	display_f1_text( tstring, TSMAX, 49,  18, FIXED );
1276:functions.c   **** 
1277:functions.c   **** 	sprintf( tstring, " TNPC=%4u", TargetNetPulses );
1278:functions.c   **** 	display_f1_text( tstring, TSMAX, 49,  28, FIXED );
1279:functions.c   **** 
1280:functions.c   **** 	sprintf( tstring, "SPNPC=%4lu", SavedPreNetPulseCount );
1281:functions.c   **** 	display_f1_text( tstring, TSMAX, 49,  38, FIXED );
1282:functions.c   **** 
1283:functions.c   **** 	sprintf( tstring, "TPNPC=%4lu", TargetPreNetPulseCount );
1284:functions.c   **** 	display_f1_text( tstring, TSMAX, 49,  48, FIXED );
1285:functions.c   **** 
1286:functions.c   **** 	sprintf( tstring, " BEPC=%4lu", BeakEngagePulseCount );
1287:functions.c   **** 	display_f1_text( tstring, TSMAX, 49,  58, FIXED );
1288:functions.c   **** 
1289:functions.c   **** 	sprintf( tstring, "SBEPC=%4lu", SavedBeakEngagePulseCount );
1290:functions.c   **** 	display_f1_text( tstring, TSMAX, 49,  68, FIXED );
1291:functions.c   **** 
1292:functions.c   **** 	sprintf( tstring, "TBEPC=%4lu", (unsigned long int)pFac.pf.GW302_BeakEngage );
1293:functions.c   **** 	display_f1_text( tstring, TSMAX, 49,  78, FIXED );
1294:functions.c   **** #endif
1295:functions.c   **** 
1296:functions.c   **** #ifdef DEVELOP // Testing state machine
1297:functions.c   **** 	sprintf( tstring, "ST=%02X", Stage );
1298:functions.c   **** 	display_f1_text( tstring, TSMAX, 3, 58, FIXED );
1299:functions.c   **** 
1300:functions.c   **** 	sprintf( tstring, "SC=%02X", stagecomp );
1301:functions.c   **** 	display_f1_text( tstring, TSMAX, 3, 68, FIXED );
1302:functions.c   **** #endif
1303:functions.c   **** 
1304:functions.c   **** }
 2161              		.loc 1 1304 0
 2162 0542 03B0     		add	sp, sp, #12
 2163              		@ sp needed for prologue
 2164              	.LVL150:
 2165 0544 3CBC     		pop	{r2, r3, r4, r5}
 2166 0546 9046     		mov	r8, r2
 2167 0548 9946     		mov	r9, r3
 2168 054a A246     		mov	sl, r4
 2169 054c AB46     		mov	fp, r5
 2170 054e F0BC     		pop	{r4, r5, r6, r7}
 2171 0550 01BC     		pop	{r0}
 2172 0552 0047     		bx	r0
 2173              	.L120:
 2174              		.align	2
 2175              	.L119:
 2176 0554 00000000 		.word	.LANCHOR0
 2177 0558 00000000 		.word	DensityCoreVolts
 2178 055c 50000000 		.word	.L97
 2179 0560 00000000 		.word	DensityFormation2Volts
 2180 0564 78000000 		.word	.L109
 2181 0568 00000000 		.word	DensityFormationVolts
 2182              		.cfi_endproc
 2183              	.LFE385:
 2185              		.global	__aeabi_dcmpgt
 2186              		.global	__aeabi_dcmplt
 2187 056c C046C046 		.section	.text.CheckAlarms,"ax",%progbits
 2188              		.align	2
 2189              		.global	CheckAlarms
 2190              		.code	16
 2191              		.thumb_func
 2193              	CheckAlarms:
 2194              	.LFB386:
1305:functions.c   **** // -----------------------------------------------------------
1306:functions.c   **** 
1307:functions.c   **** 
1308:functions.c   **** // -----------------------------------------------------------
1309:functions.c   **** // Function Name       : CheckAlarms
1310:functions.c   **** // -----------------------------------------------------------
1311:functions.c   **** void CheckAlarms( void )
1312:functions.c   **** {
 2195              		.loc 1 1312 0
 2196              		.cfi_startproc
 2197 0000 30B5     		push	{r4, r5, lr}
 2198              	.LCFI15:
 2199              		.cfi_def_cfa_offset 12
 2200              		.cfi_offset 4, -12
 2201              		.cfi_offset 5, -8
 2202              		.cfi_offset 14, -4
 2203 0002 83B0     		sub	sp, sp, #12
 2204              	.LCFI16:
 2205              		.cfi_def_cfa_offset 24
1313:functions.c   **** 
1314:functions.c   **** 	// -----------------------------------------------------------
1315:functions.c   **** 	// Density Pressure Too High Warning
1316:functions.c   **** 
1317:functions.c   **** 	if( DensityPresVolts > DPV_DENSITY_PRESSURE_TOO_HIGH_VOLTS )
 2206              		.loc 1 1317 0
 2207 0004 AE4B     		ldr	r3, .L152+16
 2208 0006 1868     		ldr	r0, [r3]
 2209 0008 FFF7FEFF 		bl	__aeabi_f2d
 2210              	.LVL151:
 2211 000c 041C     		mov	r4, r0
 2212 000e 0D1C     		mov	r5, r1
 2213 0010 A84B     		ldr	r3, .L152+4
 2214 0012 A74A     		ldr	r2, .L152
 2215 0014 FFF7FEFF 		bl	__aeabi_dcmpgt
 2216              	.LVL152:
 2217 0018 0028     		cmp	r0, #0
 2218 001a 1CD0     		beq	.L150
1318:functions.c   **** 	{
1319:functions.c   **** 		if( !(MWarn & MW_DENSITYPRESS) )
 2219              		.loc 1 1319 0
 2220 001c A94B     		ldr	r3, .L152+20
 2221 001e 1B78     		ldrb	r3, [r3]
 2222 0020 DA07     		lsl	r2, r3, #31
 2223 0022 0DD4     		bmi	.L124
1320:functions.c   **** 		{
1321:functions.c   **** 			MWarn |= MW_DENSITYPRESS;
 2224              		.loc 1 1321 0
 2225 0024 0122     		mov	r2, #1
 2226 0026 0121     		mov	r1, #1
 2227 0028 0B43     		orr	r3, r1
 2228 002a A649     		ldr	r1, .L152+20
 2229 002c 0B70     		strb	r3, [r1]
1322:functions.c   **** 			OKWarnBox = EXCL;
 2230              		.loc 1 1322 0
 2231 002e A64B     		ldr	r3, .L152+24
 2232 0030 1A70     		strb	r2, [r3]
1323:functions.c   **** 
1324:functions.c   **** 			// Sounding 1 beep when message first appears
1325:functions.c   **** 			buzz_count = 1;
 2233              		.loc 1 1325 0
 2234 0032 A64B     		ldr	r3, .L152+28
 2235 0034 1A70     		strb	r2, [r3]
1326:functions.c   **** 			buzz_length = 250;
 2236              		.loc 1 1326 0
 2237 0036 FA21     		mov	r1, #250
 2238 0038 A54B     		ldr	r3, .L152+32
 2239 003a 1960     		str	r1, [r3]
1327:functions.c   **** 
1328:functions.c   **** 			DensityPressureTooHigh = 1;
 2240              		.loc 1 1328 0
 2241 003c A54B     		ldr	r3, .L152+36
 2242 003e 1A70     		strb	r2, [r3]
 2243              	.L124:
1329:functions.c   **** 		}
1330:functions.c   **** 
1331:functions.c   **** 		// Sounding warning every second
1332:functions.c   **** 		if( !half_second )
 2244              		.loc 1 1332 0
 2245 0040 A54B     		ldr	r3, .L152+40
 2246 0042 1B78     		ldrb	r3, [r3]
 2247 0044 002B     		cmp	r3, #0
 2248 0046 1DD1     		bne	.L125
1333:functions.c   **** 		{
1334:functions.c   **** 			buzz_count = 1;
 2249              		.loc 1 1334 0
 2250 0048 0122     		mov	r2, #1
 2251 004a A04B     		ldr	r3, .L152+28
 2252 004c 1A70     		strb	r2, [r3]
1335:functions.c   **** 			buzz_length = 250;
 2253              		.loc 1 1335 0
 2254 004e FA22     		mov	r2, #250
 2255 0050 9F4B     		ldr	r3, .L152+32
 2256 0052 1A60     		str	r2, [r3]
 2257 0054 16E0     		b	.L125
 2258              	.L150:
1336:functions.c   **** 		}
1337:functions.c   **** 	}
1338:functions.c   **** 	else if( DensityPresVolts < (DPV_DENSITY_PRESSURE_TOO_HIGH_VOLTS - DPV_DENSITY_PRESSURE_TOO_HIGH_V
 2259              		.loc 1 1338 0
 2260 0056 201C     		mov	r0, r4
 2261 0058 291C     		mov	r1, r5
 2262 005a 974A     		ldr	r2, .L152+8
 2263 005c 974B     		ldr	r3, .L152+12
 2264 005e FFF7FEFF 		bl	__aeabi_dcmplt
 2265              	.LVL153:
 2266 0062 0028     		cmp	r0, #0
 2267 0064 0ED0     		beq	.L125
1339:functions.c   **** 	{
1340:functions.c   **** 		if( MWarn & MW_DENSITYPRESS )
 2268              		.loc 1 1340 0
 2269 0066 974B     		ldr	r3, .L152+20
 2270 0068 1B78     		ldrb	r3, [r3]
 2271 006a DA07     		lsl	r2, r3, #31
 2272 006c 0AD5     		bpl	.L125
1341:functions.c   **** 		{
1342:functions.c   **** 			MWarn &= ~MW_DENSITYPRESS;
 2273              		.loc 1 1342 0
 2274 006e 0122     		mov	r2, #1
 2275 0070 9343     		bic	r3, r2
 2276 0072 9449     		ldr	r1, .L152+20
 2277 0074 0B70     		strb	r3, [r1]
1343:functions.c   **** 			OKWarnBox &= ~EXCL;
 2278              		.loc 1 1343 0
 2279 0076 944B     		ldr	r3, .L152+24
 2280 0078 1978     		ldrb	r1, [r3]
 2281 007a 9143     		bic	r1, r2
 2282 007c 1970     		strb	r1, [r3]
1344:functions.c   **** 
1345:functions.c   **** 			DensityPressureTooHigh = 0;
 2283              		.loc 1 1345 0
 2284 007e 0022     		mov	r2, #0
 2285 0080 944B     		ldr	r3, .L152+36
 2286 0082 1A70     		strb	r2, [r3]
 2287              	.L125:
1346:functions.c   **** 		}
1347:functions.c   **** 	}
1348:functions.c   **** 
1349:functions.c   **** 
1350:functions.c   **** 	// -----------------------------------------------------------
1351:functions.c   **** 	// Check Net Error (AKA Net Warning)
1352:functions.c   **** 	if(pFac.pf.GW302_NetTwineOption == TO_NET) /**/
 2288              		.loc 1 1352 0
 2289 0084 7C23     		mov	r3, #124
 2290 0086 954A     		ldr	r2, .L152+44
 2291 0088 D35C     		ldrb	r3, [r2, r3]
 2292 008a 002B     		cmp	r3, #0
 2293 008c 21D1     		bne	.L127
1353:functions.c   **** 	{
1354:functions.c   **** 		if( NetWarningOn )
 2294              		.loc 1 1354 0
 2295 008e 944B     		ldr	r3, .L152+48
 2296 0090 1B78     		ldrb	r3, [r3]
 2297 0092 002B     		cmp	r3, #0
 2298 0094 10D0     		beq	.L128
1355:functions.c   **** 		{
1356:functions.c   **** 			if( !(MWarn & MW_CHECKNET) )
 2299              		.loc 1 1356 0
 2300 0096 8B4B     		ldr	r3, .L152+20
 2301 0098 1B78     		ldrb	r3, [r3]
 2302 009a 9A07     		lsl	r2, r3, #30
 2303 009c 19D4     		bmi	.L127
1357:functions.c   **** 			{
1358:functions.c   **** 				MWarn |= MW_CHECKNET;
 2304              		.loc 1 1358 0
 2305 009e 0222     		mov	r2, #2
 2306 00a0 1343     		orr	r3, r2
 2307 00a2 884A     		ldr	r2, .L152+20
 2308 00a4 1370     		strb	r3, [r2]
1359:functions.c   **** 				OKWarnBox = EXCL;
 2309              		.loc 1 1359 0
 2310 00a6 0123     		mov	r3, #1
 2311 00a8 874A     		ldr	r2, .L152+24
 2312 00aa 1370     		strb	r3, [r2]
1360:functions.c   **** 
1361:functions.c   **** 				// Sounding 1 beep when message first appears
1362:functions.c   **** 				buzz_count = 1;
 2313              		.loc 1 1362 0
 2314 00ac 874A     		ldr	r2, .L152+28
 2315 00ae 1370     		strb	r3, [r2]
1363:functions.c   **** 				buzz_length = 250;
 2316              		.loc 1 1363 0
 2317 00b0 FA22     		mov	r2, #250
 2318 00b2 874B     		ldr	r3, .L152+32
 2319 00b4 1A60     		str	r2, [r3]
 2320 00b6 0CE0     		b	.L127
 2321              	.L128:
1364:functions.c   **** 			}
1365:functions.c   **** 		}
1366:functions.c   **** 		else // !NetWarningOn
1367:functions.c   **** 		{
1368:functions.c   **** 			if( MWarn & MW_CHECKNET )
 2322              		.loc 1 1368 0
 2323 00b8 824B     		ldr	r3, .L152+20
 2324 00ba 1B78     		ldrb	r3, [r3]
 2325 00bc 9A07     		lsl	r2, r3, #30
 2326 00be 08D5     		bpl	.L127
1369:functions.c   **** 			{
1370:functions.c   **** 				MWarn &= ~MW_CHECKNET;
 2327              		.loc 1 1370 0
 2328 00c0 0222     		mov	r2, #2
 2329 00c2 9343     		bic	r3, r2
 2330 00c4 7F4A     		ldr	r2, .L152+20
 2331 00c6 1370     		strb	r3, [r2]
1371:functions.c   **** 				OKWarnBox &= ~EXCL;
 2332              		.loc 1 1371 0
 2333 00c8 7F4B     		ldr	r3, .L152+24
 2334 00ca 1A78     		ldrb	r2, [r3]
 2335 00cc 0121     		mov	r1, #1
 2336 00ce 8A43     		bic	r2, r1
 2337 00d0 1A70     		strb	r2, [r3]
 2338              	.L127:
1372:functions.c   **** 			}
1373:functions.c   **** 		}
1374:functions.c   **** 	}
1375:functions.c   **** 
1376:functions.c   **** 
1377:functions.c   **** 
1378:functions.c   **** 	// -----------------------------------------------------------
1379:functions.c   **** 	// Drop Floor (AKA Floor Position) Warning
1380:functions.c   **** 
1381:functions.c   **** 	if( !FLOOR_WORKING_POS )
 2339              		.loc 1 1381 0
 2340 00d2 844B     		ldr	r3, .L152+52
 2341 00d4 DB6B     		ldr	r3, [r3, #60]
 2342 00d6 DA04     		lsl	r2, r3, #19
 2343 00d8 10D4     		bmi	.L129
1382:functions.c   **** 	{
1383:functions.c   **** 		if( !(MWarn & MW_DROPFLOOR) )
 2344              		.loc 1 1383 0
 2345 00da 7A4B     		ldr	r3, .L152+20
 2346 00dc 1B78     		ldrb	r3, [r3]
 2347 00de 5A07     		lsl	r2, r3, #29
 2348 00e0 19D4     		bmi	.L130
1384:functions.c   **** 		{
1385:functions.c   **** 			MWarn |= MW_DROPFLOOR;
 2349              		.loc 1 1385 0
 2350 00e2 0422     		mov	r2, #4
 2351 00e4 1343     		orr	r3, r2
 2352 00e6 774A     		ldr	r2, .L152+20
 2353 00e8 1370     		strb	r3, [r2]
1386:functions.c   **** 			OKWarnBox = EXCL;
 2354              		.loc 1 1386 0
 2355 00ea 0123     		mov	r3, #1
 2356 00ec 764A     		ldr	r2, .L152+24
 2357 00ee 1370     		strb	r3, [r2]
1387:functions.c   **** 
1388:functions.c   **** 			// Sounding 1 beep when message first appears
1389:functions.c   **** 			buzz_count = 1;
 2358              		.loc 1 1389 0
 2359 00f0 764A     		ldr	r2, .L152+28
 2360 00f2 1370     		strb	r3, [r2]
1390:functions.c   **** 			buzz_length = 250;
 2361              		.loc 1 1390 0
 2362 00f4 FA22     		mov	r2, #250
 2363 00f6 764B     		ldr	r3, .L152+32
 2364 00f8 1A60     		str	r2, [r3]
 2365 00fa 0CE0     		b	.L130
 2366              	.L129:
1391:functions.c   **** 
1392:functions.c   **** 		}
1393:functions.c   **** 	}
1394:functions.c   **** 	else  // Floor (Position) Sensor closed
1395:functions.c   **** 	{
1396:functions.c   **** 		if( MWarn & MW_DROPFLOOR )
 2367              		.loc 1 1396 0
 2368 00fc 714B     		ldr	r3, .L152+20
 2369 00fe 1B78     		ldrb	r3, [r3]
 2370 0100 5A07     		lsl	r2, r3, #29
 2371 0102 08D5     		bpl	.L130
1397:functions.c   **** 		{
1398:functions.c   **** 			MWarn &= ~MW_DROPFLOOR;
 2372              		.loc 1 1398 0
 2373 0104 0422     		mov	r2, #4
 2374 0106 9343     		bic	r3, r2
 2375 0108 6E4A     		ldr	r2, .L152+20
 2376 010a 1370     		strb	r3, [r2]
1399:functions.c   **** 			OKWarnBox &= ~EXCL;
 2377              		.loc 1 1399 0
 2378 010c 6E4B     		ldr	r3, .L152+24
 2379 010e 1A78     		ldrb	r2, [r3]
 2380 0110 0121     		mov	r1, #1
 2381 0112 8A43     		bic	r2, r1
 2382 0114 1A70     		strb	r2, [r3]
 2383              	.L130:
1400:functions.c   **** 		}
1401:functions.c   **** 	}
1402:functions.c   **** 
1403:functions.c   **** 
1404:functions.c   **** 	// -----------------------------------------------------------
1405:functions.c   **** 	// Knife Maximum Pressure Warning
1406:functions.c   **** 	// Inhibited when:
1407:functions.c   **** 	// - 'Chopping Knives Fitted' set to disabled -- Chopping Knives not fitted
1408:functions.c   **** 	// - Outside Right (OR) button pressed while first screen displayed
1409:functions.c   **** 
1410:functions.c   **** 	if( pFac.pf.GW302_ChoppingKnivesFitted == CKF_ENABLED ) // 'Chopping Knives Fitted' set to enabled
 2384              		.loc 1 1410 0
 2385 0116 8C23     		mov	r3, #140
 2386 0118 5B00     		lsl	r3, r3, #1
 2387 011a 704A     		ldr	r2, .L152+44
 2388 011c D35C     		ldrb	r3, [r2, r3]
 2389 011e 012B     		cmp	r3, #1
 2390 0120 3DD1     		bne	.L131
1411:functions.c   **** 	{
1412:functions.c   **** 		if( (KnifePresVolts > pFac.pf.GW302_KnifePresWarn) &&
 2391              		.loc 1 1412 0
 2392 0122 FC23     		mov	r3, #252
 2393 0124 D058     		ldr	r0, [r2, r3]
 2394 0126 704B     		ldr	r3, .L152+56
 2395 0128 1968     		ldr	r1, [r3]
 2396 012a FFF7FEFF 		bl	__aeabi_fcmplt
 2397              	.LVL154:
 2398 012e 0028     		cmp	r0, #0
 2399 0130 28D0     		beq	.L132
1413:functions.c   **** 				( ((key & ~(SW_NEW | SW_REP)) != SW_OR) || SecondScreen ) )
 2400              		.loc 1 1413 0 discriminator 1
 2401 0132 6E4B     		ldr	r3, .L152+60
 2402 0134 1A68     		ldr	r2, [r3]
 2403 0136 9200     		lsl	r2, r2, #2
 2404 0138 9208     		lsr	r2, r2, #2
1412:functions.c   **** 		if( (KnifePresVolts > pFac.pf.GW302_KnifePresWarn) &&
 2405              		.loc 1 1412 0 discriminator 1
 2406 013a 8023     		mov	r3, #128
 2407 013c 5B00     		lsl	r3, r3, #1
 2408 013e 9A42     		cmp	r2, r3
 2409 0140 03D1     		bne	.L134
 2410              		.loc 1 1413 0
 2411 0142 6B4B     		ldr	r3, .L152+64
 2412 0144 1B78     		ldrb	r3, [r3]
 2413 0146 002B     		cmp	r3, #0
 2414 0148 1CD0     		beq	.L132
 2415              	.L134:
1414:functions.c   **** 		{
1415:functions.c   **** 			if( !(MWarn & MW_KNIFEPRES) )
 2416              		.loc 1 1415 0
 2417 014a 5E4B     		ldr	r3, .L152+20
 2418 014c 1B78     		ldrb	r3, [r3]
 2419 014e 1A07     		lsl	r2, r3, #28
 2420 0150 09D4     		bmi	.L135
1416:functions.c   **** 			{
1417:functions.c   **** 				//buzz_count = 1;
1418:functions.c   **** 				swrel = 0; /* search for if( looptime > 3 ) in screen.c */
 2421              		.loc 1 1418 0
 2422 0152 0021     		mov	r1, #0
 2423 0154 674A     		ldr	r2, .L152+68
 2424 0156 1170     		strb	r1, [r2]
1419:functions.c   **** 				MWarn |= MW_KNIFEPRES;
 2425              		.loc 1 1419 0
 2426 0158 0822     		mov	r2, #8
 2427 015a 1343     		orr	r3, r2
 2428 015c 594A     		ldr	r2, .L152+20
 2429 015e 1370     		strb	r3, [r2]
1420:functions.c   **** 				OKWarnBox = EXCL;
 2430              		.loc 1 1420 0
 2431 0160 0122     		mov	r2, #1
 2432 0162 594B     		ldr	r3, .L152+24
 2433 0164 1A70     		strb	r2, [r3]
 2434              	.L135:
1421:functions.c   **** 			}
1422:functions.c   **** 
1423:functions.c   **** 			if( !(swrel % 30) )
 2435              		.loc 1 1423 0
 2436 0166 634B     		ldr	r3, .L152+68
 2437 0168 1878     		ldrb	r0, [r3]
 2438 016a 1E21     		mov	r1, #30
 2439 016c FFF7FEFF 		bl	__aeabi_uidivmod
 2440              	.LVL155:
 2441 0170 0906     		lsl	r1, r1, #24
 2442 0172 14D1     		bne	.L131
1424:functions.c   **** 			{
1425:functions.c   **** 				//buzz_count = 1;  // 100ms beep every 3 seconds.
1426:functions.c   **** 				if( !DelayTime )  // When other beeps are going on
 2443              		.loc 1 1426 0
 2444 0174 604B     		ldr	r3, .L152+72
 2445 0176 1B78     		ldrb	r3, [r3]
 2446 0178 002B     		cmp	r3, #0
 2447 017a 10D1     		bne	.L131
1427:functions.c   **** 				{
1428:functions.c   **** 					buzz_length = 250;
 2448              		.loc 1 1428 0
 2449 017c FA22     		mov	r2, #250
 2450 017e 544B     		ldr	r3, .L152+32
 2451 0180 1A60     		str	r2, [r3]
 2452 0182 0CE0     		b	.L131
 2453              	.L132:
1429:functions.c   **** 				}
1430:functions.c   **** 			}
1431:functions.c   **** 		}
1432:functions.c   **** 		else // (KnifePresVolts <= pFac.pf.GW302_KnifePresWarn) or OR button pressed
1433:functions.c   **** 		{
1434:functions.c   **** 			if( MWarn & MW_KNIFEPRES )
 2454              		.loc 1 1434 0
 2455 0184 4F4B     		ldr	r3, .L152+20
 2456 0186 1B78     		ldrb	r3, [r3]
 2457 0188 1A07     		lsl	r2, r3, #28
 2458 018a 08D5     		bpl	.L131
1435:functions.c   **** 			{
1436:functions.c   **** 				MWarn &= ~MW_KNIFEPRES;
 2459              		.loc 1 1436 0
 2460 018c 0822     		mov	r2, #8
 2461 018e 9343     		bic	r3, r2
 2462 0190 4C4A     		ldr	r2, .L152+20
 2463 0192 1370     		strb	r3, [r2]
1437:functions.c   **** 				OKWarnBox &= ~EXCL;
 2464              		.loc 1 1437 0
 2465 0194 4C4B     		ldr	r3, .L152+24
 2466 0196 1A78     		ldrb	r2, [r3]
 2467 0198 0121     		mov	r1, #1
 2468 019a 8A43     		bic	r2, r1
 2469 019c 1A70     		strb	r2, [r3]
 2470              	.L131:
1438:functions.c   **** 			}
1439:functions.c   **** 		}
1440:functions.c   **** 	}
1441:functions.c   **** 
1442:functions.c   **** 
1443:functions.c   **** 	// -----------------------------------------------------------
1444:functions.c   **** 	// Chopping knives position Warning
1445:functions.c   **** 
1446:functions.c   **** 	if( DisableChoppingKnivesWarnings ) // Disabling prevents chopping knives position warning from co
 2471              		.loc 1 1446 0
 2472 019e 574B     		ldr	r3, .L152+76
 2473 01a0 1B78     		ldrb	r3, [r3]
 2474 01a2 002B     		cmp	r3, #0
 2475 01a4 10D0     		beq	.L136
1447:functions.c   **** 	{
1448:functions.c   **** 		if( MWarn & MW_CHOPKNIVPOS1 )
 2476              		.loc 1 1448 0
 2477 01a6 474B     		ldr	r3, .L152+20
 2478 01a8 1B78     		ldrb	r3, [r3]
 2479 01aa DA06     		lsl	r2, r3, #27
 2480 01ac 08D5     		bpl	.L137
1449:functions.c   **** 		{
1450:functions.c   **** 			// Both warnings disabled
1451:functions.c   **** 			MWarn &= ~(MW_CHOPKNIVPOS1);
 2481              		.loc 1 1451 0
 2482 01ae 1022     		mov	r2, #16
 2483 01b0 9343     		bic	r3, r2
 2484 01b2 444A     		ldr	r2, .L152+20
 2485 01b4 1370     		strb	r3, [r2]
1452:functions.c   **** 			OKWarnBox &= ~EXCL;
 2486              		.loc 1 1452 0
 2487 01b6 444B     		ldr	r3, .L152+24
 2488 01b8 1A78     		ldrb	r2, [r3]
 2489 01ba 0121     		mov	r1, #1
 2490 01bc 8A43     		bic	r2, r1
 2491 01be 1A70     		strb	r2, [r3]
 2492              	.L137:
1453:functions.c   **** 		}
1454:functions.c   **** 
1455:functions.c   **** 		// Chopping knives position Warning turned off
1456:functions.c   **** 		ChoppingKnives1WarningOn = 0;
 2493              		.loc 1 1456 0
 2494 01c0 0022     		mov	r2, #0
 2495 01c2 4F4B     		ldr	r3, .L152+80
 2496 01c4 1A70     		strb	r2, [r3]
 2497 01c6 13E0     		b	.L138
 2498              	.L136:
1457:functions.c   **** 	}
1458:functions.c   **** 	else if( ChoppingKnives1WarningOn ) // Chopping knives position Warning on
1459:functions.c   **** 	{
1460:functions.c   **** 		if( ChoppingKnives1WarningOn )
 2499              		.loc 1 1460 0
 2500 01c8 4D4B     		ldr	r3, .L152+80
 2501 01ca 1B78     		ldrb	r3, [r3]
 2502 01cc 002B     		cmp	r3, #0
 2503 01ce 0FD0     		beq	.L138
1461:functions.c   **** 		{
1462:functions.c   **** 			if( !(MWarn & MW_CHOPKNIVPOS1) )
 2504              		.loc 1 1462 0
 2505 01d0 3C4B     		ldr	r3, .L152+20
 2506 01d2 1B78     		ldrb	r3, [r3]
 2507 01d4 DA06     		lsl	r2, r3, #27
 2508 01d6 0BD4     		bmi	.L138
1463:functions.c   **** 			{
1464:functions.c   **** 				MWarn |= MW_CHOPKNIVPOS1;
 2509              		.loc 1 1464 0
 2510 01d8 1022     		mov	r2, #16
 2511 01da 1343     		orr	r3, r2
 2512 01dc 394A     		ldr	r2, .L152+20
 2513 01de 1370     		strb	r3, [r2]
1465:functions.c   **** 				OKWarnBox = EXCL;
 2514              		.loc 1 1465 0
 2515 01e0 0123     		mov	r3, #1
 2516 01e2 394A     		ldr	r2, .L152+24
 2517 01e4 1370     		strb	r3, [r2]
1466:functions.c   **** 
1467:functions.c   **** 				// Sounding 1 beep when message first appears
1468:functions.c   **** 				buzz_count = 1;
 2518              		.loc 1 1468 0
 2519 01e6 394A     		ldr	r2, .L152+28
 2520 01e8 1370     		strb	r3, [r2]
1469:functions.c   **** 				buzz_length = 250;
 2521              		.loc 1 1469 0
 2522 01ea FA22     		mov	r2, #250
 2523 01ec 384B     		ldr	r3, .L152+32
 2524 01ee 1A60     		str	r2, [r3]
 2525              	.L138:
1470:functions.c   **** 			}
1471:functions.c   **** 		}
1472:functions.c   **** 	}
1473:functions.c   **** 
1474:functions.c   **** 
1475:functions.c   **** 	// -----------------------------------------------------------
1476:functions.c   **** 	// Low Battery (AKA Low voltage) Warning
1477:functions.c   **** 
1478:functions.c   **** 	if( SupplyVolts < 10.5 )
 2526              		.loc 1 1478 0
 2527 01f0 444B     		ldr	r3, .L152+84
 2528 01f2 1868     		ldr	r0, [r3]
 2529 01f4 4449     		ldr	r1, .L152+88
 2530 01f6 FFF7FEFF 		bl	__aeabi_fcmplt
 2531              	.LVL156:
 2532 01fa 0028     		cmp	r0, #0
 2533 01fc 10D0     		beq	.L151
1479:functions.c   **** 	{
1480:functions.c   **** 		if( !(MWarn & MW_LOWBAT) )
 2534              		.loc 1 1480 0
 2535 01fe 314B     		ldr	r3, .L152+20
 2536 0200 1B78     		ldrb	r3, [r3]
 2537 0202 9A06     		lsl	r2, r3, #26
 2538 0204 19D4     		bmi	.L141
1481:functions.c   **** 		{
1482:functions.c   **** 			MWarn |= MW_LOWBAT;
 2539              		.loc 1 1482 0
 2540 0206 2022     		mov	r2, #32
 2541 0208 1343     		orr	r3, r2
 2542 020a 2E4A     		ldr	r2, .L152+20
 2543 020c 1370     		strb	r3, [r2]
1483:functions.c   **** 			OKWarnBox = EXCL;
 2544              		.loc 1 1483 0
 2545 020e 0123     		mov	r3, #1
 2546 0210 2D4A     		ldr	r2, .L152+24
 2547 0212 1370     		strb	r3, [r2]
1484:functions.c   **** 
1485:functions.c   **** 			// Sounding 1 beep when message first appears
1486:functions.c   **** 			buzz_count = 1;
 2548              		.loc 1 1486 0
 2549 0214 2D4A     		ldr	r2, .L152+28
 2550 0216 1370     		strb	r3, [r2]
1487:functions.c   **** 			buzz_length = 250;
 2551              		.loc 1 1487 0
 2552 0218 FA22     		mov	r2, #250
 2553 021a 2D4B     		ldr	r3, .L152+32
 2554 021c 1A60     		str	r2, [r3]
 2555 021e 0CE0     		b	.L141
 2556              	.L151:
1488:functions.c   **** 		}
1489:functions.c   **** 	}
1490:functions.c   **** 	else // SupplyVolts >= 10.5
1491:functions.c   **** 	{
1492:functions.c   **** 		if( MWarn & MW_LOWBAT )
 2557              		.loc 1 1492 0
 2558 0220 284B     		ldr	r3, .L152+20
 2559 0222 1B78     		ldrb	r3, [r3]
 2560 0224 9A06     		lsl	r2, r3, #26
 2561 0226 08D5     		bpl	.L141
1493:functions.c   **** 		{
1494:functions.c   **** 			MWarn &= ~MW_LOWBAT;
 2562              		.loc 1 1494 0
 2563 0228 2022     		mov	r2, #32
 2564 022a 9343     		bic	r3, r2
 2565 022c 254A     		ldr	r2, .L152+20
 2566 022e 1370     		strb	r3, [r2]
1495:functions.c   **** 			OKWarnBox &= ~EXCL;
 2567              		.loc 1 1495 0
 2568 0230 254B     		ldr	r3, .L152+24
 2569 0232 1A78     		ldrb	r2, [r3]
 2570 0234 0121     		mov	r1, #1
 2571 0236 8A43     		bic	r2, r1
 2572 0238 1A70     		strb	r2, [r3]
 2573              	.L141:
1496:functions.c   **** 		}
1497:functions.c   **** 	}
1498:functions.c   **** 
1499:functions.c   **** 
1500:functions.c   **** 	// -----------------------------------------------------------
1501:functions.c   **** 	// Lube Count Alarm
1502:functions.c   **** 
1503:functions.c   **** 	if( pRun.pr.LubeCounter <= 0 )
 2574              		.loc 1 1503 0
 2575 023a 344B     		ldr	r3, .L152+92
 2576 023c 2622     		mov	r2, #38
 2577 023e 9B5E     		ldrsh	r3, [r3, r2]
 2578 0240 002B     		cmp	r3, #0
 2579 0242 1DDC     		bgt	.L142
1504:functions.c   **** 	{
1505:functions.c   **** 		if( !MWarn && !(OKWarnBox & LUBE) ) // Lube count warning has lowest priority
 2580              		.loc 1 1505 0
 2581 0244 1F4B     		ldr	r3, .L152+20
 2582 0246 1B78     		ldrb	r3, [r3]
 2583 0248 002B     		cmp	r3, #0
 2584 024a 0AD1     		bne	.L143
 2585              		.loc 1 1505 0 is_stmt 0 discriminator 1
 2586 024c 1E4B     		ldr	r3, .L152+24
 2587 024e 1B78     		ldrb	r3, [r3]
 2588 0250 9A07     		lsl	r2, r3, #30
 2589 0252 06D4     		bmi	.L143
1506:functions.c   **** 		{
1507:functions.c   **** 			// Oil can icon shown instead of showing total net applied in metres in screens.c
1508:functions.c   **** 
1509:functions.c   **** 			OKWarnBox = LUBE;
 2590              		.loc 1 1509 0 is_stmt 1
 2591 0254 0222     		mov	r2, #2
 2592 0256 1C4B     		ldr	r3, .L152+24
 2593 0258 1A70     		strb	r2, [r3]
1510:functions.c   **** 
1511:functions.c   **** 			// Sounding 1 beep when message first appears
1512:functions.c   **** 			buzz_count = 1;
1513:functions.c   **** 			buzz_length = 250;
 2594              		.loc 1 1513 0
 2595 025a FA22     		mov	r2, #250
 2596 025c 1C4B     		ldr	r3, .L152+32
 2597 025e 1A60     		str	r2, [r3]
 2598 0260 07E0     		b	.L144
 2599              	.L143:
1514:functions.c   **** 
1515:functions.c   **** 			BeepDelay = 0;
1516:functions.c   **** 		}
1517:functions.c   **** 
1518:functions.c   **** 		// Beeping sounds continuously
1519:functions.c   **** 		if( BeepDelay )
 2600              		.loc 1 1519 0
 2601 0262 2B4B     		ldr	r3, .L152+96
 2602 0264 1B78     		ldrb	r3, [r3]
 2603 0266 002B     		cmp	r3, #0
 2604 0268 03D0     		beq	.L144
1520:functions.c   **** 		{
1521:functions.c   **** 			BeepDelay--;
 2605              		.loc 1 1521 0
 2606 026a 013B     		sub	r3, r3, #1
 2607 026c 284A     		ldr	r2, .L152+96
 2608 026e 1370     		strb	r3, [r2]
 2609 0270 17E0     		b	.L121
 2610              	.L144:
1522:functions.c   **** 		}
1523:functions.c   **** 		else
1524:functions.c   **** 		{
1525:functions.c   **** 			BeepDelay = 29;
 2611              		.loc 1 1525 0
 2612 0272 1D22     		mov	r2, #29
 2613 0274 264B     		ldr	r3, .L152+96
 2614 0276 1A70     		strb	r2, [r3]
1526:functions.c   **** 			buzz_count = 1;
 2615              		.loc 1 1526 0
 2616 0278 0122     		mov	r2, #1
 2617 027a 144B     		ldr	r3, .L152+28
 2618 027c 1A70     		strb	r2, [r3]
 2619 027e 10E0     		b	.L121
 2620              	.L142:
1527:functions.c   **** 		}
1528:functions.c   **** 	}
1529:functions.c   **** 	else // pRun.pr.LubeCounter > 0
1530:functions.c   **** 	{
1531:functions.c   **** 		if( OKWarnBox == LUBE )
 2621              		.loc 1 1531 0
 2622 0280 114B     		ldr	r3, .L152+24
 2623 0282 1B78     		ldrb	r3, [r3]
 2624 0284 022B     		cmp	r3, #2
 2625 0286 0CD1     		bne	.L121
1532:functions.c   **** 		{
1533:functions.c   **** 			OKWarnBox &= ~LUBE;
 2626              		.loc 1 1533 0
 2627 0288 0022     		mov	r2, #0
 2628 028a 0F4B     		ldr	r3, .L152+24
 2629 028c 1A70     		strb	r2, [r3]
1534:functions.c   **** 			draw_box( adm, 2+2, 11+2, 30+2, 32+2, CLEAR );
 2630              		.loc 1 1534 0
 2631 028e 2223     		mov	r3, #34
 2632 0290 0093     		str	r3, [sp]
 2633 0292 4023     		mov	r3, #64
 2634 0294 0193     		str	r3, [sp, #4]
 2635 0296 1F48     		ldr	r0, .L152+100
 2636 0298 0421     		mov	r1, #4
 2637 029a 0D22     		mov	r2, #13
 2638 029c 2023     		mov	r3, #32
 2639 029e FFF7FEFF 		bl	draw_box
 2640              	.LVL157:
 2641              	.L121:
1535:functions.c   **** 		}
1536:functions.c   **** 	}
1537:functions.c   **** 
1538:functions.c   **** }
 2642              		.loc 1 1538 0
 2643 02a2 03B0     		add	sp, sp, #12
 2644              		@ sp needed for prologue
 2645 02a4 30BC     		pop	{r4, r5}
 2646 02a6 01BC     		pop	{r0}
 2647 02a8 0047     		bx	r0
 2648              	.L153:
 2649 02aa C046C046 		.align	3
 2649      C046
 2650              	.L152:
 2651 02b0 33333333 		.word	858993459
 2652 02b4 33331340 		.word	1075000115
 2653 02b8 66666666 		.word	1717986918
 2654 02bc 66661240 		.word	1074947686
 2655 02c0 00000000 		.word	DensityPresVolts
 2656 02c4 00000000 		.word	MWarn
 2657 02c8 00000000 		.word	OKWarnBox
 2658 02cc 00000000 		.word	buzz_count
 2659 02d0 00000000 		.word	buzz_length
 2660 02d4 00000000 		.word	DensityPressureTooHigh
 2661 02d8 00000000 		.word	half_second
 2662 02dc 00000000 		.word	.LANCHOR0
 2663 02e0 00000000 		.word	NetWarningOn
 2664 02e4 00F6FFFF 		.word	-2560
 2665 02e8 00000000 		.word	KnifePresVolts
 2666 02ec 00000000 		.word	key
 2667 02f0 00000000 		.word	SecondScreen
 2668 02f4 00000000 		.word	swrel
 2669 02f8 00000000 		.word	DelayTime
 2670 02fc 00000000 		.word	DisableChoppingKnivesWarnings
 2671 0300 00000000 		.word	ChoppingKnives1WarningOn
 2672 0304 00000000 		.word	SupplyVolts
 2673 0308 00002841 		.word	1093140480
 2674 030c 00010000 		.word	.LANCHOR10
 2675 0310 00000000 		.word	BeepDelay
 2676 0314 00000000 		.word	adm
 2677              		.cfi_endproc
 2678              	.LFE386:
 2680              		.section	.text.ResetSequenceFactors,"ax",%progbits
 2681              		.align	2
 2682              		.global	ResetSequenceFactors
 2683              		.code	16
 2684              		.thumb_func
 2686              	ResetSequenceFactors:
 2687              	.LFB388:
1539:functions.c   **** // -----------------------------------------------------------
1540:functions.c   **** 
1541:functions.c   **** 
1542:functions.c   **** // -----------------------------------------------------------
1543:functions.c   **** // Function Name       : Sequence
1544:functions.c   **** // -----------------------------------------------------------
1545:functions.c   **** void Sequence( void )
1546:functions.c   **** {
1547:functions.c   **** 
1548:functions.c   **** 	static unsigned char Kniv1_IPOpenTime;
1549:functions.c   **** 	static unsigned long int LastNetPulseCount;
1550:functions.c   **** 
1551:functions.c   **** 
1552:functions.c   **** 	if( AllTime ) // Incremented every 100 msec in TC1_irq_handler; so this routine is executed once e
1553:functions.c   **** 	{
1554:functions.c   **** 		AllTime--;
1555:functions.c   **** 
1556:functions.c   **** 		if( AutoMan )
1557:functions.c   **** 		{
1558:functions.c   **** 
1559:functions.c   **** 			// -----------------------------------------------------------
1560:functions.c   **** 			// State machine:
1561:functions.c   **** 			// - only runs in AUTO mode -- this mode cannot be selected if chamber closed
1562:functions.c   **** 
1563:functions.c   **** 			switch( Stage )
1564:functions.c   **** 			{
1565:functions.c   **** 
1566:functions.c   **** 			// -----------------------------------------------------------
1567:functions.c   **** 			// State: 0
1568:functions.c   **** 
1569:functions.c   **** 			case STAGE_START:
1570:functions.c   **** 
1571:functions.c   **** 				if( StartAutoNet ) // Start Netting button pressed
1572:functions.c   **** 				{
1573:functions.c   **** 					Stage = STAGE_NETTING_START; // Go straight to Netting stage
1574:functions.c   **** 				}
1575:functions.c   **** 				else // Go to Formation stage
1576:functions.c   **** 				{
1577:functions.c   **** 					SequenceInProgress = 1;
1578:functions.c   **** 
1579:functions.c   **** 					OP8OnDelayTime = (unsigned char)(pFac.pf.GW302_PresSwDelay * 10.0);
1580:functions.c   **** 					OP8OffDelayTime = (unsigned char)(pFac.pf.GW302_PresSwDelay * 10.0);
1581:functions.c   **** 					Stage = STAGE_FORMATION; // Go to Formation stage
1582:functions.c   **** 
1583:functions.c   **** 				}
1584:functions.c   **** 				break;
1585:functions.c   **** 
1586:functions.c   **** 
1587:functions.c   **** 			// -----------------------------------------------------------
1588:functions.c   **** 			// State: 1
1589:functions.c   **** 
1590:functions.c   **** 			case STAGE_FORMATION:
1591:functions.c   **** 
1592:functions.c   **** 				if( StartAutoNet ) // Start Netting button pressed
1593:functions.c   **** 				{
1594:functions.c   **** 					Stage = STAGE_NETTING_START; // Go straight to Netting stage
1595:functions.c   **** 				}
1596:functions.c   **** 				else // Continuing Formation stage
1597:functions.c   **** 				{
1598:functions.c   **** 					SequenceInProgress = 1;
1599:functions.c   **** 
1600:functions.c   **** 					if( BaleDiaVolts > DiaFormationVolts )  // Formation diameter exceeded
1601:functions.c   **** 					{
1602:functions.c   **** 						OP8OnDelayTime = (unsigned char)(pFac.pf.GW302_PresSwDelay * 10.0);
1603:functions.c   **** 						OP8OffDelayTime = (unsigned char)(pFac.pf.GW302_PresSwDelay * 10.0);
1604:functions.c   **** 						Stage = STAGE_FORMATION2; // Go to Formation2 stage
1605:functions.c   **** 					}
1606:functions.c   **** 					else  // Formation diameter not yet reached
1607:functions.c   **** 					{
1608:functions.c   **** 						// -----------------------------------------------------------
1609:functions.c   **** 						// Density Control Function -- based on Formation Density
1610:functions.c   **** 
1611:functions.c   **** 						if( DensityPresVolts >= DensityFormationVolts ) // Target Formation density reached/exceeded
1612:functions.c   **** 						{
1613:functions.c   **** 							if( OP8OnDelayTime )
1614:functions.c   **** 								OP8OnDelayTime--;
1615:functions.c   **** 							else // Pres. Sw. delay has expired
1616:functions.c   **** 							{
1617:functions.c   **** 								SeqOpOn |= OP_DENSITY_REL; // OP8 ON: Density Release Solenoid (AKA Density Control)
1618:functions.c   **** 								OP8OffDelayTime = (unsigned char)(pFac.pf.GW302_PresSwDelay * 10.0);
1619:functions.c   **** 							}
1620:functions.c   **** 						}
1621:functions.c   **** 						else if( DensityPresVolts < (DensityFormationVolts - pFac.pf.GW302_PresDeadband) ) // Fallen 
1622:functions.c   **** 						{
1623:functions.c   **** 							if( OP8OffDelayTime )
1624:functions.c   **** 								OP8OffDelayTime--;
1625:functions.c   **** 							else // Pres. Sw. delay has expired
1626:functions.c   **** 							{
1627:functions.c   **** 								AllSeqOpOff(); // All OPs OFF
1628:functions.c   **** 								OP8OnDelayTime = (unsigned char)(pFac.pf.GW302_PresSwDelay * 10.0);
1629:functions.c   **** 							}
1630:functions.c   **** 						}
1631:functions.c   **** 					}
1632:functions.c   **** 				}
1633:functions.c   **** 				break;
1634:functions.c   **** 
1635:functions.c   **** 
1636:functions.c   **** 			// -----------------------------------------------------------
1637:functions.c   **** 			// State: 2
1638:functions.c   **** 
1639:functions.c   **** 			case STAGE_FORMATION2:
1640:functions.c   **** 
1641:functions.c   **** 				if( StartAutoNet ) // Start Netting button pressed
1642:functions.c   **** 				{
1643:functions.c   **** 					Stage = STAGE_NETTING_START; // Go straight to Netting stage
1644:functions.c   **** 				}
1645:functions.c   **** 				else // Continuing Formation2 stage
1646:functions.c   **** 				{
1647:functions.c   **** 					SequenceInProgress = 1;
1648:functions.c   **** 
1649:functions.c   **** 					if( BaleDiaVolts > DiaFormation2Volts )  // Formation2 diameter exceeded
1650:functions.c   **** 					{
1651:functions.c   **** 						OP8OnDelayTime = (unsigned char)(pFac.pf.GW302_PresSwDelay * 10.0);
1652:functions.c   **** 						OP8OffDelayTime = (unsigned char)(pFac.pf.GW302_PresSwDelay * 10.0);
1653:functions.c   **** 						Stage = STAGE_CORE; // Go to Core stage
1654:functions.c   **** 					}
1655:functions.c   **** 					else  // Formation2 diameter not yet reached
1656:functions.c   **** 					{
1657:functions.c   **** 						// -----------------------------------------------------------
1658:functions.c   **** 						// Density Control Function -- based on Formation2 Density
1659:functions.c   **** 
1660:functions.c   **** 						if( DensityPresVolts >= DensityFormation2Volts ) // Target Formation2 density reached/exceede
1661:functions.c   **** 						{
1662:functions.c   **** 							if( OP8OnDelayTime )
1663:functions.c   **** 								OP8OnDelayTime--;
1664:functions.c   **** 							else // Pres. Sw. delay has expired
1665:functions.c   **** 							{
1666:functions.c   **** 								SeqOpOn |= OP_DENSITY_REL; // OP8 ON: Density Release Solenoid (AKA Density Control)
1667:functions.c   **** 								OP8OffDelayTime = (unsigned char)(pFac.pf.GW302_PresSwDelay * 10.0);
1668:functions.c   **** 							}
1669:functions.c   **** 						}
1670:functions.c   **** 						else if( DensityPresVolts < (DensityFormation2Volts - pFac.pf.GW302_PresDeadband) ) // Fallen
1671:functions.c   **** 						{
1672:functions.c   **** 							if( OP8OffDelayTime )
1673:functions.c   **** 								OP8OffDelayTime--;
1674:functions.c   **** 							else // Pres. Sw. delay has expired
1675:functions.c   **** 							{
1676:functions.c   **** 								AllSeqOpOff(); // All OPs OFF
1677:functions.c   **** 								OP8OnDelayTime = (unsigned char)(pFac.pf.GW302_PresSwDelay * 10.0);
1678:functions.c   **** 							}
1679:functions.c   **** 						}
1680:functions.c   **** 					}
1681:functions.c   **** 				}
1682:functions.c   **** 				break;
1683:functions.c   **** 
1684:functions.c   **** 
1685:functions.c   **** 			// -----------------------------------------------------------
1686:functions.c   **** 			// State: 3
1687:functions.c   **** 
1688:functions.c   **** 			case STAGE_CORE:
1689:functions.c   **** 
1690:functions.c   **** 				if( StartAutoNet ) // Start Netting button pressed
1691:functions.c   **** 				{
1692:functions.c   **** 					Stage = STAGE_NETTING_START; // Go straight to Netting stage
1693:functions.c   **** 				}
1694:functions.c   **** 				else // Continuing Core stage
1695:functions.c   **** 				{
1696:functions.c   **** 					SequenceInProgress = 1;
1697:functions.c   **** 
1698:functions.c   **** 					if( BaleDiaVolts > DiaCoreVolts )  // Core diameter exceeded
1699:functions.c   **** 					{
1700:functions.c   **** 						OP8OnDelayTime = (unsigned char)(pFac.pf.GW302_PresSwDelay * 10.0);
1701:functions.c   **** 						OP8OffDelayTime = (unsigned char)(pFac.pf.GW302_PresSwDelay * 10.0);
1702:functions.c   **** 						Stage = STAGE_MAIN; // Go to Main stage
1703:functions.c   **** 					}
1704:functions.c   **** 					else  // Core diameter not yet reached
1705:functions.c   **** 					{
1706:functions.c   **** 						// -----------------------------------------------------------
1707:functions.c   **** 						// Density Control Function -- based on Bale Core Density
1708:functions.c   **** 
1709:functions.c   **** 						if( DensityPresVolts >= DensityCoreVolts ) // Target core density reached/exceeded
1710:functions.c   **** 						{
1711:functions.c   **** 							if( OP8OnDelayTime )
1712:functions.c   **** 								OP8OnDelayTime--;
1713:functions.c   **** 							else // Pres. Sw. delay has expired
1714:functions.c   **** 							{
1715:functions.c   **** 								SeqOpOn |= OP_DENSITY_REL; // OP8 ON: Density Release Solenoid (AKA Density Control)
1716:functions.c   **** 								OP8OffDelayTime = (unsigned char)(pFac.pf.GW302_PresSwDelay * 10.0);
1717:functions.c   **** 							}
1718:functions.c   **** 						}
