Archive member included because of file (symbol)

c:/gnuarm-471_eabi/bin/../lib/gcc/arm-none-eabi/4.7.1/thumb\libgcc.a(_udivsi3.o)
                              functions.o (__aeabi_uidiv)
c:/gnuarm-471_eabi/bin/../lib/gcc/arm-none-eabi/4.7.1/thumb\libgcc.a(_divsi3.o)
                              functions.o (__aeabi_idiv)
c:/gnuarm-471_eabi/bin/../lib/gcc/arm-none-eabi/4.7.1/thumb\libgcc.a(_dvmd_tls.o)
                              c:/gnuarm-471_eabi/bin/../lib/gcc/arm-none-eabi/4.7.1/thumb\libgcc.a(_udivsi3.o) (__aeabi_idiv0)
c:/gnuarm-471_eabi/bin/../lib/gcc/arm-none-eabi/4.7.1/thumb\libgcc.a(_arm_addsubdf3.o)
                              functions.o (__aeabi_dsub)
c:/gnuarm-471_eabi/bin/../lib/gcc/arm-none-eabi/4.7.1/thumb\libgcc.a(_arm_muldivdf3.o)
                              functions.o (__aeabi_dmul)
c:/gnuarm-471_eabi/bin/../lib/gcc/arm-none-eabi/4.7.1/thumb\libgcc.a(_arm_cmpdf2.o)
                              functions.o (__aeabi_dcmplt)
c:/gnuarm-471_eabi/bin/../lib/gcc/arm-none-eabi/4.7.1/thumb\libgcc.a(_arm_fixunsdfsi.o)
                              functions.o (__aeabi_d2uiz)
c:/gnuarm-471_eabi/bin/../lib/gcc/arm-none-eabi/4.7.1/thumb\libgcc.a(_arm_truncdfsf2.o)
                              functions.o (__aeabi_d2f)
c:/gnuarm-471_eabi/bin/../lib/gcc/arm-none-eabi/4.7.1/thumb\libgcc.a(_arm_addsubsf3.o)
                              functions.o (__aeabi_fsub)
c:/gnuarm-471_eabi/bin/../lib/gcc/arm-none-eabi/4.7.1/thumb\libgcc.a(_arm_muldivsf3.o)
                              functions.o (__aeabi_fmul)
c:/gnuarm-471_eabi/bin/../lib/gcc/arm-none-eabi/4.7.1/thumb\libgcc.a(_arm_cmpsf2.o)
                              functions.o (__aeabi_fcmplt)
c:/gnuarm-471_eabi/bin/../lib/gcc/arm-none-eabi/4.7.1/thumb\libgcc.a(_arm_fixunssfsi.o)
                              functions.o (__aeabi_f2uiz)
c:/gnuarm-471_eabi/bin/../lib/gcc/arm-none-eabi/4.7.1/../../../../arm-none-eabi/lib/thumb\libg.a(lib_a-atoff.o)
                              display.o (atoff)
c:/gnuarm-471_eabi/bin/../lib/gcc/arm-none-eabi/4.7.1/../../../../arm-none-eabi/lib/thumb\libg.a(lib_a-atoi.o)
                              display.o (atoi)
c:/gnuarm-471_eabi/bin/../lib/gcc/arm-none-eabi/4.7.1/../../../../arm-none-eabi/lib/thumb\libg.a(lib_a-atol.o)
                              display.o (atol)
c:/gnuarm-471_eabi/bin/../lib/gcc/arm-none-eabi/4.7.1/../../../../arm-none-eabi/lib/thumb\libg.a(lib_a-memcpy-stub.o)
                              tasks.o (memcpy)
c:/gnuarm-471_eabi/bin/../lib/gcc/arm-none-eabi/4.7.1/../../../../arm-none-eabi/lib/thumb\libg.a(lib_a-memset.o)
                              tasks.o (memset)
c:/gnuarm-471_eabi/bin/../lib/gcc/arm-none-eabi/4.7.1/../../../../arm-none-eabi/lib/thumb\libg.a(lib_a-sprintf.o)
                              functions.o (sprintf)
c:/gnuarm-471_eabi/bin/../lib/gcc/arm-none-eabi/4.7.1/../../../../arm-none-eabi/lib/thumb\libg.a(lib_a-strcat.o)
                              tasks.o (strcat)
c:/gnuarm-471_eabi/bin/../lib/gcc/arm-none-eabi/4.7.1/../../../../arm-none-eabi/lib/thumb\libg.a(lib_a-strcpy.o)
                              display.o (strcpy)
c:/gnuarm-471_eabi/bin/../lib/gcc/arm-none-eabi/4.7.1/../../../../arm-none-eabi/lib/thumb\libg.a(lib_a-strlen.o)
                              display.o (strlen)
c:/gnuarm-471_eabi/bin/../lib/gcc/arm-none-eabi/4.7.1/../../../../arm-none-eabi/lib/thumb\libg.a(lib_a-strncpy.o)
                              tasks.o (strncpy)
c:/gnuarm-471_eabi/bin/../lib/gcc/arm-none-eabi/4.7.1/../../../../arm-none-eabi/lib/thumb\libg.a(lib_a-strtod.o)
                              c:/gnuarm-471_eabi/bin/../lib/gcc/arm-none-eabi/4.7.1/../../../../arm-none-eabi/lib/thumb\libg.a(lib_a-atoff.o) (strtof)
c:/gnuarm-471_eabi/bin/../lib/gcc/arm-none-eabi/4.7.1/../../../../arm-none-eabi/lib/thumb\libg.a(lib_a-strtol.o)
                              c:/gnuarm-471_eabi/bin/../lib/gcc/arm-none-eabi/4.7.1/../../../../arm-none-eabi/lib/thumb\libg.a(lib_a-atoi.o) (_strtol_r)
c:/gnuarm-471_eabi/bin/../lib/gcc/arm-none-eabi/4.7.1/../../../../arm-none-eabi/lib/thumb\libg.a(lib_a-svfprintf.o)
                              c:/gnuarm-471_eabi/bin/../lib/gcc/arm-none-eabi/4.7.1/../../../../arm-none-eabi/lib/thumb\libg.a(lib_a-sprintf.o) (_svfprintf_r)
c:/gnuarm-471_eabi/bin/../lib/gcc/arm-none-eabi/4.7.1/../../../../arm-none-eabi/lib/thumb\libg.a(lib_a-ctype_.o)
                              c:/gnuarm-471_eabi/bin/../lib/gcc/arm-none-eabi/4.7.1/../../../../arm-none-eabi/lib/thumb\libg.a(lib_a-strtol.o) (__ctype_ptr__)
c:/gnuarm-471_eabi/bin/../lib/gcc/arm-none-eabi/4.7.1/../../../../arm-none-eabi/lib/thumb\libg.a(lib_a-dtoa.o)
                              c:/gnuarm-471_eabi/bin/../lib/gcc/arm-none-eabi/4.7.1/../../../../arm-none-eabi/lib/thumb\libg.a(lib_a-svfprintf.o) (_dtoa_r)
c:/gnuarm-471_eabi/bin/../lib/gcc/arm-none-eabi/4.7.1/../../../../arm-none-eabi/lib/thumb\libg.a(lib_a-gdtoa-gethex.o)
                              c:/gnuarm-471_eabi/bin/../lib/gcc/arm-none-eabi/4.7.1/../../../../arm-none-eabi/lib/thumb\libg.a(lib_a-strtod.o) (__gethex)
c:/gnuarm-471_eabi/bin/../lib/gcc/arm-none-eabi/4.7.1/../../../../arm-none-eabi/lib/thumb\libg.a(lib_a-gdtoa-hexnan.o)
                              c:/gnuarm-471_eabi/bin/../lib/gcc/arm-none-eabi/4.7.1/../../../../arm-none-eabi/lib/thumb\libg.a(lib_a-strtod.o) (__hexnan)
c:/gnuarm-471_eabi/bin/../lib/gcc/arm-none-eabi/4.7.1/../../../../arm-none-eabi/lib/thumb\libg.a(lib_a-impure.o)
                              c:/gnuarm-471_eabi/bin/../lib/gcc/arm-none-eabi/4.7.1/../../../../arm-none-eabi/lib/thumb\libg.a(lib_a-sprintf.o) (_impure_ptr)
c:/gnuarm-471_eabi/bin/../lib/gcc/arm-none-eabi/4.7.1/../../../../arm-none-eabi/lib/thumb\libg.a(lib_a-locale.o)
                              c:/gnuarm-471_eabi/bin/../lib/gcc/arm-none-eabi/4.7.1/../../../../arm-none-eabi/lib/thumb\libg.a(lib_a-strtod.o) (_localeconv_r)
c:/gnuarm-471_eabi/bin/../lib/gcc/arm-none-eabi/4.7.1/../../../../arm-none-eabi/lib/thumb\libg.a(lib_a-mallocr.o)
                              c:/gnuarm-471_eabi/bin/../lib/gcc/arm-none-eabi/4.7.1/../../../../arm-none-eabi/lib/thumb\libg.a(lib_a-svfprintf.o) (_malloc_r)
c:/gnuarm-471_eabi/bin/../lib/gcc/arm-none-eabi/4.7.1/../../../../arm-none-eabi/lib/thumb\libg.a(lib_a-memchr-stub.o)
                              c:/gnuarm-471_eabi/bin/../lib/gcc/arm-none-eabi/4.7.1/../../../../arm-none-eabi/lib/thumb\libg.a(lib_a-svfprintf.o) (memchr)
c:/gnuarm-471_eabi/bin/../lib/gcc/arm-none-eabi/4.7.1/../../../../arm-none-eabi/lib/thumb\libg.a(lib_a-mlock.o)
                              c:/gnuarm-471_eabi/bin/../lib/gcc/arm-none-eabi/4.7.1/../../../../arm-none-eabi/lib/thumb\libg.a(lib_a-mallocr.o) (__malloc_lock)
c:/gnuarm-471_eabi/bin/../lib/gcc/arm-none-eabi/4.7.1/../../../../arm-none-eabi/lib/thumb\libg.a(lib_a-mprec.o)
                              c:/gnuarm-471_eabi/bin/../lib/gcc/arm-none-eabi/4.7.1/../../../../arm-none-eabi/lib/thumb\libg.a(lib_a-strtod.o) (_Balloc)
c:/gnuarm-471_eabi/bin/../lib/gcc/arm-none-eabi/4.7.1/../../../../arm-none-eabi/lib/thumb\libg.a(lib_a-s_fpclassify.o)
                              c:/gnuarm-471_eabi/bin/../lib/gcc/arm-none-eabi/4.7.1/../../../../arm-none-eabi/lib/thumb\libg.a(lib_a-strtod.o) (__fpclassifyd)
c:/gnuarm-471_eabi/bin/../lib/gcc/arm-none-eabi/4.7.1/../../../../arm-none-eabi/lib/thumb\libg.a(lib_a-sf_nan.o)
                              c:/gnuarm-471_eabi/bin/../lib/gcc/arm-none-eabi/4.7.1/../../../../arm-none-eabi/lib/thumb\libg.a(lib_a-strtod.o) (nanf)
c:/gnuarm-471_eabi/bin/../lib/gcc/arm-none-eabi/4.7.1/../../../../arm-none-eabi/lib/thumb\libg.a(lib_a-strcmp.o)
                              c:/gnuarm-471_eabi/bin/../lib/gcc/arm-none-eabi/4.7.1/../../../../arm-none-eabi/lib/thumb\libg.a(lib_a-locale.o) (strcmp)
c:/gnuarm-471_eabi/bin/../lib/gcc/arm-none-eabi/4.7.1/../../../../arm-none-eabi/lib/thumb\libg.a(lib_a-strncmp.o)
                              c:/gnuarm-471_eabi/bin/../lib/gcc/arm-none-eabi/4.7.1/../../../../arm-none-eabi/lib/thumb\libg.a(lib_a-strtod.o) (strncmp)
c:/gnuarm-471_eabi/bin/../lib/gcc/arm-none-eabi/4.7.1/../../../../arm-none-eabi/lib/thumb\libg.a(lib_a-svfiprintf.o)
                              c:/gnuarm-471_eabi/bin/../lib/gcc/arm-none-eabi/4.7.1/../../../../arm-none-eabi/lib/thumb\libg.a(lib_a-svfprintf.o) (__ssprint_r)
c:/gnuarm-471_eabi/bin/../lib/gcc/arm-none-eabi/4.7.1/../../../../arm-none-eabi/lib/thumb\libg.a(lib_a-callocr.o)
                              c:/gnuarm-471_eabi/bin/../lib/gcc/arm-none-eabi/4.7.1/../../../../arm-none-eabi/lib/thumb\libg.a(lib_a-mprec.o) (_calloc_r)
c:/gnuarm-471_eabi/bin/../lib/gcc/arm-none-eabi/4.7.1/../../../../arm-none-eabi/lib/thumb\libg.a(lib_a-freer.o)
                              c:/gnuarm-471_eabi/bin/../lib/gcc/arm-none-eabi/4.7.1/../../../../arm-none-eabi/lib/thumb\libg.a(lib_a-mallocr.o) (_free_r)
c:/gnuarm-471_eabi/bin/../lib/gcc/arm-none-eabi/4.7.1/../../../../arm-none-eabi/lib/thumb\libg.a(lib_a-memmove.o)
                              c:/gnuarm-471_eabi/bin/../lib/gcc/arm-none-eabi/4.7.1/../../../../arm-none-eabi/lib/thumb\libg.a(lib_a-svfiprintf.o) (memmove)
c:/gnuarm-471_eabi/bin/../lib/gcc/arm-none-eabi/4.7.1/../../../../arm-none-eabi/lib/thumb\libg.a(lib_a-reallocr.o)
                              c:/gnuarm-471_eabi/bin/../lib/gcc/arm-none-eabi/4.7.1/../../../../arm-none-eabi/lib/thumb\libg.a(lib_a-svfiprintf.o) (_realloc_r)
c:/gnuarm-471_eabi/bin/../lib/gcc/arm-none-eabi/4.7.1/thumb\libgcc.a(_arm_fixdfsi.o)
                              c:/gnuarm-471_eabi/bin/../lib/gcc/arm-none-eabi/4.7.1/../../../../arm-none-eabi/lib/thumb\libg.a(lib_a-strtod.o) (__aeabi_d2iz)

Allocating common symbols
Common symbol       size              file

SeqOpOn             0x4               functions.o
TxCOM0              0x4               serial.o
windowdepth         0x1               functions.o
ChamberOpenDelayTime
                    0x1               functions.o
DiaFormation2Volts  0x4               functions.o
DiaPreWarnVolts     0x4               functions.o
Kniv1_IPClosed      0x1               functions.o
BaleShapeVolts      0x4               functions.o
NetPulsesPerLayer   0x4               functions.o
OP8OnCount          0x1               functions.o
DensityBaleVolts    0x4               functions.o
NetPulseFrequency   0x4               functions.o
lastoutput          0x1               screens.o
TWItaskhandle       0x4               Cstartup_SAM7.o
leaf                0x1               functions.o
SupplyVolts         0x4               functions.o
PowerSwitchedOff    0x1               functions.o
f6count             0x2               functions.o
valuechanged        0x1               functions.o
TargetNetPulses     0x2               functions.o
SecondScreen        0x1               screens.o
startup             0x1               functions.o
DiaTargetExtDisplayPercent
                    0x4               functions.o
savecal             0x1               functions.o
OP8OnDelayTime      0x1               functions.o
keytime             0x1               screens.o
BaleKickerStatus    0x1               functions.o
BeakEngagePulseCount
                    0x4               functions.o
EOC7_interrupt_count
                    0x4               functions.o
target_bale_dia_reached_cont_beep
                    0x1               functions.o
NetPulseCount       0x4               functions.o
KnifePresVolts      0x4               functions.o
AutoMan             0x1               functions.o
OP8OffDelayTime     0x1               functions.o
DensityFormation2Volts
                    0x4               functions.o
TC1_millisec_count  0x4               functions.o
POWERtaskhandle     0x4               Cstartup_SAM7.o
ChamberOpenBeepDelay
                    0x1               functions.o
escape              0x1               functions.o
DelayTime           0x1               functions.o
cal_speed_pulses    0x4               functions.o
KeyOpOn             0x4               functions.o
__hexdig            0x100             c:/gnuarm-471_eabi/bin/../lib/gcc/arm-none-eabi/4.7.1/../../../../arm-none-eabi/lib/thumb\libg.a(lib_a-gdtoa-gethex.o)
TC1_interrupt_count
                    0x4               functions.o
DiaMaxVolts         0x4               functions.o
NetWarningOn        0x1               functions.o
DensityControlFunctionActive
                    0x1               functions.o
KnifePresVoltsTotAccumMultSamples
                    0x4               functions.o
DensityFormationVolts
                    0x4               functions.o
NetMetresPulseCount
                    0x4               functions.o
selection           0x1               functions.o
tl_target_count     0x2               functions.o
OP5TurnedOnAfterBeakEngagePulsesEnabled
                    0x1               functions.o
offtime             0x1               functions.o
number              0x10              functions.o
nextoutput          0x1               screens.o
SetTime             0x4               Cstartup_SAM7.o
BaleDiaVolts        0x4               functions.o
RunFactorStatus     0x1               functions.o
NetPulseCountAtLastCheck
                    0x4               functions.o
RollEngageTurnedOnInManMode
                    0x1               functions.o
looptime            0x1               functions.o
RollEngageTurnedOn  0x1               functions.o
OP7OffDelayTime     0x1               functions.o
ChamberStatus       0x1               functions.o
buzz_length         0x4               functions.o
swrel               0x1               functions.o
NetWarningDisabledWhileIP3OpenInAutoMode
                    0x1               functions.o
nextwindow          0x1               functions.o
DiaCoreVolts        0x4               functions.o
ContinueOnKeyRelease
                    0x1               functions.o
DiaMinVolts         0x4               functions.o
OP2OnDelayTime      0x1               functions.o
reverttime          0x1               functions.o
end_chamber_open_delay_cont_beep
                    0x1               functions.o
buffer              0xa80             functions.o
cont_beep           0x1               functions.o
ChamberClosedDelayTime
                    0x1               functions.o
KnifePresWasHigh    0x1               screens.o
IP4PulsesStoppedCount
                    0x1               functions.o
newf6               0x1               functions.o
adm                 0xa00             functions.o
DiaFormationVolts   0x4               functions.o
NetPulseCheckingEnabled
                    0x1               functions.o
OP2OffDelayTime     0x1               functions.o
ChoppingKnives1WarningOn
                    0x1               functions.o
DiaMinExtDisplayPercent
                    0x4               functions.o
NetPulseCountPrev   0x4               functions.o
f6time              0x4               functions.o
SavecalDelayWithinMenus
                    0x1               functions.o
NewNetPulses        0x4               functions.o
BaleShapeVoltsTotAccumMultSamples
                    0x4               functions.o
AllTime             0x1               functions.o
key                 0x4               functions.o
StartAutoNet        0x1               functions.o
PreviousWindow      0x80              functions.o
DensityPresVolts    0x4               functions.o
DisableChoppingKnivesWarnings
                    0x1               functions.o
SavecalDelayOnMainDisplay
                    0x1               functions.o
OKWarnBox           0x1               screens.o
MWarn               0x1               screens.o
start_chamber_open_delay_cont_beep
                    0x1               functions.o
ClockRam            0x10              functions.o
f0count             0x2               functions.o
f0time              0x4               functions.o
RxCOM0              0x4               serial.o
SelectedBaleStore   0x1               screens.o
Stage               0x1               functions.o
DiaTargetVolts      0x4               functions.o
DensityPresVoltsTotAccumMultSamples
                    0x4               functions.o
mcm                 0x48              functions.o
BalerFullDelayTime  0x1               functions.o
DiaEngageVolts      0x4               functions.o
off_length          0x4               functions.o
SavedRollEngageTurnedOn
                    0x1               functions.o
tl_confimation_delay
                    0x2               functions.o
DensityCoreVolts    0x4               functions.o
deftime             0x1               functions.o
DensityPressureTooHigh
                    0x1               functions.o
SavedOP5TurnedOnAfterBeakEngagePulsesEnabled
                    0x1               functions.o
KeyOpOff            0x4               functions.o
SeqOpOff            0x4               functions.o
editing             0x1               functions.o
NetMetresAppliedForCount
                    0x4               functions.o
window              0x4               functions.o
BaleDiameterStatusInManMode
                    0x1               functions.o
SequenceInProgress  0x1               functions.o
NettingStartBeepsDisabledWhileIP3OpenInAutoMode
                    0x1               functions.o
NetWarningDelayTime
                    0x1               functions.o
BaleDiaVoltsTotAccumMultSamples
                    0x4               functions.o
BaleDiaExtDisplayPercent
                    0x4               functions.o
DrivingArrowBeepsDisabled
                    0x1               functions.o
BeepDelay           0x1               functions.o
buzz_count          0x1               functions.o
pre_warning_cont_beep
                    0x1               functions.o
knivesdelay         0x1               functions.o
Screen100Page       0x1               screens.o
TC1_count0          0x4               functions.o
ptText              0x4               functions.o
stagecomp           0x1               functions.o
half_second         0x1               functions.o

Discarded input sections

 .data          0x00000000        0x0 Cstartup.o
 .bss           0x00000000        0x0 Cstartup.o
 .group         0x00000000        0x8 Cstartup_SAM7.o
 .group         0x00000000        0x8 Cstartup_SAM7.o
 .group         0x00000000        0x8 Cstartup_SAM7.o
 .group         0x00000000        0x8 Cstartup_SAM7.o
 .group         0x00000000        0x8 Cstartup_SAM7.o
 .group         0x00000000        0x8 Cstartup_SAM7.o
 .group         0x00000000        0x8 Cstartup_SAM7.o
 .group         0x00000000        0x8 Cstartup_SAM7.o
 .group         0x00000000        0x8 Cstartup_SAM7.o
 .group         0x00000000        0x8 Cstartup_SAM7.o
 .group         0x00000000        0x8 Cstartup_SAM7.o
 .group         0x00000000        0x8 Cstartup_SAM7.o
 .group         0x00000000        0x8 Cstartup_SAM7.o
 .group         0x00000000        0x8 Cstartup_SAM7.o
 .group         0x00000000        0x8 Cstartup_SAM7.o
 .group         0x00000000        0x8 Cstartup_SAM7.o
 .group         0x00000000        0x8 Cstartup_SAM7.o
 .text          0x00000000        0x0 Cstartup_SAM7.o
 .data          0x00000000        0x0 Cstartup_SAM7.o
 .bss           0x00000000        0x0 Cstartup_SAM7.o
 .group         0x00000000        0x8 syscalls.o
 .group         0x00000000        0x8 syscalls.o
 .group         0x00000000        0x8 syscalls.o
 .group         0x00000000        0x8 syscalls.o
 .group         0x00000000        0x8 syscalls.o
 .group         0x00000000        0x8 syscalls.o
 .group         0x00000000        0x8 syscalls.o
 .group         0x00000000        0x8 syscalls.o
 .group         0x00000000        0x8 syscalls.o
 .group         0x00000000        0x8 syscalls.o
 .group         0x00000000        0x8 syscalls.o
 .group         0x00000000        0x8 syscalls.o
 .group         0x00000000        0x8 syscalls.o
 .group         0x00000000        0x8 syscalls.o
 .group         0x00000000        0x8 syscalls.o
 .group         0x00000000        0x8 syscalls.o
 .group         0x00000000        0x8 syscalls.o
 .group         0x00000000        0x8 syscalls.o
 .group         0x00000000        0x8 syscalls.o
 .group         0x00000000        0x8 syscalls.o
 .group         0x00000000        0x8 syscalls.o
 .group         0x00000000        0x8 syscalls.o
 .group         0x00000000        0x8 syscalls.o
 .group         0x00000000        0x8 syscalls.o
 .group         0x00000000        0x8 syscalls.o
 .group         0x00000000        0x8 syscalls.o
 .group         0x00000000        0x8 syscalls.o
 .group         0x00000000        0x8 syscalls.o
 .group         0x00000000        0x8 syscalls.o
 .group         0x00000000        0x8 syscalls.o
 .group         0x00000000        0x8 syscalls.o
 .group         0x00000000        0x8 syscalls.o
 .group         0x00000000        0x8 syscalls.o
 .group         0x00000000        0x8 syscalls.o
 .group         0x00000000        0x8 syscalls.o
 .text          0x00000000        0x0 syscalls.o
 .data          0x00000000        0x0 syscalls.o
 .bss           0x00000000        0x0 syscalls.o
 .text._read_r  0x00000000       0x70 syscalls.o
 .text._write_r
                0x00000000       0x70 syscalls.o
 .text._close_r
                0x00000000        0x8 syscalls.o
 .text.isatty   0x00000000        0x8 syscalls.o
 .text._lseek_r
                0x00000000        0x8 syscalls.o
 .text._fstat_r
                0x00000000       0x10 syscalls.o
 .debug_macro   0x00000000      0x7d2 syscalls.o
 .debug_macro   0x00000000       0x29 syscalls.o
 .debug_macro   0x00000000     0x34e5 syscalls.o
 .debug_macro   0x00000000       0x80 syscalls.o
 .debug_macro   0x00000000      0x16c syscalls.o
 .debug_macro   0x00000000       0x46 syscalls.o
 .debug_macro   0x00000000       0xd0 syscalls.o
 .debug_macro   0x00000000       0x98 syscalls.o
 .debug_macro   0x00000000       0x12 syscalls.o
 .debug_macro   0x00000000       0x1e syscalls.o
 .debug_macro   0x00000000      0x193 syscalls.o
 .debug_macro   0x00000000       0x42 syscalls.o
 .debug_macro   0x00000000       0x56 syscalls.o
 .debug_macro   0x00000000       0x6a syscalls.o
 .debug_macro   0x00000000       0x62 syscalls.o
 .debug_macro   0x00000000      0x36f syscalls.o
 .debug_macro   0x00000000      0x7c1 syscalls.o
 .group         0x00000000        0x8 portISR.o
 .group         0x00000000        0x8 portISR.o
 .group         0x00000000        0x8 portISR.o
 .group         0x00000000        0x8 portISR.o
 .group         0x00000000        0x8 portISR.o
 .group         0x00000000        0x8 portISR.o
 .group         0x00000000        0x8 portISR.o
 .group         0x00000000        0x8 portISR.o
 .group         0x00000000        0x8 portISR.o
 .group         0x00000000        0x8 portISR.o
 .group         0x00000000        0x8 portISR.o
 .group         0x00000000        0x8 portISR.o
 .group         0x00000000        0x8 portISR.o
 .group         0x00000000        0x8 portISR.o
 .group         0x00000000        0x8 portISR.o
 .group         0x00000000        0x8 portISR.o
 .group         0x00000000        0x8 portISR.o
 .text          0x00000000        0x0 portISR.o
 .data          0x00000000        0x0 portISR.o
 .bss           0x00000000        0x0 portISR.o
 .text.vPortEnableInterruptsFromThumb
                0x00000000       0x18 portISR.o
 .debug_macro   0x00000000      0x7d2 portISR.o
 .debug_macro   0x00000000       0x29 portISR.o
 .debug_macro   0x00000000     0x34e5 portISR.o
 .debug_macro   0x00000000       0x80 portISR.o
 .debug_macro   0x00000000      0x16c portISR.o
 .debug_macro   0x00000000       0x46 portISR.o
 .debug_macro   0x00000000       0xd0 portISR.o
 .debug_macro   0x00000000       0x98 portISR.o
 .debug_macro   0x00000000       0x12 portISR.o
 .debug_macro   0x00000000       0x1e portISR.o
 .debug_macro   0x00000000      0x193 portISR.o
 .debug_macro   0x00000000       0x42 portISR.o
 .debug_macro   0x00000000       0x56 portISR.o
 .debug_macro   0x00000000       0x6a portISR.o
 .debug_macro   0x00000000       0x62 portISR.o
 .debug_macro   0x00000000      0x36f portISR.o
 .debug_macro   0x00000000      0x7c1 portISR.o
 .group         0x00000000        0x8 interrupts.o
 .group         0x00000000        0x8 interrupts.o
 .group         0x00000000        0x8 interrupts.o
 .group         0x00000000        0x8 interrupts.o
 .group         0x00000000        0x8 interrupts.o
 .group         0x00000000        0x8 interrupts.o
 .group         0x00000000        0x8 interrupts.o
 .group         0x00000000        0x8 interrupts.o
 .group         0x00000000        0x8 interrupts.o
 .group         0x00000000        0x8 interrupts.o
 .group         0x00000000        0x8 interrupts.o
 .group         0x00000000        0x8 interrupts.o
 .group         0x00000000        0x8 interrupts.o
 .group         0x00000000        0x8 interrupts.o
 .group         0x00000000        0x8 interrupts.o
 .group         0x00000000        0x8 interrupts.o
 .group         0x00000000        0x8 interrupts.o
 .group         0x00000000        0x8 interrupts.o
 .group         0x00000000        0x8 interrupts.o
 .group         0x00000000        0x8 interrupts.o
 .group         0x00000000        0x8 interrupts.o
 .group         0x00000000        0x8 interrupts.o
 .group         0x00000000        0x8 interrupts.o
 .group         0x00000000        0x8 interrupts.o
 .group         0x00000000        0x8 interrupts.o
 .group         0x00000000        0x8 interrupts.o
 .group         0x00000000        0x8 interrupts.o
 .text          0x00000000        0x0 interrupts.o
 .data          0x00000000        0x0 interrupts.o
 .bss           0x00000000        0x0 interrupts.o
 .text.debug_serial_setup
                0x00000000       0x48 interrupts.o
 .debug_macro   0x00000000      0x7d2 interrupts.o
 .debug_macro   0x00000000       0x29 interrupts.o
 .debug_macro   0x00000000     0x34e5 interrupts.o
 .debug_macro   0x00000000       0x80 interrupts.o
 .debug_macro   0x00000000      0x16c interrupts.o
 .debug_macro   0x00000000       0x46 interrupts.o
 .debug_macro   0x00000000       0xd0 interrupts.o
 .debug_macro   0x00000000       0x98 interrupts.o
 .debug_macro   0x00000000       0x12 interrupts.o
 .debug_macro   0x00000000       0x1e interrupts.o
 .debug_macro   0x00000000      0x193 interrupts.o
 .debug_macro   0x00000000       0x42 interrupts.o
 .debug_macro   0x00000000       0x56 interrupts.o
 .debug_macro   0x00000000       0x6a interrupts.o
 .debug_macro   0x00000000       0x62 interrupts.o
 .debug_macro   0x00000000      0x36f interrupts.o
 .debug_macro   0x00000000      0x7c1 interrupts.o
 .debug_macro   0x00000000       0x2e interrupts.o
 .debug_macro   0x00000000       0x94 interrupts.o
 .debug_macro   0x00000000       0x10 interrupts.o
 .debug_macro   0x00000000       0x35 interrupts.o
 .debug_macro   0x00000000       0x3a interrupts.o
 .debug_macro   0x00000000       0x52 interrupts.o
 .debug_macro   0x00000000       0x43 interrupts.o
 .debug_macro   0x00000000      0x16d interrupts.o
 .debug_macro   0x00000000       0x16 interrupts.o
 .debug_macro   0x00000000       0x23 interrupts.o
 .group         0x00000000        0x8 main.o
 .group         0x00000000        0x8 main.o
 .group         0x00000000        0x8 main.o
 .group         0x00000000        0x8 main.o
 .group         0x00000000        0x8 main.o
 .group         0x00000000        0x8 main.o
 .group         0x00000000        0x8 main.o
 .group         0x00000000        0x8 main.o
 .group         0x00000000        0x8 main.o
 .group         0x00000000        0x8 main.o
 .group         0x00000000        0x8 main.o
 .group         0x00000000        0x8 main.o
 .group         0x00000000        0x8 main.o
 .group         0x00000000        0x8 main.o
 .group         0x00000000        0x8 main.o
 .group         0x00000000        0x8 main.o
 .group         0x00000000        0x8 main.o
 .group         0x00000000        0x8 main.o
 .group         0x00000000        0x8 main.o
 .group         0x00000000        0x8 main.o
 .group         0x00000000        0x8 main.o
 .group         0x00000000        0x8 main.o
 .group         0x00000000        0x8 main.o
 .group         0x00000000        0x8 main.o
 .group         0x00000000        0x8 main.o
 .group         0x00000000        0x8 main.o
 .group         0x00000000        0x8 main.o
 .group         0x00000000        0x8 main.o
 .group         0x00000000        0x8 main.o
 .group         0x00000000        0x8 main.o
 .group         0x00000000        0x8 main.o
 .text          0x00000000        0x0 main.o
 .data          0x00000000        0x0 main.o
 .bss           0x00000000        0x0 main.o
 .debug_macro   0x00000000       0x29 main.o
 .debug_macro   0x00000000     0x34e5 main.o
 .debug_macro   0x00000000       0x80 main.o
 .debug_macro   0x00000000      0x16c main.o
 .debug_macro   0x00000000       0x46 main.o
 .debug_macro   0x00000000       0xd0 main.o
 .debug_macro   0x00000000       0x98 main.o
 .debug_macro   0x00000000       0x12 main.o
 .debug_macro   0x00000000       0x1e main.o
 .debug_macro   0x00000000      0x193 main.o
 .debug_macro   0x00000000       0x42 main.o
 .debug_macro   0x00000000       0x56 main.o
 .debug_macro   0x00000000       0x6a main.o
 .debug_macro   0x00000000       0x62 main.o
 .debug_macro   0x00000000      0x36f main.o
 .debug_macro   0x00000000      0x7c1 main.o
 .debug_macro   0x00000000       0x2e main.o
 .debug_macro   0x00000000       0x94 main.o
 .debug_macro   0x00000000       0x35 main.o
 .debug_macro   0x00000000       0x3a main.o
 .debug_macro   0x00000000       0x52 main.o
 .debug_macro   0x00000000       0x43 main.o
 .debug_macro   0x00000000      0x16d main.o
 .debug_macro   0x00000000       0x10 main.o
 .debug_macro   0x00000000       0x22 main.o
 .debug_macro   0x00000000       0x91 main.o
 .group         0x00000000        0x8 heap_2.o
 .group         0x00000000        0x8 heap_2.o
 .group         0x00000000        0x8 heap_2.o
 .group         0x00000000        0x8 heap_2.o
 .group         0x00000000        0x8 heap_2.o
 .group         0x00000000        0x8 heap_2.o
 .group         0x00000000        0x8 heap_2.o
 .group         0x00000000        0x8 heap_2.o
 .group         0x00000000        0x8 heap_2.o
 .group         0x00000000        0x8 heap_2.o
 .group         0x00000000        0x8 heap_2.o
 .group         0x00000000        0x8 heap_2.o
 .group         0x00000000        0x8 heap_2.o
 .group         0x00000000        0x8 heap_2.o
 .group         0x00000000        0x8 heap_2.o
 .group         0x00000000        0x8 heap_2.o
 .group         0x00000000        0x8 heap_2.o
 .group         0x00000000        0x8 heap_2.o
 .group         0x00000000        0x8 heap_2.o
 .group         0x00000000        0x8 heap_2.o
 .text          0x00000000        0x0 heap_2.o
 .data          0x00000000        0x0 heap_2.o
 .bss           0x00000000        0x0 heap_2.o
 .text.xPortGetFreeHeapSize
                0x00000000        0xc heap_2.o
 .text.vPortInitialiseBlocks
                0x00000000        0x4 heap_2.o
 .debug_macro   0x00000000      0x7de heap_2.o
 .debug_macro   0x00000000       0x2e heap_2.o
 .debug_macro   0x00000000       0x94 heap_2.o
 .debug_macro   0x00000000       0x10 heap_2.o
 .debug_macro   0x00000000       0x3a heap_2.o
 .debug_macro   0x00000000       0x52 heap_2.o
 .debug_macro   0x00000000      0x16d heap_2.o
 .debug_macro   0x00000000       0x16 heap_2.o
 .debug_macro   0x00000000       0x46 heap_2.o
 .debug_macro   0x00000000       0xd0 heap_2.o
 .debug_macro   0x00000000       0x98 heap_2.o
 .debug_macro   0x00000000       0x12 heap_2.o
 .debug_macro   0x00000000       0x1e heap_2.o
 .debug_macro   0x00000000      0x193 heap_2.o
 .debug_macro   0x00000000       0x42 heap_2.o
 .debug_macro   0x00000000       0x56 heap_2.o
 .group         0x00000000        0x8 functions.o
 .group         0x00000000        0x8 functions.o
 .group         0x00000000        0x8 functions.o
 .group         0x00000000        0x8 functions.o
 .group         0x00000000        0x8 functions.o
 .group         0x00000000        0x8 functions.o
 .group         0x00000000        0x8 functions.o
 .group         0x00000000        0x8 functions.o
 .group         0x00000000        0x8 functions.o
 .group         0x00000000        0x8 functions.o
 .group         0x00000000        0x8 functions.o
 .group         0x00000000        0x8 functions.o
 .group         0x00000000        0x8 functions.o
 .group         0x00000000        0x8 functions.o
 .group         0x00000000        0x8 functions.o
 .group         0x00000000        0x8 functions.o
 .group         0x00000000        0x8 functions.o
 .group         0x00000000        0x8 functions.o
 .group         0x00000000        0x8 functions.o
 .group         0x00000000        0x8 functions.o
 .group         0x00000000        0x8 functions.o
 .group         0x00000000        0x8 functions.o
 .group         0x00000000        0x8 functions.o
 .group         0x00000000        0x8 functions.o
 .group         0x00000000        0x8 functions.o
 .group         0x00000000        0x8 functions.o
 .group         0x00000000        0x8 functions.o
 .group         0x00000000        0x8 functions.o
 .group         0x00000000        0x8 functions.o
 .group         0x00000000        0x8 functions.o
 .group         0x00000000        0x8 functions.o
 .group         0x00000000        0x8 functions.o
 .group         0x00000000        0x8 functions.o
 .group         0x00000000        0x8 functions.o
 .group         0x00000000        0x8 functions.o
 .group         0x00000000        0x8 functions.o
 .group         0x00000000        0x8 functions.o
 .text          0x00000000        0x0 functions.o
 .data          0x00000000        0x0 functions.o
 .bss           0x00000000        0x0 functions.o
 .rodata.PF_GW302_GrandBaleTotal
                0x00000000       0x10 functions.o
 .rodata.PF_GW302_TwineOption
                0x00000000        0x4 functions.o
 .rodata.PF_GW302_ChoppingKnivesFitted
                0x00000000        0x4 functions.o
 .rodata.PF_GW302_BaleIndicator
                0x00000000        0x4 functions.o
 .rodata.DayofWeek
                0x00000000       0x1c functions.o
 .rodata.PF_GW302_BaleShapeIndicator
                0x00000000        0x4 functions.o
 .rodata.PF_GW302_DiaPotZero
                0x00000000       0x10 functions.o
 .rodata.PF_GW302_NetSystem
                0x00000000        0x4 functions.o
 .rodata.MonthofYear
                0x00000000       0x34 functions.o
 .debug_macro   0x00000000      0x7de functions.o
 .debug_macro   0x00000000       0x29 functions.o
 .debug_macro   0x00000000     0x34e5 functions.o
 .debug_macro   0x00000000       0x80 functions.o
 .debug_macro   0x00000000      0x16c functions.o
 .debug_macro   0x00000000       0x46 functions.o
 .debug_macro   0x00000000       0xd0 functions.o
 .debug_macro   0x00000000       0x98 functions.o
 .debug_macro   0x00000000       0x12 functions.o
 .debug_macro   0x00000000       0x1e functions.o
 .debug_macro   0x00000000      0x193 functions.o
 .debug_macro   0x00000000       0x42 functions.o
 .debug_macro   0x00000000       0x56 functions.o
 .debug_macro   0x00000000       0x6a functions.o
 .debug_macro   0x00000000       0x62 functions.o
 .debug_macro   0x00000000      0x36f functions.o
 .debug_macro   0x00000000      0x7c1 functions.o
 .debug_macro   0x00000000       0x2e functions.o
 .debug_macro   0x00000000       0x94 functions.o
 .debug_macro   0x00000000       0x3a functions.o
 .debug_macro   0x00000000       0x52 functions.o
 .debug_macro   0x00000000       0x43 functions.o
 .debug_macro   0x00000000      0x16d functions.o
 .debug_macro   0x00000000       0x35 functions.o
 .debug_macro   0x00000000       0x10 functions.o
 .debug_macro   0x00000000       0x16 functions.o
 .debug_macro   0x00000000       0x23 functions.o
 .debug_macro   0x00000000       0x10 functions.o
 .debug_macro   0x00000000       0x10 functions.o
 .debug_macro   0x00000000       0x22 functions.o
 .debug_macro   0x00000000       0x91 functions.o
 .debug_macro   0x00000000       0x16 functions.o
 .debug_macro   0x00000000      0x16d functions.o
 .group         0x00000000        0x8 display.o
 .group         0x00000000        0x8 display.o
 .group         0x00000000        0x8 display.o
 .group         0x00000000        0x8 display.o
 .group         0x00000000        0x8 display.o
 .group         0x00000000        0x8 display.o
 .group         0x00000000        0x8 display.o
 .group         0x00000000        0x8 display.o
 .group         0x00000000        0x8 display.o
 .group         0x00000000        0x8 display.o
 .group         0x00000000        0x8 display.o
 .group         0x00000000        0x8 display.o
 .group         0x00000000        0x8 display.o
 .group         0x00000000        0x8 display.o
 .group         0x00000000        0x8 display.o
 .group         0x00000000        0x8 display.o
 .group         0x00000000        0x8 display.o
 .group         0x00000000        0x8 display.o
 .group         0x00000000        0x8 display.o
 .group         0x00000000        0x8 display.o
 .group         0x00000000        0x8 display.o
 .group         0x00000000        0x8 display.o
 .group         0x00000000        0x8 display.o
 .group         0x00000000        0x8 display.o
 .group         0x00000000        0x8 display.o
 .group         0x00000000        0x8 display.o
 .group         0x00000000        0x8 display.o
 .group         0x00000000        0x8 display.o
 .group         0x00000000        0x8 display.o
 .group         0x00000000        0x8 display.o
 .group         0x00000000        0x8 display.o
 .group         0x00000000        0x8 display.o
 .group         0x00000000        0x8 display.o
 .group         0x00000000        0x8 display.o
 .group         0x00000000        0x8 display.o
 .group         0x00000000        0x8 display.o
 .group         0x00000000        0x8 display.o
 .text          0x00000000        0x0 display.o
 .data          0x00000000        0x0 display.o
 .bss           0x00000000        0x0 display.o
 .text.setPixel
                0x00000000       0x40 display.o
 .text.circlePoints
                0x00000000      0x164 display.o
 .text.circleMidpoint
                0x00000000       0x80 display.o
 .debug_macro   0x00000000      0x7de display.o
 .debug_macro   0x00000000       0x29 display.o
 .debug_macro   0x00000000     0x34e5 display.o
 .debug_macro   0x00000000       0x80 display.o
 .debug_macro   0x00000000      0x16c display.o
 .debug_macro   0x00000000       0x46 display.o
 .debug_macro   0x00000000       0xd0 display.o
 .debug_macro   0x00000000       0x98 display.o
 .debug_macro   0x00000000       0x12 display.o
 .debug_macro   0x00000000       0x1e display.o
 .debug_macro   0x00000000      0x193 display.o
 .debug_macro   0x00000000       0x42 display.o
 .debug_macro   0x00000000       0x56 display.o
 .debug_macro   0x00000000       0x6a display.o
 .debug_macro   0x00000000       0x62 display.o
 .debug_macro   0x00000000      0x36f display.o
 .debug_macro   0x00000000      0x7c1 display.o
 .debug_macro   0x00000000       0x2e display.o
 .debug_macro   0x00000000       0x94 display.o
 .debug_macro   0x00000000       0x10 display.o
 .debug_macro   0x00000000       0x35 display.o
 .debug_macro   0x00000000       0x10 display.o
 .debug_macro   0x00000000       0x3a display.o
 .debug_macro   0x00000000       0x52 display.o
 .debug_macro   0x00000000       0x43 display.o
 .debug_macro   0x00000000      0x16d display.o
 .debug_macro   0x00000000       0x10 display.o
 .debug_macro   0x00000000       0x22 display.o
 .debug_macro   0x00000000       0x91 display.o
 .debug_macro   0x00000000       0x16 display.o
 .debug_macro   0x00000000      0x16d display.o
 .debug_macro   0x00000000       0x10 display.o
 .debug_macro   0x00000000       0x16 display.o
 .debug_macro   0x00000000       0x23 display.o
 .debug_macro   0x00000000       0xac display.o
 .debug_macro   0x00000000       0x1c display.o
 .debug_macro   0x00000000      0x1da display.o
 .group         0x00000000        0x8 screens.o
 .group         0x00000000        0x8 screens.o
 .group         0x00000000        0x8 screens.o
 .group         0x00000000        0x8 screens.o
 .group         0x00000000        0x8 screens.o
 .group         0x00000000        0x8 screens.o
 .group         0x00000000        0x8 screens.o
 .group         0x00000000        0x8 screens.o
 .group         0x00000000        0x8 screens.o
 .group         0x00000000        0x8 screens.o
 .group         0x00000000        0x8 screens.o
 .group         0x00000000        0x8 screens.o
 .group         0x00000000        0x8 screens.o
 .group         0x00000000        0x8 screens.o
 .group         0x00000000        0x8 screens.o
 .group         0x00000000        0x8 screens.o
 .group         0x00000000        0x8 screens.o
 .group         0x00000000        0x8 screens.o
 .group         0x00000000        0x8 screens.o
 .group         0x00000000        0x8 screens.o
 .group         0x00000000        0x8 screens.o
 .group         0x00000000        0x8 screens.o
 .group         0x00000000        0x8 screens.o
 .group         0x00000000        0x8 screens.o
 .group         0x00000000        0x8 screens.o
 .group         0x00000000        0x8 screens.o
 .group         0x00000000        0x8 screens.o
 .group         0x00000000        0x8 screens.o
 .group         0x00000000        0x8 screens.o
 .group         0x00000000        0x8 screens.o
 .group         0x00000000        0x8 screens.o
 .group         0x00000000        0x8 screens.o
 .group         0x00000000        0x8 screens.o
 .group         0x00000000        0x8 screens.o
 .group         0x00000000        0x8 screens.o
 .group         0x00000000        0x8 screens.o
 .group         0x00000000        0x8 screens.o
 .group         0x00000000        0x8 screens.o
 .text          0x00000000        0x0 screens.o
 .data          0x00000000        0x0 screens.o
 .bss           0x00000000        0x0 screens.o
 .debug_macro   0x00000000      0x7de screens.o
 .debug_macro   0x00000000       0x29 screens.o
 .debug_macro   0x00000000     0x34e5 screens.o
 .debug_macro   0x00000000       0x80 screens.o
 .debug_macro   0x00000000      0x16c screens.o
 .debug_macro   0x00000000       0x46 screens.o
 .debug_macro   0x00000000       0xd0 screens.o
 .debug_macro   0x00000000       0x98 screens.o
 .debug_macro   0x00000000       0x12 screens.o
 .debug_macro   0x00000000       0x1e screens.o
 .debug_macro   0x00000000      0x193 screens.o
 .debug_macro   0x00000000       0x42 screens.o
 .debug_macro   0x00000000       0x56 screens.o
 .debug_macro   0x00000000       0x6a screens.o
 .debug_macro   0x00000000       0x62 screens.o
 .debug_macro   0x00000000      0x36f screens.o
 .debug_macro   0x00000000      0x7c1 screens.o
 .debug_macro   0x00000000       0x2e screens.o
 .debug_macro   0x00000000       0x94 screens.o
 .debug_macro   0x00000000       0x10 screens.o
 .debug_macro   0x00000000       0x35 screens.o
 .debug_macro   0x00000000       0x10 screens.o
 .debug_macro   0x00000000       0x3a screens.o
 .debug_macro   0x00000000       0x52 screens.o
 .debug_macro   0x00000000       0x43 screens.o
 .debug_macro   0x00000000      0x16d screens.o
 .debug_macro   0x00000000       0x10 screens.o
 .debug_macro   0x00000000       0x22 screens.o
 .debug_macro   0x00000000       0x91 screens.o
 .debug_macro   0x00000000       0x16 screens.o
 .debug_macro   0x00000000      0x16d screens.o
 .debug_macro   0x00000000       0x10 screens.o
 .debug_macro   0x00000000       0x16 screens.o
 .debug_macro   0x00000000       0x23 screens.o
 .debug_macro   0x00000000       0xac screens.o
 .debug_macro   0x00000000       0x1c screens.o
 .debug_macro   0x00000000      0x1da screens.o
 .group         0x00000000        0x8 tasks.o
 .group         0x00000000        0x8 tasks.o
 .group         0x00000000        0x8 tasks.o
 .group         0x00000000        0x8 tasks.o
 .group         0x00000000        0x8 tasks.o
 .group         0x00000000        0x8 tasks.o
 .group         0x00000000        0x8 tasks.o
 .group         0x00000000        0x8 tasks.o
 .group         0x00000000        0x8 tasks.o
 .group         0x00000000        0x8 tasks.o
 .group         0x00000000        0x8 tasks.o
 .group         0x00000000        0x8 tasks.o
 .group         0x00000000        0x8 tasks.o
 .group         0x00000000        0x8 tasks.o
 .group         0x00000000        0x8 tasks.o
 .group         0x00000000        0x8 tasks.o
 .group         0x00000000        0x8 tasks.o
 .group         0x00000000        0x8 tasks.o
 .group         0x00000000        0x8 tasks.o
 .group         0x00000000        0x8 tasks.o
 .group         0x00000000        0x8 tasks.o
 .group         0x00000000        0x8 tasks.o
 .group         0x00000000        0x8 tasks.o
 .group         0x00000000        0x8 tasks.o
 .group         0x00000000        0x8 tasks.o
 .group         0x00000000        0x8 tasks.o
 .group         0x00000000        0x8 tasks.o
 .group         0x00000000        0x8 tasks.o
 .group         0x00000000        0x8 tasks.o
 .group         0x00000000        0x8 tasks.o
 .group         0x00000000        0x8 tasks.o
 .text          0x00000000        0x0 tasks.o
 .data          0x00000000        0x0 tasks.o
 .bss           0x00000000        0x0 tasks.o
 .text.uxTaskPriorityGet
                0x00000000       0x24 tasks.o
 .text.vTaskEndScheduler
                0x00000000       0x1c tasks.o
 .text.xTaskGetTickCountFromISR
                0x00000000        0xc tasks.o
 .text.uxTaskGetNumberOfTasks
                0x00000000        0xc tasks.o
 .text.vTaskStartTrace
                0x00000000       0x3c tasks.o
 .text.ulTaskEndTrace
                0x00000000       0x2c tasks.o
 .text.xTaskGetCurrentTaskHandle
                0x00000000        0xc tasks.o
 .bss.pcTraceBufferStart
                0x00000000        0x4 tasks.o
 .debug_macro   0x00000000      0x7de tasks.o
 .debug_macro   0x00000000       0x2e tasks.o
 .debug_macro   0x00000000       0x94 tasks.o
 .debug_macro   0x00000000       0x10 tasks.o
 .debug_macro   0x00000000       0x10 tasks.o
 .debug_macro   0x00000000       0x3a tasks.o
 .debug_macro   0x00000000       0x52 tasks.o
 .debug_macro   0x00000000       0x19 tasks.o
 .debug_macro   0x00000000      0x16d tasks.o
 .debug_macro   0x00000000       0x10 tasks.o
 .debug_macro   0x00000000       0x22 tasks.o
 .debug_macro   0x00000000       0x91 tasks.o
 .debug_macro   0x00000000       0x16 tasks.o
 .debug_macro   0x00000000      0x16d tasks.o
 .debug_macro   0x00000000       0x10 tasks.o
 .debug_macro   0x00000000       0x35 tasks.o
 .debug_macro   0x00000000       0x16 tasks.o
 .debug_macro   0x00000000       0x23 tasks.o
 .debug_macro   0x00000000       0xac tasks.o
 .debug_macro   0x00000000       0x1c tasks.o
 .debug_macro   0x00000000       0x46 tasks.o
 .debug_macro   0x00000000       0xd0 tasks.o
 .debug_macro   0x00000000       0x98 tasks.o
 .debug_macro   0x00000000       0x12 tasks.o
 .debug_macro   0x00000000       0x1e tasks.o
 .debug_macro   0x00000000      0x193 tasks.o
 .debug_macro   0x00000000       0x42 tasks.o
 .debug_macro   0x00000000       0x56 tasks.o
 .group         0x00000000        0x8 queue.o
 .group         0x00000000        0x8 queue.o
 .group         0x00000000        0x8 queue.o
 .group         0x00000000        0x8 queue.o
 .group         0x00000000        0x8 queue.o
 .group         0x00000000        0x8 queue.o
 .group         0x00000000        0x8 queue.o
 .group         0x00000000        0x8 queue.o
 .group         0x00000000        0x8 queue.o
 .group         0x00000000        0x8 queue.o
 .group         0x00000000        0x8 queue.o
 .group         0x00000000        0x8 queue.o
 .group         0x00000000        0x8 queue.o
 .group         0x00000000        0x8 queue.o
 .group         0x00000000        0x8 queue.o
 .group         0x00000000        0x8 queue.o
 .group         0x00000000        0x8 queue.o
 .group         0x00000000        0x8 queue.o
 .group         0x00000000        0x8 queue.o
 .group         0x00000000        0x8 queue.o
 .group         0x00000000        0x8 queue.o
 .group         0x00000000        0x8 queue.o
 .group         0x00000000        0x8 queue.o
 .group         0x00000000        0x8 queue.o
 .text          0x00000000        0x0 queue.o
 .data          0x00000000        0x0 queue.o
 .bss           0x00000000        0x0 queue.o
 .text.uxQueueMessagesWaitingFromISR
                0x00000000        0x4 queue.o
 .text.vQueueDelete
                0x00000000       0x18 queue.o
 .text.xQueueIsQueueEmptyFromISR
                0x00000000        0x8 queue.o
 .text.xQueueIsQueueFullFromISR
                0x00000000        0xc queue.o
 .debug_macro   0x00000000      0x7de queue.o
 .debug_macro   0x00000000       0x2e queue.o
 .debug_macro   0x00000000       0x94 queue.o
 .debug_macro   0x00000000       0x10 queue.o
 .debug_macro   0x00000000      0x100 queue.o
 .debug_macro   0x00000000       0x3a queue.o
 .debug_macro   0x00000000       0x52 queue.o
 .debug_macro   0x00000000       0x19 queue.o
 .debug_macro   0x00000000      0x16d queue.o
 .debug_macro   0x00000000       0x16 queue.o
 .debug_macro   0x00000000       0x29 queue.o
 .debug_macro   0x00000000       0xac queue.o
 .debug_macro   0x00000000       0x1c queue.o
 .debug_macro   0x00000000       0x85 queue.o
 .debug_macro   0x00000000       0x46 queue.o
 .debug_macro   0x00000000       0xd0 queue.o
 .debug_macro   0x00000000       0x98 queue.o
 .debug_macro   0x00000000       0x12 queue.o
 .debug_macro   0x00000000       0x1e queue.o
 .debug_macro   0x00000000      0x193 queue.o
 .debug_macro   0x00000000       0x42 queue.o
 .debug_macro   0x00000000       0x56 queue.o
 .group         0x00000000        0x8 list.o
 .group         0x00000000        0x8 list.o
 .group         0x00000000        0x8 list.o
 .group         0x00000000        0x8 list.o
 .group         0x00000000        0x8 list.o
 .group         0x00000000        0x8 list.o
 .group         0x00000000        0x8 list.o
 .group         0x00000000        0x8 list.o
 .group         0x00000000        0x8 list.o
 .group         0x00000000        0x8 list.o
 .group         0x00000000        0x8 list.o
 .group         0x00000000        0x8 list.o
 .group         0x00000000        0x8 list.o
 .group         0x00000000        0x8 list.o
 .group         0x00000000        0x8 list.o
 .group         0x00000000        0x8 list.o
 .group         0x00000000        0x8 list.o
 .group         0x00000000        0x8 list.o
 .group         0x00000000        0x8 list.o
 .text          0x00000000        0x0 list.o
 .data          0x00000000        0x0 list.o
 .bss           0x00000000        0x0 list.o
 .debug_macro   0x00000000      0x7de list.o
 .debug_macro   0x00000000       0x2e list.o
 .debug_macro   0x00000000       0x94 list.o
 .debug_macro   0x00000000       0x10 list.o
 .debug_macro   0x00000000      0x100 list.o
 .debug_macro   0x00000000       0x3a list.o
 .debug_macro   0x00000000       0x52 list.o
 .debug_macro   0x00000000       0x19 list.o
 .debug_macro   0x00000000      0x16d list.o
 .debug_macro   0x00000000       0x16 list.o
 .debug_macro   0x00000000       0x29 list.o
 .debug_macro   0x00000000       0x85 list.o
 .debug_macro   0x00000000       0x46 list.o
 .debug_macro   0x00000000       0xd0 list.o
 .debug_macro   0x00000000       0x98 list.o
 .debug_macro   0x00000000       0x12 list.o
 .debug_macro   0x00000000       0x1e list.o
 .debug_macro   0x00000000      0x193 list.o
 .debug_macro   0x00000000       0x42 list.o
 .group         0x00000000        0x8 port.o
 .group         0x00000000        0x8 port.o
 .group         0x00000000        0x8 port.o
 .group         0x00000000        0x8 port.o
 .group         0x00000000        0x8 port.o
 .group         0x00000000        0x8 port.o
 .group         0x00000000        0x8 port.o
 .group         0x00000000        0x8 port.o
 .group         0x00000000        0x8 port.o
 .group         0x00000000        0x8 port.o
 .group         0x00000000        0x8 port.o
 .group         0x00000000        0x8 port.o
 .group         0x00000000        0x8 port.o
 .group         0x00000000        0x8 port.o
 .group         0x00000000        0x8 port.o
 .group         0x00000000        0x8 port.o
 .group         0x00000000        0x8 port.o
 .group         0x00000000        0x8 port.o
 .group         0x00000000        0x8 port.o
 .group         0x00000000        0x8 port.o
 .group         0x00000000        0x8 port.o
 .group         0x00000000        0x8 port.o
 .group         0x00000000        0x8 port.o
 .group         0x00000000        0x8 port.o
 .group         0x00000000        0x8 port.o
 .group         0x00000000        0x8 port.o
 .group         0x00000000        0x8 port.o
 .text          0x00000000        0x0 port.o
 .data          0x00000000        0x0 port.o
 .bss           0x00000000        0x0 port.o
 .text.vPortEndScheduler
                0x00000000        0x4 port.o
 .debug_macro   0x00000000      0x7de port.o
 .debug_macro   0x00000000       0x2e port.o
 .debug_macro   0x00000000       0x94 port.o
 .debug_macro   0x00000000       0x10 port.o
 .debug_macro   0x00000000      0x100 port.o
 .debug_macro   0x00000000       0x3a port.o
 .debug_macro   0x00000000       0x52 port.o
 .debug_macro   0x00000000       0x19 port.o
 .debug_macro   0x00000000      0x16d port.o
 .debug_macro   0x00000000       0x16 port.o
 .debug_macro   0x00000000       0x29 port.o
 .debug_macro   0x00000000       0x85 port.o
 .debug_macro   0x00000000       0x46 port.o
 .debug_macro   0x00000000       0xd0 port.o
 .debug_macro   0x00000000       0x98 port.o
 .debug_macro   0x00000000       0x12 port.o
 .debug_macro   0x00000000       0x1e port.o
 .debug_macro   0x00000000      0x193 port.o
 .debug_macro   0x00000000       0x42 port.o
 .debug_macro   0x00000000       0x56 port.o
 .debug_macro   0x00000000       0x29 port.o
 .debug_macro   0x00000000     0x34e5 port.o
 .debug_macro   0x00000000       0x80 port.o
 .debug_macro   0x00000000       0x6a port.o
 .debug_macro   0x00000000       0x62 port.o
 .debug_macro   0x00000000      0x36f port.o
 .debug_macro   0x00000000      0x7c1 port.o
 .group         0x00000000        0x8 serial.o
 .group         0x00000000        0x8 serial.o
 .group         0x00000000        0x8 serial.o
 .group         0x00000000        0x8 serial.o
 .group         0x00000000        0x8 serial.o
 .group         0x00000000        0x8 serial.o
 .group         0x00000000        0x8 serial.o
 .group         0x00000000        0x8 serial.o
 .group         0x00000000        0x8 serial.o
 .group         0x00000000        0x8 serial.o
 .group         0x00000000        0x8 serial.o
 .group         0x00000000        0x8 serial.o
 .group         0x00000000        0x8 serial.o
 .group         0x00000000        0x8 serial.o
 .group         0x00000000        0x8 serial.o
 .group         0x00000000        0x8 serial.o
 .group         0x00000000        0x8 serial.o
 .group         0x00000000        0x8 serial.o
 .group         0x00000000        0x8 serial.o
 .group         0x00000000        0x8 serial.o
 .group         0x00000000        0x8 serial.o
 .group         0x00000000        0x8 serial.o
 .group         0x00000000        0x8 serial.o
 .group         0x00000000        0x8 serial.o
 .group         0x00000000        0x8 serial.o
 .group         0x00000000        0x8 serial.o
 .group         0x00000000        0x8 serial.o
 .text          0x00000000        0x0 serial.o
 .data          0x00000000        0x0 serial.o
 .bss           0x00000000        0x0 serial.o
 .text.vSerialClose
                0x00000000        0x4 serial.o
 .debug_macro   0x00000000      0x7de serial.o
 .debug_macro   0x00000000       0x29 serial.o
 .debug_macro   0x00000000     0x34e5 serial.o
 .debug_macro   0x00000000       0x80 serial.o
 .debug_macro   0x00000000      0x16c serial.o
 .debug_macro   0x00000000       0x46 serial.o
 .debug_macro   0x00000000       0xd0 serial.o
 .debug_macro   0x00000000       0x98 serial.o
 .debug_macro   0x00000000       0x12 serial.o
 .debug_macro   0x00000000       0x1e serial.o
 .debug_macro   0x00000000      0x193 serial.o
 .debug_macro   0x00000000       0x42 serial.o
 .debug_macro   0x00000000       0x56 serial.o
 .debug_macro   0x00000000       0x6a serial.o
 .debug_macro   0x00000000       0x62 serial.o
 .debug_macro   0x00000000      0x36f serial.o
 .debug_macro   0x00000000      0x7c1 serial.o
 .debug_macro   0x00000000       0x2e serial.o
 .debug_macro   0x00000000       0x94 serial.o
 .debug_macro   0x00000000       0x10 serial.o
 .debug_macro   0x00000000       0x35 serial.o
 .debug_macro   0x00000000       0x3a serial.o
 .debug_macro   0x00000000       0x52 serial.o
 .debug_macro   0x00000000       0x43 serial.o
 .debug_macro   0x00000000      0x16d serial.o
 .debug_macro   0x00000000       0x16 serial.o
 .debug_macro   0x00000000       0x23 serial.o
 .group         0x00000000        0x8 comtest.o
 .group         0x00000000        0x8 comtest.o
 .group         0x00000000        0x8 comtest.o
 .group         0x00000000        0x8 comtest.o
 .group         0x00000000        0x8 comtest.o
 .group         0x00000000        0x8 comtest.o
 .group         0x00000000        0x8 comtest.o
 .group         0x00000000        0x8 comtest.o
 .group         0x00000000        0x8 comtest.o
 .group         0x00000000        0x8 comtest.o
 .group         0x00000000        0x8 comtest.o
 .group         0x00000000        0x8 comtest.o
 .group         0x00000000        0x8 comtest.o
 .group         0x00000000        0x8 comtest.o
 .group         0x00000000        0x8 comtest.o
 .group         0x00000000        0x8 comtest.o
 .group         0x00000000        0x8 comtest.o
 .group         0x00000000        0x8 comtest.o
 .group         0x00000000        0x8 comtest.o
 .group         0x00000000        0x8 comtest.o
 .group         0x00000000        0x8 comtest.o
 .group         0x00000000        0x8 comtest.o
 .group         0x00000000        0x8 comtest.o
 .group         0x00000000        0x8 comtest.o
 .group         0x00000000        0x8 comtest.o
 .group         0x00000000        0x8 comtest.o
 .group         0x00000000        0x8 comtest.o
 .group         0x00000000        0x8 comtest.o
 .group         0x00000000        0x8 comtest.o
 .group         0x00000000        0x8 comtest.o
 .group         0x00000000        0x8 comtest.o
 .group         0x00000000        0x8 comtest.o
 .group         0x00000000        0x8 comtest.o
 .group         0x00000000        0x8 comtest.o
 .group         0x00000000        0x8 comtest.o
 .group         0x00000000        0x8 comtest.o
 .text          0x00000000        0x0 comtest.o
 .data          0x00000000        0x0 comtest.o
 .bss           0x00000000        0x0 comtest.o
 .debug_macro   0x00000000      0x7de comtest.o
 .debug_macro   0x00000000       0x29 comtest.o
 .debug_macro   0x00000000     0x34e5 comtest.o
 .debug_macro   0x00000000       0x80 comtest.o
 .debug_macro   0x00000000      0x16c comtest.o
 .debug_macro   0x00000000       0x46 comtest.o
 .debug_macro   0x00000000       0xd0 comtest.o
 .debug_macro   0x00000000       0x98 comtest.o
 .debug_macro   0x00000000       0x12 comtest.o
 .debug_macro   0x00000000       0x1e comtest.o
 .debug_macro   0x00000000      0x193 comtest.o
 .debug_macro   0x00000000       0x42 comtest.o
 .debug_macro   0x00000000       0x56 comtest.o
 .debug_macro   0x00000000       0x6a comtest.o
 .debug_macro   0x00000000       0x62 comtest.o
 .debug_macro   0x00000000      0x36f comtest.o
 .debug_macro   0x00000000      0x7c1 comtest.o
 .debug_macro   0x00000000       0x2e comtest.o
 .debug_macro   0x00000000       0x94 comtest.o
 .debug_macro   0x00000000       0x3a comtest.o
 .debug_macro   0x00000000       0x52 comtest.o
 .debug_macro   0x00000000       0x43 comtest.o
 .debug_macro   0x00000000      0x16d comtest.o
 .debug_macro   0x00000000       0xac comtest.o
 .debug_macro   0x00000000       0x35 comtest.o
 .debug_macro   0x00000000       0x1c comtest.o
 .debug_macro   0x00000000       0x10 comtest.o
 .debug_macro   0x00000000       0x16 comtest.o
 .debug_macro   0x00000000       0x23 comtest.o
 .debug_macro   0x00000000       0x16 comtest.o
 .debug_macro   0x00000000       0x10 comtest.o
 .debug_macro   0x00000000       0x10 comtest.o
 .debug_macro   0x00000000       0x22 comtest.o
 .debug_macro   0x00000000       0x91 comtest.o
 .debug_macro   0x00000000       0x16 comtest.o
 .debug_macro   0x00000000      0x16d comtest.o
 .group         0x00000000        0x8 CANtest.o
 .group         0x00000000        0x8 CANtest.o
 .group         0x00000000        0x8 CANtest.o
 .group         0x00000000        0x8 CANtest.o
 .group         0x00000000        0x8 CANtest.o
 .group         0x00000000        0x8 CANtest.o
 .group         0x00000000        0x8 CANtest.o
 .group         0x00000000        0x8 CANtest.o
 .group         0x00000000        0x8 CANtest.o
 .group         0x00000000        0x8 CANtest.o
 .group         0x00000000        0x8 CANtest.o
 .group         0x00000000        0x8 CANtest.o
 .group         0x00000000        0x8 CANtest.o
 .group         0x00000000        0x8 CANtest.o
 .group         0x00000000        0x8 CANtest.o
 .group         0x00000000        0x8 CANtest.o
 .group         0x00000000        0x8 CANtest.o
 .group         0x00000000        0x8 CANtest.o
 .group         0x00000000        0x8 CANtest.o
 .group         0x00000000        0x8 CANtest.o
 .group         0x00000000        0x8 CANtest.o
 .group         0x00000000        0x8 CANtest.o
 .group         0x00000000        0x8 CANtest.o
 .group         0x00000000        0x8 CANtest.o
 .group         0x00000000        0x8 CANtest.o
 .group         0x00000000        0x8 CANtest.o
 .group         0x00000000        0x8 CANtest.o
 .group         0x00000000        0x8 CANtest.o
 .group         0x00000000        0x8 CANtest.o
 .group         0x00000000        0x8 CANtest.o
 .group         0x00000000        0x8 CANtest.o
 .text          0x00000000        0x0 CANtest.o
 .data          0x00000000        0x0 CANtest.o
 .bss           0x00000000        0x0 CANtest.o
 .debug_info    0x00000000       0xd9 CANtest.o
 .debug_abbrev  0x00000000       0x4e CANtest.o
 .debug_aranges
                0x00000000       0x18 CANtest.o
 .debug_macro   0x00000000      0x19d CANtest.o
 .debug_macro   0x00000000      0x7de CANtest.o
 .debug_macro   0x00000000       0x29 CANtest.o
 .debug_macro   0x00000000     0x34e5 CANtest.o
 .debug_macro   0x00000000       0x80 CANtest.o
 .debug_macro   0x00000000      0x16c CANtest.o
 .debug_macro   0x00000000       0x46 CANtest.o
 .debug_macro   0x00000000       0xd0 CANtest.o
 .debug_macro   0x00000000       0x98 CANtest.o
 .debug_macro   0x00000000       0x12 CANtest.o
 .debug_macro   0x00000000       0x1e CANtest.o
 .debug_macro   0x00000000      0x193 CANtest.o
 .debug_macro   0x00000000       0x42 CANtest.o
 .debug_macro   0x00000000       0x56 CANtest.o
 .debug_macro   0x00000000       0x6a CANtest.o
 .debug_macro   0x00000000       0x62 CANtest.o
 .debug_macro   0x00000000      0x36f CANtest.o
 .debug_macro   0x00000000      0x7c1 CANtest.o
 .debug_macro   0x00000000       0x2e CANtest.o
 .debug_macro   0x00000000       0x94 CANtest.o
 .debug_macro   0x00000000       0x10 CANtest.o
 .debug_macro   0x00000000       0x35 CANtest.o
 .debug_macro   0x00000000       0x10 CANtest.o
 .debug_macro   0x00000000       0x3a CANtest.o
 .debug_macro   0x00000000       0x52 CANtest.o
 .debug_macro   0x00000000       0x43 CANtest.o
 .debug_macro   0x00000000      0x16d CANtest.o
 .debug_macro   0x00000000       0x10 CANtest.o
 .debug_macro   0x00000000       0x22 CANtest.o
 .debug_macro   0x00000000       0x91 CANtest.o
 .debug_macro   0x00000000       0x16 CANtest.o
 .debug_macro   0x00000000      0x16d CANtest.o
 .debug_line    0x00000000      0x2bc CANtest.o
 .debug_str     0x00000000    0x1e2ca CANtest.o
 .comment       0x00000000       0x12 CANtest.o
 .ARM.attributes
                0x00000000       0x32 CANtest.o
 .group         0x00000000        0x8 CAN_mcm.o
 .group         0x00000000        0x8 CAN_mcm.o
 .group         0x00000000        0x8 CAN_mcm.o
 .group         0x00000000        0x8 CAN_mcm.o
 .group         0x00000000        0x8 CAN_mcm.o
 .group         0x00000000        0x8 CAN_mcm.o
 .group         0x00000000        0x8 CAN_mcm.o
 .group         0x00000000        0x8 CAN_mcm.o
 .group         0x00000000        0x8 CAN_mcm.o
 .group         0x00000000        0x8 CAN_mcm.o
 .group         0x00000000        0x8 CAN_mcm.o
 .group         0x00000000        0x8 CAN_mcm.o
 .group         0x00000000        0x8 CAN_mcm.o
 .group         0x00000000        0x8 CAN_mcm.o
 .group         0x00000000        0x8 CAN_mcm.o
 .group         0x00000000        0x8 CAN_mcm.o
 .group         0x00000000        0x8 CAN_mcm.o
 .group         0x00000000        0x8 CAN_mcm.o
 .group         0x00000000        0x8 CAN_mcm.o
 .group         0x00000000        0x8 CAN_mcm.o
 .group         0x00000000        0x8 CAN_mcm.o
 .group         0x00000000        0x8 CAN_mcm.o
 .group         0x00000000        0x8 CAN_mcm.o
 .group         0x00000000        0x8 CAN_mcm.o
 .group         0x00000000        0x8 CAN_mcm.o
 .group         0x00000000        0x8 CAN_mcm.o
 .group         0x00000000        0x8 CAN_mcm.o
 .group         0x00000000        0x8 CAN_mcm.o
 .group         0x00000000        0x8 CAN_mcm.o
 .group         0x00000000        0x8 CAN_mcm.o
 .group         0x00000000        0x8 CAN_mcm.o
 .group         0x00000000        0x8 CAN_mcm.o
 .group         0x00000000        0x8 CAN_mcm.o
 .group         0x00000000        0x8 CAN_mcm.o
 .group         0x00000000        0x8 CAN_mcm.o
 .group         0x00000000        0x8 CAN_mcm.o
 .text          0x00000000        0x0 CAN_mcm.o
 .data          0x00000000        0x0 CAN_mcm.o
 .bss           0x00000000        0x0 CAN_mcm.o
 .debug_info    0x00000000       0xd9 CAN_mcm.o
 .debug_abbrev  0x00000000       0x4e CAN_mcm.o
 .debug_aranges
                0x00000000       0x18 CAN_mcm.o
 .debug_macro   0x00000000      0x1fd CAN_mcm.o
 .debug_macro   0x00000000      0x7de CAN_mcm.o
 .debug_macro   0x00000000       0x29 CAN_mcm.o
 .debug_macro   0x00000000     0x34e5 CAN_mcm.o
 .debug_macro   0x00000000       0x80 CAN_mcm.o
 .debug_macro   0x00000000      0x16c CAN_mcm.o
 .debug_macro   0x00000000       0x46 CAN_mcm.o
 .debug_macro   0x00000000       0xd0 CAN_mcm.o
 .debug_macro   0x00000000       0x98 CAN_mcm.o
 .debug_macro   0x00000000       0x12 CAN_mcm.o
 .debug_macro   0x00000000       0x1e CAN_mcm.o
 .debug_macro   0x00000000      0x193 CAN_mcm.o
 .debug_macro   0x00000000       0x42 CAN_mcm.o
 .debug_macro   0x00000000       0x56 CAN_mcm.o
 .debug_macro   0x00000000       0x6a CAN_mcm.o
 .debug_macro   0x00000000       0x62 CAN_mcm.o
 .debug_macro   0x00000000      0x36f CAN_mcm.o
 .debug_macro   0x00000000      0x7c1 CAN_mcm.o
 .debug_macro   0x00000000       0x2e CAN_mcm.o
 .debug_macro   0x00000000       0x94 CAN_mcm.o
 .debug_macro   0x00000000       0x10 CAN_mcm.o
 .debug_macro   0x00000000       0x35 CAN_mcm.o
 .debug_macro   0x00000000       0x10 CAN_mcm.o
 .debug_macro   0x00000000       0x3a CAN_mcm.o
 .debug_macro   0x00000000       0x52 CAN_mcm.o
 .debug_macro   0x00000000       0x43 CAN_mcm.o
 .debug_macro   0x00000000      0x16d CAN_mcm.o
 .debug_macro   0x00000000       0x10 CAN_mcm.o
 .debug_macro   0x00000000       0x22 CAN_mcm.o
 .debug_macro   0x00000000       0x91 CAN_mcm.o
 .debug_macro   0x00000000       0x16 CAN_mcm.o
 .debug_macro   0x00000000      0x16d CAN_mcm.o
 .debug_macro   0x00000000       0x10 CAN_mcm.o
 .debug_macro   0x00000000       0x16 CAN_mcm.o
 .debug_macro   0x00000000       0x23 CAN_mcm.o
 .debug_macro   0x00000000       0xac CAN_mcm.o
 .debug_macro   0x00000000       0x1c CAN_mcm.o
 .debug_line    0x00000000      0x303 CAN_mcm.o
 .debug_str     0x00000000    0x1e701 CAN_mcm.o
 .comment       0x00000000       0x12 CAN_mcm.o
 .ARM.attributes
                0x00000000       0x32 CAN_mcm.o
 .group         0x00000000        0x8 TWI_task.o
 .group         0x00000000        0x8 TWI_task.o
 .group         0x00000000        0x8 TWI_task.o
 .group         0x00000000        0x8 TWI_task.o
 .group         0x00000000        0x8 TWI_task.o
 .group         0x00000000        0x8 TWI_task.o
 .group         0x00000000        0x8 TWI_task.o
 .group         0x00000000        0x8 TWI_task.o
 .group         0x00000000        0x8 TWI_task.o
 .group         0x00000000        0x8 TWI_task.o
 .group         0x00000000        0x8 TWI_task.o
 .group         0x00000000        0x8 TWI_task.o
 .group         0x00000000        0x8 TWI_task.o
 .group         0x00000000        0x8 TWI_task.o
 .group         0x00000000        0x8 TWI_task.o
 .group         0x00000000        0x8 TWI_task.o
 .group         0x00000000        0x8 TWI_task.o
 .group         0x00000000        0x8 TWI_task.o
 .group         0x00000000        0x8 TWI_task.o
 .group         0x00000000        0x8 TWI_task.o
 .group         0x00000000        0x8 TWI_task.o
 .group         0x00000000        0x8 TWI_task.o
 .group         0x00000000        0x8 TWI_task.o
 .group         0x00000000        0x8 TWI_task.o
 .group         0x00000000        0x8 TWI_task.o
 .group         0x00000000        0x8 TWI_task.o
 .group         0x00000000        0x8 TWI_task.o
 .text          0x00000000        0x0 TWI_task.o
 .data          0x00000000        0x0 TWI_task.o
 .bss           0x00000000        0x0 TWI_task.o
 .debug_macro   0x00000000      0x7de TWI_task.o
 .debug_macro   0x00000000       0x29 TWI_task.o
 .debug_macro   0x00000000     0x34e5 TWI_task.o
 .debug_macro   0x00000000       0x80 TWI_task.o
 .debug_macro   0x00000000      0x16c TWI_task.o
 .debug_macro   0x00000000       0x46 TWI_task.o
 .debug_macro   0x00000000       0xd0 TWI_task.o
 .debug_macro   0x00000000       0x98 TWI_task.o
 .debug_macro   0x00000000       0x12 TWI_task.o
 .debug_macro   0x00000000       0x1e TWI_task.o
 .debug_macro   0x00000000      0x193 TWI_task.o
 .debug_macro   0x00000000       0x42 TWI_task.o
 .debug_macro   0x00000000       0x56 TWI_task.o
 .debug_macro   0x00000000       0x6a TWI_task.o
 .debug_macro   0x00000000       0x62 TWI_task.o
 .debug_macro   0x00000000      0x36f TWI_task.o
 .debug_macro   0x00000000      0x7c1 TWI_task.o
 .debug_macro   0x00000000       0x2e TWI_task.o
 .debug_macro   0x00000000       0x94 TWI_task.o
 .debug_macro   0x00000000       0x10 TWI_task.o
 .debug_macro   0x00000000       0x35 TWI_task.o
 .debug_macro   0x00000000       0x3a TWI_task.o
 .debug_macro   0x00000000       0x52 TWI_task.o
 .debug_macro   0x00000000       0x43 TWI_task.o
 .debug_macro   0x00000000      0x16d TWI_task.o
 .debug_macro   0x00000000       0x16 TWI_task.o
 .debug_macro   0x00000000       0x23 TWI_task.o
 .group         0x00000000        0x8 Operate.o
 .group         0x00000000        0x8 Operate.o
 .group         0x00000000        0x8 Operate.o
 .group         0x00000000        0x8 Operate.o
 .group         0x00000000        0x8 Operate.o
 .group         0x00000000        0x8 Operate.o
 .group         0x00000000        0x8 Operate.o
 .group         0x00000000        0x8 Operate.o
 .group         0x00000000        0x8 Operate.o
 .group         0x00000000        0x8 Operate.o
 .group         0x00000000        0x8 Operate.o
 .group         0x00000000        0x8 Operate.o
 .group         0x00000000        0x8 Operate.o
 .group         0x00000000        0x8 Operate.o
 .group         0x00000000        0x8 Operate.o
 .group         0x00000000        0x8 Operate.o
 .group         0x00000000        0x8 Operate.o
 .text          0x00000000        0x0 Operate.o
 .data          0x00000000        0x0 Operate.o
 .bss           0x00000000        0x0 Operate.o
 .debug_macro   0x00000000      0x7de Operate.o
 .debug_macro   0x00000000       0x29 Operate.o
 .debug_macro   0x00000000     0x34e5 Operate.o
 .debug_macro   0x00000000       0x80 Operate.o
 .debug_macro   0x00000000      0x16c Operate.o
 .debug_macro   0x00000000       0x46 Operate.o
 .debug_macro   0x00000000       0xd0 Operate.o
 .debug_macro   0x00000000       0x98 Operate.o
 .debug_macro   0x00000000       0x12 Operate.o
 .debug_macro   0x00000000       0x1e Operate.o
 .debug_macro   0x00000000      0x193 Operate.o
 .debug_macro   0x00000000       0x42 Operate.o
 .debug_macro   0x00000000       0x56 Operate.o
 .debug_macro   0x00000000       0x6a Operate.o
 .debug_macro   0x00000000       0x62 Operate.o
 .debug_macro   0x00000000      0x36f Operate.o
 .debug_macro   0x00000000      0x7c1 Operate.o
 .group         0x00000000        0x8 Power.o
 .group         0x00000000        0x8 Power.o
 .group         0x00000000        0x8 Power.o
 .group         0x00000000        0x8 Power.o
 .group         0x00000000        0x8 Power.o
 .group         0x00000000        0x8 Power.o
 .group         0x00000000        0x8 Power.o
 .group         0x00000000        0x8 Power.o
 .group         0x00000000        0x8 Power.o
 .group         0x00000000        0x8 Power.o
 .group         0x00000000        0x8 Power.o
 .group         0x00000000        0x8 Power.o
 .group         0x00000000        0x8 Power.o
 .group         0x00000000        0x8 Power.o
 .group         0x00000000        0x8 Power.o
 .group         0x00000000        0x8 Power.o
 .group         0x00000000        0x8 Power.o
 .group         0x00000000        0x8 Power.o
 .group         0x00000000        0x8 Power.o
 .group         0x00000000        0x8 Power.o
 .group         0x00000000        0x8 Power.o
 .group         0x00000000        0x8 Power.o
 .group         0x00000000        0x8 Power.o
 .group         0x00000000        0x8 Power.o
 .group         0x00000000        0x8 Power.o
 .group         0x00000000        0x8 Power.o
 .text          0x00000000        0x0 Power.o
 .data          0x00000000        0x0 Power.o
 .bss           0x00000000        0x0 Power.o
 .debug_macro   0x00000000      0x7de Power.o
 .debug_macro   0x00000000       0x29 Power.o
 .debug_macro   0x00000000     0x34e5 Power.o
 .debug_macro   0x00000000       0x80 Power.o
 .debug_macro   0x00000000      0x16c Power.o
 .debug_macro   0x00000000       0x46 Power.o
 .debug_macro   0x00000000       0xd0 Power.o
 .debug_macro   0x00000000       0x98 Power.o
 .debug_macro   0x00000000       0x12 Power.o
 .debug_macro   0x00000000       0x1e Power.o
 .debug_macro   0x00000000      0x193 Power.o
 .debug_macro   0x00000000       0x42 Power.o
 .debug_macro   0x00000000       0x56 Power.o
 .debug_macro   0x00000000       0x6a Power.o
 .debug_macro   0x00000000       0x62 Power.o
 .debug_macro   0x00000000      0x36f Power.o
 .debug_macro   0x00000000      0x7c1 Power.o
 .debug_macro   0x00000000       0x2e Power.o
 .debug_macro   0x00000000       0x94 Power.o
 .debug_macro   0x00000000       0x3a Power.o
 .debug_macro   0x00000000       0x52 Power.o
 .debug_macro   0x00000000       0x43 Power.o
 .debug_macro   0x00000000      0x16d Power.o
 .debug_macro   0x00000000       0xac Power.o
 .debug_macro   0x00000000       0x35 Power.o
 .debug_macro   0x00000000       0x1c Power.o
 .group         0x00000000        0x8 bm_sym.o
 .group         0x00000000        0x8 bm_sym.o
 .group         0x00000000        0x8 bm_sym.o
 .group         0x00000000        0x8 bm_sym.o
 .group         0x00000000        0x8 bm_sym.o
 .group         0x00000000        0x8 bm_sym.o
 .group         0x00000000        0x8 bm_sym.o
 .group         0x00000000        0x8 bm_sym.o
 .group         0x00000000        0x8 bm_sym.o
 .group         0x00000000        0x8 bm_sym.o
 .group         0x00000000        0x8 bm_sym.o
 .group         0x00000000        0x8 bm_sym.o
 .group         0x00000000        0x8 bm_sym.o
 .group         0x00000000        0x8 bm_sym.o
 .group         0x00000000        0x8 bm_sym.o
 .group         0x00000000        0x8 bm_sym.o
 .group         0x00000000        0x8 bm_sym.o
 .text          0x00000000        0x0 bm_sym.o
 .data          0x00000000        0x0 bm_sym.o
 .bss           0x00000000        0x0 bm_sym.o
 .rodata.SPEAKER
                0x00000000       0x3c bm_sym.o
 .rodata.ICON_DIAGNOSTICS_SCREENS
                0x00000000       0x64 bm_sym.o
 .rodata.TABNAV_R
                0x00000000       0x7c bm_sym.o
 .rodata.DIASCALE_FROM_ZERO
                0x00000000       0x54 bm_sym.o
 .rodata.Tick   0x00000000       0x14 bm_sym.o
 .rodata.TICK   0x00000000       0x3c bm_sym.o
 .rodata.ICON_NET_TWINE_SELECTION_POINTER
                0x00000000       0x34 bm_sym.o
 .rodata.NETROLL_OUTLINE
                0x00000000       0x38 bm_sym.o
 .rodata.ENT    0x00000000       0x18 bm_sym.o
 .rodata.CROSS  0x00000000       0x3c bm_sym.o
 .rodata.WARNINGBOX
                0x00000000       0x68 bm_sym.o
 .rodata.DENSITY
                0x00000000       0x1c bm_sym.o
 .rodata.TABNAV_UR
                0x00000000       0x7c bm_sym.o
 .rodata.Clock  0x00000000       0x20 bm_sym.o
 .rodata.KICK   0x00000000        0xc bm_sym.o
 .debug_macro   0x00000000      0x7de bm_sym.o
 .debug_macro   0x00000000       0x29 bm_sym.o
 .debug_macro   0x00000000     0x34e5 bm_sym.o
 .debug_macro   0x00000000       0x80 bm_sym.o
 .debug_macro   0x00000000      0x16c bm_sym.o
 .debug_macro   0x00000000       0x46 bm_sym.o
 .debug_macro   0x00000000       0xd0 bm_sym.o
 .debug_macro   0x00000000       0x98 bm_sym.o
 .debug_macro   0x00000000       0x12 bm_sym.o
 .debug_macro   0x00000000       0x1e bm_sym.o
 .debug_macro   0x00000000      0x193 bm_sym.o
 .debug_macro   0x00000000       0x42 bm_sym.o
 .debug_macro   0x00000000       0x56 bm_sym.o
 .debug_macro   0x00000000       0x6a bm_sym.o
 .debug_macro   0x00000000       0x62 bm_sym.o
 .debug_macro   0x00000000      0x36f bm_sym.o
 .debug_macro   0x00000000      0x7c1 bm_sym.o
 .group         0x00000000        0x8 bm_num.o
 .group         0x00000000        0x8 bm_num.o
 .group         0x00000000        0x8 bm_num.o
 .group         0x00000000        0x8 bm_num.o
 .group         0x00000000        0x8 bm_num.o
 .group         0x00000000        0x8 bm_num.o
 .group         0x00000000        0x8 bm_num.o
 .group         0x00000000        0x8 bm_num.o
 .group         0x00000000        0x8 bm_num.o
 .group         0x00000000        0x8 bm_num.o
 .group         0x00000000        0x8 bm_num.o
 .group         0x00000000        0x8 bm_num.o
 .group         0x00000000        0x8 bm_num.o
 .group         0x00000000        0x8 bm_num.o
 .group         0x00000000        0x8 bm_num.o
 .group         0x00000000        0x8 bm_num.o
 .group         0x00000000        0x8 bm_num.o
 .text          0x00000000        0x0 bm_num.o
 .data          0x00000000        0x0 bm_num.o
 .bss           0x00000000        0x0 bm_num.o
 .rodata.F0_mi  0x00000000        0xc bm_num.o
 .rodata.CmS26_pl
                0x00000000       0x30 bm_num.o
 .rodata.F0_uk  0x00000000        0xc bm_num.o
 .rodata.CS12B_dp
                0x00000000       0x10 bm_num.o
 .rodata.F0_0   0x00000000        0xc bm_num.o
 .rodata.F0_3   0x00000000        0xc bm_num.o
 .rodata.F0_1   0x00000000        0xc bm_num.o
 .rodata.F0_2   0x00000000        0xc bm_num.o
 .rodata.F2_dp  0x00000000       0x10 bm_num.o
 .rodata.F0_4   0x00000000        0xc bm_num.o
 .rodata.F0_5   0x00000000        0xc bm_num.o
 .rodata.F0_6   0x00000000        0xc bm_num.o
 .rodata.F3_7   0x00000000       0x2c bm_num.o
 .rodata.F0_8   0x00000000        0xc bm_num.o
 .rodata.F2_3   0x00000000       0x20 bm_num.o
 .rodata.F2_4   0x00000000       0x20 bm_num.o
 .rodata.F2_5   0x00000000       0x20 bm_num.o
 .rodata.F2_6   0x00000000       0x20 bm_num.o
 .rodata.RDS7x11_dp
                0x00000000       0x10 bm_num.o
 .rodata.CmS26_mi
                0x00000000       0x24 bm_num.o
 .rodata.ComicSansBold10
                0x00000000       0x3c bm_num.o
 .rodata.RDS7x11_0
                0x00000000       0x10 bm_num.o
 .rodata.RDS7x11_1
                0x00000000       0x10 bm_num.o
 .rodata.RDS7x11_2
                0x00000000       0x10 bm_num.o
 .rodata.CS12B_pl
                0x00000000       0x10 bm_num.o
 .rodata.RDS7x11_4
                0x00000000       0x10 bm_num.o
 .rodata.RDS7x11_5
                0x00000000       0x10 bm_num.o
 .rodata.RDS7x11_6
                0x00000000       0x10 bm_num.o
 .rodata.CS10B_0
                0x00000000        0xc bm_num.o
 .rodata.RDS7x11_8
                0x00000000       0x10 bm_num.o
 .rodata.CS10B_2
                0x00000000        0xc bm_num.o
 .rodata.CS10B_3
                0x00000000        0xc bm_num.o
 .rodata.CS10B_4
                0x00000000        0xc bm_num.o
 .rodata.CS10B_5
                0x00000000        0xc bm_num.o
 .rodata.CS10B_6
                0x00000000        0xc bm_num.o
 .rodata.CS10B_7
                0x00000000        0xc bm_num.o
 .rodata.CS10B_8
                0x00000000        0xc bm_num.o
 .rodata.CS10B_9
                0x00000000        0xc bm_num.o
 .rodata.F0_dp  0x00000000        0xc bm_num.o
 .rodata.CmS28_dp
                0x00000000       0x20 bm_num.o
 .rodata.F3_dp  0x00000000       0x18 bm_num.o
 .rodata.CS10B_dp
                0x00000000        0xc bm_num.o
 .rodata.RDS7x11_pl
                0x00000000        0xc bm_num.o
 .rodata.F2_7   0x00000000       0x20 bm_num.o
 .rodata.RDSfnt0
                0x00000000       0x3c bm_num.o
 .rodata.CS12B_mi
                0x00000000        0xc bm_num.o
 .rodata.RDSfnt3
                0x00000000       0x3c bm_num.o
 .rodata.CS10B_1
                0x00000000        0xc bm_num.o
 .rodata.F2_mi  0x00000000       0x20 bm_num.o
 .rodata.RDS7x11
                0x00000000       0x3c bm_num.o
 .rodata.CmS26_uk
                0x00000000       0x34 bm_num.o
 .rodata.CmS28_pl
                0x00000000       0x34 bm_num.o
 .rodata.F3_pl  0x00000000       0x24 bm_num.o
 .rodata.CS10B_pl
                0x00000000        0xc bm_num.o
 .rodata.RDS7x11_mi
                0x00000000        0x8 bm_num.o
 .rodata.RDS7x11_3
                0x00000000       0x10 bm_num.o
 .rodata.F3_0   0x00000000       0x2c bm_num.o
 .rodata.F3_1   0x00000000       0x2c bm_num.o
 .rodata.F3_2   0x00000000       0x2c bm_num.o
 .rodata.CS12B_uk
                0x00000000        0xc bm_num.o
 .rodata.F3_4   0x00000000       0x2c bm_num.o
 .rodata.F3_5   0x00000000       0x2c bm_num.o
 .rodata.F3_6   0x00000000       0x2c bm_num.o
 .rodata.RDS7x11_7
                0x00000000       0x10 bm_num.o
 .rodata.F3_8   0x00000000       0x2c bm_num.o
 .rodata.F3_9   0x00000000       0x2c bm_num.o
 .rodata.F2_uk  0x00000000       0x1c bm_num.o
 .rodata.RDS7x11_9
                0x00000000       0x10 bm_num.o
 .rodata.F2_pl  0x00000000       0x1c bm_num.o
 .rodata.F0_7   0x00000000        0xc bm_num.o
 .rodata.CmS28_0
                0x00000000       0x58 bm_num.o
 .rodata.CmS28_1
                0x00000000       0x3c bm_num.o
 .rodata.CmS28_2
                0x00000000       0x58 bm_num.o
 .rodata.CmS28_3
                0x00000000       0x58 bm_num.o
 .rodata.CmS28_4
                0x00000000       0x58 bm_num.o
 .rodata.RDS7x11_uk
                0x00000000        0xc bm_num.o
 .rodata.CmS28_6
                0x00000000       0x58 bm_num.o
 .rodata.CmS28_7
                0x00000000       0x58 bm_num.o
 .rodata.CmS28_8
                0x00000000       0x58 bm_num.o
 .rodata.CmS28_9
                0x00000000       0x58 bm_num.o
 .rodata.F2_9   0x00000000       0x20 bm_num.o
 .rodata.F3_mi  0x00000000       0x2c bm_num.o
 .rodata.CS10B_mi
                0x00000000        0xc bm_num.o
 .rodata.CmS28_5
                0x00000000       0x58 bm_num.o
 .rodata.CS12B_3
                0x00000000       0x10 bm_num.o
 .rodata.F0_pl  0x00000000        0xc bm_num.o
 .rodata.CS12B_0
                0x00000000       0x10 bm_num.o
 .rodata.CS12B_1
                0x00000000       0x10 bm_num.o
 .rodata.CS12B_2
                0x00000000       0x1c bm_num.o
 .rodata.ComicSansBold12
                0x00000000       0x3c bm_num.o
 .rodata.CS12B_4
                0x00000000       0x1c bm_num.o
 .rodata.CS12B_5
                0x00000000       0x1c bm_num.o
 .rodata.CS12B_6
                0x00000000       0x10 bm_num.o
 .rodata.CS12B_7
                0x00000000       0x1c bm_num.o
 .rodata.CS12B_8
                0x00000000       0x10 bm_num.o
 .rodata.CS12B_9
                0x00000000       0x10 bm_num.o
 .rodata.CmS26_dp
                0x00000000       0x1c bm_num.o
 .rodata.F3_3   0x00000000       0x2c bm_num.o
 .rodata.CmS28_uk
                0x00000000       0x38 bm_num.o
 .rodata.F3_uk  0x00000000       0x28 bm_num.o
 .rodata.CS10B_uk
                0x00000000        0xc bm_num.o
 .rodata.ComicSans26
                0x00000000       0x3c bm_num.o
 .rodata.F2_0   0x00000000       0x20 bm_num.o
 .rodata.ComicSans28
                0x00000000       0x3c bm_num.o
 .rodata.F2_1   0x00000000       0x20 bm_num.o
 .rodata.CmS26_7
                0x00000000       0x50 bm_num.o
 .rodata.F2_2   0x00000000       0x20 bm_num.o
 .rodata.CmS26_0
                0x00000000       0x50 bm_num.o
 .rodata.CmS26_1
                0x00000000       0x38 bm_num.o
 .rodata.CmS26_2
                0x00000000       0x38 bm_num.o
 .rodata.CmS26_3
                0x00000000       0x38 bm_num.o
 .rodata.CmS26_4
                0x00000000       0x50 bm_num.o
 .rodata.CmS26_5
                0x00000000       0x50 bm_num.o
 .rodata.CmS26_6
                0x00000000       0x50 bm_num.o
 .rodata.CmS28_mi
                0x00000000       0x24 bm_num.o
 .rodata.CmS26_8
                0x00000000       0x50 bm_num.o
 .rodata.CmS26_9
                0x00000000       0x50 bm_num.o
 .rodata.F0_9   0x00000000        0xc bm_num.o
 .rodata.F2_8   0x00000000       0x20 bm_num.o
 .rodata.RDSfnt2
                0x00000000       0x3c bm_num.o
 .debug_macro   0x00000000      0x7de bm_num.o
 .debug_macro   0x00000000       0x29 bm_num.o
 .debug_macro   0x00000000     0x34e5 bm_num.o
 .debug_macro   0x00000000       0x80 bm_num.o
 .debug_macro   0x00000000      0x16c bm_num.o
 .debug_macro   0x00000000       0x46 bm_num.o
 .debug_macro   0x00000000       0xd0 bm_num.o
 .debug_macro   0x00000000       0x98 bm_num.o
 .debug_macro   0x00000000       0x12 bm_num.o
 .debug_macro   0x00000000       0x1e bm_num.o
 .debug_macro   0x00000000      0x193 bm_num.o
 .debug_macro   0x00000000       0x42 bm_num.o
 .debug_macro   0x00000000       0x56 bm_num.o
 .debug_macro   0x00000000       0x6a bm_num.o
 .debug_macro   0x00000000       0x62 bm_num.o
 .debug_macro   0x00000000      0x36f bm_num.o
 .debug_macro   0x00000000      0x7c1 bm_num.o
 .group         0x00000000        0x8 bm_f1all.o
 .group         0x00000000        0x8 bm_f1all.o
 .group         0x00000000        0x8 bm_f1all.o
 .group         0x00000000        0x8 bm_f1all.o
 .group         0x00000000        0x8 bm_f1all.o
 .group         0x00000000        0x8 bm_f1all.o
 .group         0x00000000        0x8 bm_f1all.o
 .group         0x00000000        0x8 bm_f1all.o
 .group         0x00000000        0x8 bm_f1all.o
 .group         0x00000000        0x8 bm_f1all.o
 .group         0x00000000        0x8 bm_f1all.o
 .group         0x00000000        0x8 bm_f1all.o
 .group         0x00000000        0x8 bm_f1all.o
 .group         0x00000000        0x8 bm_f1all.o
 .group         0x00000000        0x8 bm_f1all.o
 .group         0x00000000        0x8 bm_f1all.o
 .group         0x00000000        0x8 bm_f1all.o
 .text          0x00000000        0x0 bm_f1all.o
 .data          0x00000000        0x0 bm_f1all.o
 .bss           0x00000000        0x0 bm_f1all.o
 .debug_macro   0x00000000      0x7de bm_f1all.o
 .debug_macro   0x00000000       0x29 bm_f1all.o
 .debug_macro   0x00000000     0x34e5 bm_f1all.o
 .debug_macro   0x00000000       0x80 bm_f1all.o
 .debug_macro   0x00000000      0x16c bm_f1all.o
 .debug_macro   0x00000000       0x46 bm_f1all.o
 .debug_macro   0x00000000       0xd0 bm_f1all.o
 .debug_macro   0x00000000       0x98 bm_f1all.o
 .debug_macro   0x00000000       0x12 bm_f1all.o
 .debug_macro   0x00000000       0x1e bm_f1all.o
 .debug_macro   0x00000000      0x193 bm_f1all.o
 .debug_macro   0x00000000       0x42 bm_f1all.o
 .debug_macro   0x00000000       0x56 bm_f1all.o
 .debug_macro   0x00000000       0x6a bm_f1all.o
 .debug_macro   0x00000000       0x62 bm_f1all.o
 .debug_macro   0x00000000      0x36f bm_f1all.o
 .debug_macro   0x00000000      0x7c1 bm_f1all.o
 .group         0x00000000        0x8 bm_f1eur.o
 .group         0x00000000        0x8 bm_f1eur.o
 .group         0x00000000        0x8 bm_f1eur.o
 .group         0x00000000        0x8 bm_f1eur.o
 .group         0x00000000        0x8 bm_f1eur.o
 .group         0x00000000        0x8 bm_f1eur.o
 .group         0x00000000        0x8 bm_f1eur.o
 .group         0x00000000        0x8 bm_f1eur.o
 .group         0x00000000        0x8 bm_f1eur.o
 .group         0x00000000        0x8 bm_f1eur.o
 .group         0x00000000        0x8 bm_f1eur.o
 .group         0x00000000        0x8 bm_f1eur.o
 .group         0x00000000        0x8 bm_f1eur.o
 .group         0x00000000        0x8 bm_f1eur.o
 .group         0x00000000        0x8 bm_f1eur.o
 .group         0x00000000        0x8 bm_f1eur.o
 .group         0x00000000        0x8 bm_f1eur.o
 .text          0x00000000        0x0 bm_f1eur.o
 .data          0x00000000        0x0 bm_f1eur.o
 .bss           0x00000000        0x0 bm_f1eur.o
 .debug_macro   0x00000000      0x7de bm_f1eur.o
 .debug_macro   0x00000000       0x29 bm_f1eur.o
 .debug_macro   0x00000000     0x34e5 bm_f1eur.o
 .debug_macro   0x00000000       0x80 bm_f1eur.o
 .debug_macro   0x00000000      0x16c bm_f1eur.o
 .debug_macro   0x00000000       0x46 bm_f1eur.o
 .debug_macro   0x00000000       0xd0 bm_f1eur.o
 .debug_macro   0x00000000       0x98 bm_f1eur.o
 .debug_macro   0x00000000       0x12 bm_f1eur.o
 .debug_macro   0x00000000       0x1e bm_f1eur.o
 .debug_macro   0x00000000      0x193 bm_f1eur.o
 .debug_macro   0x00000000       0x42 bm_f1eur.o
 .debug_macro   0x00000000       0x56 bm_f1eur.o
 .debug_macro   0x00000000       0x6a bm_f1eur.o
 .debug_macro   0x00000000       0x62 bm_f1eur.o
 .debug_macro   0x00000000      0x36f bm_f1eur.o
 .debug_macro   0x00000000      0x7c1 bm_f1eur.o
 .group         0x00000000        0x8 bm_f1cyr.o
 .group         0x00000000        0x8 bm_f1cyr.o
 .group         0x00000000        0x8 bm_f1cyr.o
 .group         0x00000000        0x8 bm_f1cyr.o
 .group         0x00000000        0x8 bm_f1cyr.o
 .group         0x00000000        0x8 bm_f1cyr.o
 .group         0x00000000        0x8 bm_f1cyr.o
 .group         0x00000000        0x8 bm_f1cyr.o
 .group         0x00000000        0x8 bm_f1cyr.o
 .group         0x00000000        0x8 bm_f1cyr.o
 .group         0x00000000        0x8 bm_f1cyr.o
 .group         0x00000000        0x8 bm_f1cyr.o
 .group         0x00000000        0x8 bm_f1cyr.o
 .group         0x00000000        0x8 bm_f1cyr.o
 .group         0x00000000        0x8 bm_f1cyr.o
 .group         0x00000000        0x8 bm_f1cyr.o
 .group         0x00000000        0x8 bm_f1cyr.o
 .text          0x00000000        0x0 bm_f1cyr.o
 .data          0x00000000        0x0 bm_f1cyr.o
 .bss           0x00000000        0x0 bm_f1cyr.o
 .debug_macro   0x00000000      0x7de bm_f1cyr.o
 .debug_macro   0x00000000       0x29 bm_f1cyr.o
 .debug_macro   0x00000000     0x34e5 bm_f1cyr.o
 .debug_macro   0x00000000       0x80 bm_f1cyr.o
 .debug_macro   0x00000000      0x16c bm_f1cyr.o
 .debug_macro   0x00000000       0x46 bm_f1cyr.o
 .debug_macro   0x00000000       0xd0 bm_f1cyr.o
 .debug_macro   0x00000000       0x98 bm_f1cyr.o
 .debug_macro   0x00000000       0x12 bm_f1cyr.o
 .debug_macro   0x00000000       0x1e bm_f1cyr.o
 .debug_macro   0x00000000      0x193 bm_f1cyr.o
 .debug_macro   0x00000000       0x42 bm_f1cyr.o
 .debug_macro   0x00000000       0x56 bm_f1cyr.o
 .debug_macro   0x00000000       0x6a bm_f1cyr.o
 .debug_macro   0x00000000       0x62 bm_f1cyr.o
 .debug_macro   0x00000000      0x36f bm_f1cyr.o
 .debug_macro   0x00000000      0x7c1 bm_f1cyr.o
 .group         0x00000000        0x8 strings.o
 .group         0x00000000        0x8 strings.o
 .group         0x00000000        0x8 strings.o
 .group         0x00000000        0x8 strings.o
 .group         0x00000000        0x8 strings.o
 .group         0x00000000        0x8 strings.o
 .group         0x00000000        0x8 strings.o
 .group         0x00000000        0x8 strings.o
 .group         0x00000000        0x8 strings.o
 .group         0x00000000        0x8 strings.o
 .group         0x00000000        0x8 strings.o
 .group         0x00000000        0x8 strings.o
 .group         0x00000000        0x8 strings.o
 .group         0x00000000        0x8 strings.o
 .group         0x00000000        0x8 strings.o
 .group         0x00000000        0x8 strings.o
 .group         0x00000000        0x8 strings.o
 .text          0x00000000        0x0 strings.o
 .data          0x00000000        0x0 strings.o
 .bss           0x00000000        0x0 strings.o
 .debug_macro   0x00000000      0x7de strings.o
 .debug_macro   0x00000000       0x29 strings.o
 .debug_macro   0x00000000     0x34e5 strings.o
 .debug_macro   0x00000000       0x80 strings.o
 .debug_macro   0x00000000      0x16c strings.o
 .debug_macro   0x00000000       0x46 strings.o
 .debug_macro   0x00000000       0xd0 strings.o
 .debug_macro   0x00000000       0x98 strings.o
 .debug_macro   0x00000000       0x12 strings.o
 .debug_macro   0x00000000       0x1e strings.o
 .debug_macro   0x00000000      0x193 strings.o
 .debug_macro   0x00000000       0x42 strings.o
 .debug_macro   0x00000000       0x56 strings.o
 .debug_macro   0x00000000       0x6a strings.o
 .debug_macro   0x00000000       0x62 strings.o
 .debug_macro   0x00000000      0x36f strings.o
 .debug_macro   0x00000000      0x7c1 strings.o
 .data          0x00000000        0x0 c:/gnuarm-471_eabi/bin/../lib/gcc/arm-none-eabi/4.7.1/thumb\libgcc.a(_udivsi3.o)
 .bss           0x00000000        0x0 c:/gnuarm-471_eabi/bin/../lib/gcc/arm-none-eabi/4.7.1/thumb\libgcc.a(_udivsi3.o)
 .data          0x00000000        0x0 c:/gnuarm-471_eabi/bin/../lib/gcc/arm-none-eabi/4.7.1/thumb\libgcc.a(_divsi3.o)
 .bss           0x00000000        0x0 c:/gnuarm-471_eabi/bin/../lib/gcc/arm-none-eabi/4.7.1/thumb\libgcc.a(_divsi3.o)
 .data          0x00000000        0x0 c:/gnuarm-471_eabi/bin/../lib/gcc/arm-none-eabi/4.7.1/thumb\libgcc.a(_dvmd_tls.o)
 .bss           0x00000000        0x0 c:/gnuarm-471_eabi/bin/../lib/gcc/arm-none-eabi/4.7.1/thumb\libgcc.a(_dvmd_tls.o)
 .data          0x00000000        0x0 c:/gnuarm-471_eabi/bin/../lib/gcc/arm-none-eabi/4.7.1/thumb\libgcc.a(_arm_addsubdf3.o)
 .bss           0x00000000        0x0 c:/gnuarm-471_eabi/bin/../lib/gcc/arm-none-eabi/4.7.1/thumb\libgcc.a(_arm_addsubdf3.o)
 .data          0x00000000        0x0 c:/gnuarm-471_eabi/bin/../lib/gcc/arm-none-eabi/4.7.1/thumb\libgcc.a(_arm_muldivdf3.o)
 .bss           0x00000000        0x0 c:/gnuarm-471_eabi/bin/../lib/gcc/arm-none-eabi/4.7.1/thumb\libgcc.a(_arm_muldivdf3.o)
 .data          0x00000000        0x0 c:/gnuarm-471_eabi/bin/../lib/gcc/arm-none-eabi/4.7.1/thumb\libgcc.a(_arm_cmpdf2.o)
 .bss           0x00000000        0x0 c:/gnuarm-471_eabi/bin/../lib/gcc/arm-none-eabi/4.7.1/thumb\libgcc.a(_arm_cmpdf2.o)
 .data          0x00000000        0x0 c:/gnuarm-471_eabi/bin/../lib/gcc/arm-none-eabi/4.7.1/thumb\libgcc.a(_arm_fixunsdfsi.o)
 .bss           0x00000000        0x0 c:/gnuarm-471_eabi/bin/../lib/gcc/arm-none-eabi/4.7.1/thumb\libgcc.a(_arm_fixunsdfsi.o)
 .data          0x00000000        0x0 c:/gnuarm-471_eabi/bin/../lib/gcc/arm-none-eabi/4.7.1/thumb\libgcc.a(_arm_truncdfsf2.o)
 .bss           0x00000000        0x0 c:/gnuarm-471_eabi/bin/../lib/gcc/arm-none-eabi/4.7.1/thumb\libgcc.a(_arm_truncdfsf2.o)
 .data          0x00000000        0x0 c:/gnuarm-471_eabi/bin/../lib/gcc/arm-none-eabi/4.7.1/thumb\libgcc.a(_arm_addsubsf3.o)
 .bss           0x00000000        0x0 c:/gnuarm-471_eabi/bin/../lib/gcc/arm-none-eabi/4.7.1/thumb\libgcc.a(_arm_addsubsf3.o)
 .data          0x00000000        0x0 c:/gnuarm-471_eabi/bin/../lib/gcc/arm-none-eabi/4.7.1/thumb\libgcc.a(_arm_muldivsf3.o)
 .bss           0x00000000        0x0 c:/gnuarm-471_eabi/bin/../lib/gcc/arm-none-eabi/4.7.1/thumb\libgcc.a(_arm_muldivsf3.o)
 .data          0x00000000        0x0 c:/gnuarm-471_eabi/bin/../lib/gcc/arm-none-eabi/4.7.1/thumb\libgcc.a(_arm_cmpsf2.o)
 .bss           0x00000000        0x0 c:/gnuarm-471_eabi/bin/../lib/gcc/arm-none-eabi/4.7.1/thumb\libgcc.a(_arm_cmpsf2.o)
 .data          0x00000000        0x0 c:/gnuarm-471_eabi/bin/../lib/gcc/arm-none-eabi/4.7.1/thumb\libgcc.a(_arm_fixunssfsi.o)
 .bss           0x00000000        0x0 c:/gnuarm-471_eabi/bin/../lib/gcc/arm-none-eabi/4.7.1/thumb\libgcc.a(_arm_fixunssfsi.o)
 .data          0x00000000        0x0 c:/gnuarm-471_eabi/bin/../lib/gcc/arm-none-eabi/4.7.1/../../../../arm-none-eabi/lib/thumb\libg.a(lib_a-atoff.o)
 .bss           0x00000000        0x0 c:/gnuarm-471_eabi/bin/../lib/gcc/arm-none-eabi/4.7.1/../../../../arm-none-eabi/lib/thumb\libg.a(lib_a-atoff.o)
 .data          0x00000000        0x0 c:/gnuarm-471_eabi/bin/../lib/gcc/arm-none-eabi/4.7.1/../../../../arm-none-eabi/lib/thumb\libg.a(lib_a-atoi.o)
 .bss           0x00000000        0x0 c:/gnuarm-471_eabi/bin/../lib/gcc/arm-none-eabi/4.7.1/../../../../arm-none-eabi/lib/thumb\libg.a(lib_a-atoi.o)
 .data          0x00000000        0x0 c:/gnuarm-471_eabi/bin/../lib/gcc/arm-none-eabi/4.7.1/../../../../arm-none-eabi/lib/thumb\libg.a(lib_a-atol.o)
 .bss           0x00000000        0x0 c:/gnuarm-471_eabi/bin/../lib/gcc/arm-none-eabi/4.7.1/../../../../arm-none-eabi/lib/thumb\libg.a(lib_a-atol.o)
 .data          0x00000000        0x0 c:/gnuarm-471_eabi/bin/../lib/gcc/arm-none-eabi/4.7.1/../../../../arm-none-eabi/lib/thumb\libg.a(lib_a-memcpy-stub.o)
 .bss           0x00000000        0x0 c:/gnuarm-471_eabi/bin/../lib/gcc/arm-none-eabi/4.7.1/../../../../arm-none-eabi/lib/thumb\libg.a(lib_a-memcpy-stub.o)
 .data          0x00000000        0x0 c:/gnuarm-471_eabi/bin/../lib/gcc/arm-none-eabi/4.7.1/../../../../arm-none-eabi/lib/thumb\libg.a(lib_a-memset.o)
 .bss           0x00000000        0x0 c:/gnuarm-471_eabi/bin/../lib/gcc/arm-none-eabi/4.7.1/../../../../arm-none-eabi/lib/thumb\libg.a(lib_a-memset.o)
 .data          0x00000000        0x0 c:/gnuarm-471_eabi/bin/../lib/gcc/arm-none-eabi/4.7.1/../../../../arm-none-eabi/lib/thumb\libg.a(lib_a-sprintf.o)
 .bss           0x00000000        0x0 c:/gnuarm-471_eabi/bin/../lib/gcc/arm-none-eabi/4.7.1/../../../../arm-none-eabi/lib/thumb\libg.a(lib_a-sprintf.o)
 .data          0x00000000        0x0 c:/gnuarm-471_eabi/bin/../lib/gcc/arm-none-eabi/4.7.1/../../../../arm-none-eabi/lib/thumb\libg.a(lib_a-strcat.o)
 .bss           0x00000000        0x0 c:/gnuarm-471_eabi/bin/../lib/gcc/arm-none-eabi/4.7.1/../../../../arm-none-eabi/lib/thumb\libg.a(lib_a-strcat.o)
 .data          0x00000000        0x0 c:/gnuarm-471_eabi/bin/../lib/gcc/arm-none-eabi/4.7.1/../../../../arm-none-eabi/lib/thumb\libg.a(lib_a-strcpy.o)
 .bss           0x00000000        0x0 c:/gnuarm-471_eabi/bin/../lib/gcc/arm-none-eabi/4.7.1/../../../../arm-none-eabi/lib/thumb\libg.a(lib_a-strcpy.o)
 .data          0x00000000        0x0 c:/gnuarm-471_eabi/bin/../lib/gcc/arm-none-eabi/4.7.1/../../../../arm-none-eabi/lib/thumb\libg.a(lib_a-strlen.o)
 .bss           0x00000000        0x0 c:/gnuarm-471_eabi/bin/../lib/gcc/arm-none-eabi/4.7.1/../../../../arm-none-eabi/lib/thumb\libg.a(lib_a-strlen.o)
 .data          0x00000000        0x0 c:/gnuarm-471_eabi/bin/../lib/gcc/arm-none-eabi/4.7.1/../../../../arm-none-eabi/lib/thumb\libg.a(lib_a-strncpy.o)
 .bss           0x00000000        0x0 c:/gnuarm-471_eabi/bin/../lib/gcc/arm-none-eabi/4.7.1/../../../../arm-none-eabi/lib/thumb\libg.a(lib_a-strncpy.o)
 .bss           0x00000000        0x0 c:/gnuarm-471_eabi/bin/../lib/gcc/arm-none-eabi/4.7.1/../../../../arm-none-eabi/lib/thumb\libg.a(lib_a-strtod.o)
 .data          0x00000000        0x0 c:/gnuarm-471_eabi/bin/../lib/gcc/arm-none-eabi/4.7.1/../../../../arm-none-eabi/lib/thumb\libg.a(lib_a-strtol.o)
 .bss           0x00000000        0x0 c:/gnuarm-471_eabi/bin/../lib/gcc/arm-none-eabi/4.7.1/../../../../arm-none-eabi/lib/thumb\libg.a(lib_a-strtol.o)
 .data          0x00000000        0x0 c:/gnuarm-471_eabi/bin/../lib/gcc/arm-none-eabi/4.7.1/../../../../arm-none-eabi/lib/thumb\libg.a(lib_a-svfprintf.o)
 .bss           0x00000000        0x0 c:/gnuarm-471_eabi/bin/../lib/gcc/arm-none-eabi/4.7.1/../../../../arm-none-eabi/lib/thumb\libg.a(lib_a-svfprintf.o)
 .text          0x00000000        0x0 c:/gnuarm-471_eabi/bin/../lib/gcc/arm-none-eabi/4.7.1/../../../../arm-none-eabi/lib/thumb\libg.a(lib_a-ctype_.o)
 .bss           0x00000000        0x0 c:/gnuarm-471_eabi/bin/../lib/gcc/arm-none-eabi/4.7.1/../../../../arm-none-eabi/lib/thumb\libg.a(lib_a-ctype_.o)
 .data          0x00000000        0x0 c:/gnuarm-471_eabi/bin/../lib/gcc/arm-none-eabi/4.7.1/../../../../arm-none-eabi/lib/thumb\libg.a(lib_a-dtoa.o)
 .bss           0x00000000        0x0 c:/gnuarm-471_eabi/bin/../lib/gcc/arm-none-eabi/4.7.1/../../../../arm-none-eabi/lib/thumb\libg.a(lib_a-dtoa.o)
 .data          0x00000000        0x0 c:/gnuarm-471_eabi/bin/../lib/gcc/arm-none-eabi/4.7.1/../../../../arm-none-eabi/lib/thumb\libg.a(lib_a-gdtoa-gethex.o)
 .bss           0x00000000        0x0 c:/gnuarm-471_eabi/bin/../lib/gcc/arm-none-eabi/4.7.1/../../../../arm-none-eabi/lib/thumb\libg.a(lib_a-gdtoa-gethex.o)
 .data          0x00000000        0x0 c:/gnuarm-471_eabi/bin/../lib/gcc/arm-none-eabi/4.7.1/../../../../arm-none-eabi/lib/thumb\libg.a(lib_a-gdtoa-hexnan.o)
 .bss           0x00000000        0x0 c:/gnuarm-471_eabi/bin/../lib/gcc/arm-none-eabi/4.7.1/../../../../arm-none-eabi/lib/thumb\libg.a(lib_a-gdtoa-hexnan.o)
 .text          0x00000000        0x0 c:/gnuarm-471_eabi/bin/../lib/gcc/arm-none-eabi/4.7.1/../../../../arm-none-eabi/lib/thumb\libg.a(lib_a-impure.o)
 .bss           0x00000000        0x0 c:/gnuarm-471_eabi/bin/../lib/gcc/arm-none-eabi/4.7.1/../../../../arm-none-eabi/lib/thumb\libg.a(lib_a-impure.o)
 .rodata        0x00000000        0x4 c:/gnuarm-471_eabi/bin/../lib/gcc/arm-none-eabi/4.7.1/../../../../arm-none-eabi/lib/thumb\libg.a(lib_a-impure.o)
 .bss           0x00000000        0xc c:/gnuarm-471_eabi/bin/../lib/gcc/arm-none-eabi/4.7.1/../../../../arm-none-eabi/lib/thumb\libg.a(lib_a-locale.o)
 .data          0x00000000        0x0 c:/gnuarm-471_eabi/bin/../lib/gcc/arm-none-eabi/4.7.1/../../../../arm-none-eabi/lib/thumb\libg.a(lib_a-memchr-stub.o)
 .bss           0x00000000        0x0 c:/gnuarm-471_eabi/bin/../lib/gcc/arm-none-eabi/4.7.1/../../../../arm-none-eabi/lib/thumb\libg.a(lib_a-memchr-stub.o)
 .data          0x00000000        0x0 c:/gnuarm-471_eabi/bin/../lib/gcc/arm-none-eabi/4.7.1/../../../../arm-none-eabi/lib/thumb\libg.a(lib_a-mlock.o)
 .bss           0x00000000        0x0 c:/gnuarm-471_eabi/bin/../lib/gcc/arm-none-eabi/4.7.1/../../../../arm-none-eabi/lib/thumb\libg.a(lib_a-mlock.o)
 .data          0x00000000        0x0 c:/gnuarm-471_eabi/bin/../lib/gcc/arm-none-eabi/4.7.1/../../../../arm-none-eabi/lib/thumb\libg.a(lib_a-mprec.o)
 .bss           0x00000000        0x0 c:/gnuarm-471_eabi/bin/../lib/gcc/arm-none-eabi/4.7.1/../../../../arm-none-eabi/lib/thumb\libg.a(lib_a-mprec.o)
 .data          0x00000000        0x0 c:/gnuarm-471_eabi/bin/../lib/gcc/arm-none-eabi/4.7.1/../../../../arm-none-eabi/lib/thumb\libg.a(lib_a-s_fpclassify.o)
 .bss           0x00000000        0x0 c:/gnuarm-471_eabi/bin/../lib/gcc/arm-none-eabi/4.7.1/../../../../arm-none-eabi/lib/thumb\libg.a(lib_a-s_fpclassify.o)
 .data          0x00000000        0x0 c:/gnuarm-471_eabi/bin/../lib/gcc/arm-none-eabi/4.7.1/../../../../arm-none-eabi/lib/thumb\libg.a(lib_a-sf_nan.o)
 .bss           0x00000000        0x0 c:/gnuarm-471_eabi/bin/../lib/gcc/arm-none-eabi/4.7.1/../../../../arm-none-eabi/lib/thumb\libg.a(lib_a-sf_nan.o)
 .data          0x00000000        0x0 c:/gnuarm-471_eabi/bin/../lib/gcc/arm-none-eabi/4.7.1/../../../../arm-none-eabi/lib/thumb\libg.a(lib_a-strcmp.o)
 .bss           0x00000000        0x0 c:/gnuarm-471_eabi/bin/../lib/gcc/arm-none-eabi/4.7.1/../../../../arm-none-eabi/lib/thumb\libg.a(lib_a-strcmp.o)
 .data          0x00000000        0x0 c:/gnuarm-471_eabi/bin/../lib/gcc/arm-none-eabi/4.7.1/../../../../arm-none-eabi/lib/thumb\libg.a(lib_a-strncmp.o)
 .bss           0x00000000        0x0 c:/gnuarm-471_eabi/bin/../lib/gcc/arm-none-eabi/4.7.1/../../../../arm-none-eabi/lib/thumb\libg.a(lib_a-strncmp.o)
 .data          0x00000000        0x0 c:/gnuarm-471_eabi/bin/../lib/gcc/arm-none-eabi/4.7.1/../../../../arm-none-eabi/lib/thumb\libg.a(lib_a-svfiprintf.o)
 .bss           0x00000000        0x0 c:/gnuarm-471_eabi/bin/../lib/gcc/arm-none-eabi/4.7.1/../../../../arm-none-eabi/lib/thumb\libg.a(lib_a-svfiprintf.o)
 .data          0x00000000        0x0 c:/gnuarm-471_eabi/bin/../lib/gcc/arm-none-eabi/4.7.1/../../../../arm-none-eabi/lib/thumb\libg.a(lib_a-callocr.o)
 .bss           0x00000000        0x0 c:/gnuarm-471_eabi/bin/../lib/gcc/arm-none-eabi/4.7.1/../../../../arm-none-eabi/lib/thumb\libg.a(lib_a-callocr.o)
 .data          0x00000000        0x0 c:/gnuarm-471_eabi/bin/../lib/gcc/arm-none-eabi/4.7.1/../../../../arm-none-eabi/lib/thumb\libg.a(lib_a-freer.o)
 .bss           0x00000000        0x0 c:/gnuarm-471_eabi/bin/../lib/gcc/arm-none-eabi/4.7.1/../../../../arm-none-eabi/lib/thumb\libg.a(lib_a-freer.o)
 .data          0x00000000        0x0 c:/gnuarm-471_eabi/bin/../lib/gcc/arm-none-eabi/4.7.1/../../../../arm-none-eabi/lib/thumb\libg.a(lib_a-memmove.o)
 .bss           0x00000000        0x0 c:/gnuarm-471_eabi/bin/../lib/gcc/arm-none-eabi/4.7.1/../../../../arm-none-eabi/lib/thumb\libg.a(lib_a-memmove.o)
 .data          0x00000000        0x0 c:/gnuarm-471_eabi/bin/../lib/gcc/arm-none-eabi/4.7.1/../../../../arm-none-eabi/lib/thumb\libg.a(lib_a-reallocr.o)
 .bss           0x00000000        0x0 c:/gnuarm-471_eabi/bin/../lib/gcc/arm-none-eabi/4.7.1/../../../../arm-none-eabi/lib/thumb\libg.a(lib_a-reallocr.o)
 .data          0x00000000        0x0 c:/gnuarm-471_eabi/bin/../lib/gcc/arm-none-eabi/4.7.1/thumb\libgcc.a(_arm_fixdfsi.o)
 .bss           0x00000000        0x0 c:/gnuarm-471_eabi/bin/../lib/gcc/arm-none-eabi/4.7.1/thumb\libgcc.a(_arm_fixdfsi.o)

Memory Configuration

Name             Origin             Length             Attributes
CODE             0x00101000         0x00040000         xr
DATA             0x00200000         0x00008000         rw
STACK            0x00208000         0x00000000         rw
*default*        0x00000000         0xffffffff

Linker script and memory map

LOAD Cstartup.o
LOAD Cstartup_SAM7.o
LOAD syscalls.o
LOAD portISR.o
LOAD interrupts.o
LOAD main.o
LOAD heap_2.o
LOAD functions.o
LOAD display.o
LOAD screens.o
LOAD tasks.o
LOAD queue.o
LOAD list.o
LOAD port.o
LOAD serial.o
LOAD comtest.o
LOAD CANtest.o
LOAD CAN_mcm.o
LOAD TWI_task.o
LOAD Operate.o
LOAD Power.o
LOAD bm_sym.o
LOAD bm_num.o
LOAD bm_f1all.o
LOAD bm_f1eur.o
LOAD bm_f1cyr.o
LOAD strings.o
LOAD c:/gnuarm-471_eabi/bin/../lib/gcc/arm-none-eabi/4.7.1/../../../../arm-none-eabi/lib/thumb\libm.a
START GROUP
LOAD c:/gnuarm-471_eabi/bin/../lib/gcc/arm-none-eabi/4.7.1/thumb\libgcc.a
LOAD c:/gnuarm-471_eabi/bin/../lib/gcc/arm-none-eabi/4.7.1/../../../../arm-none-eabi/lib/thumb\libg.a
LOAD c:/gnuarm-471_eabi/bin/../lib/gcc/arm-none-eabi/4.7.1/../../../../arm-none-eabi/lib/thumb\libc.a
END GROUP
                0x00000000                . = 0x0

.vectROM        0x00101000       0x5c
 *(.vectROM)
 .vectROM       0x00101000       0x5c Cstartup.o
                0x0010105c                . = ALIGN (0x4)

.text           0x00101060     0x7e7c
 *(.text)
 .text          0x00101060       0xe8 Cstartup.o
                0x00101060                _startup
                0x00101110                freeFlash
                0x00101122                exit
 .text          0x00101148      0x11c c:/gnuarm-471_eabi/bin/../lib/gcc/arm-none-eabi/4.7.1/thumb\libgcc.a(_udivsi3.o)
                0x00101148                __aeabi_uidiv
                0x00101148                __udivsi3
                0x00101244                __aeabi_uidivmod
 .text          0x00101264      0x150 c:/gnuarm-471_eabi/bin/../lib/gcc/arm-none-eabi/4.7.1/thumb\libgcc.a(_divsi3.o)
                0x00101264                __divsi3
                0x00101264                __aeabi_idiv
                0x00101394                __aeabi_idivmod
 .text          0x001013b4        0x4 c:/gnuarm-471_eabi/bin/../lib/gcc/arm-none-eabi/4.7.1/thumb\libgcc.a(_dvmd_tls.o)
                0x001013b4                __aeabi_idiv0
                0x001013b4                __aeabi_ldiv0
 .text          0x001013b8      0x41c c:/gnuarm-471_eabi/bin/../lib/gcc/arm-none-eabi/4.7.1/thumb\libgcc.a(_arm_addsubdf3.o)
                0x001013b8                __aeabi_drsub
                0x001013c0                __aeabi_dsub
                0x001013c0                __subdf3
                0x001013c4                __aeabi_dadd
                0x001013c4                __adddf3
                0x001016d4                __floatunsidf
                0x001016d4                __aeabi_ui2d
                0x001016f8                __floatsidf
                0x001016f8                __aeabi_i2d
                0x00101720                __aeabi_f2d
                0x00101720                __extendsfdf2
                0x00101760                __floatundidf
                0x00101760                __aeabi_ul2d
                0x00101774                __floatdidf
                0x00101774                __aeabi_l2d
 .text          0x001017d4      0x49c c:/gnuarm-471_eabi/bin/../lib/gcc/arm-none-eabi/4.7.1/thumb\libgcc.a(_arm_muldivdf3.o)
                0x001017d4                __aeabi_dmul
                0x001017d4                __muldf3
                0x00101a64                __divdf3
                0x00101a64                __aeabi_ddiv
 .text          0x00101c70      0x144 c:/gnuarm-471_eabi/bin/../lib/gcc/arm-none-eabi/4.7.1/thumb\libgcc.a(_arm_cmpdf2.o)
                0x00101c70                __gtdf2
                0x00101c70                __gedf2
                0x00101c78                __ltdf2
                0x00101c78                __ledf2
                0x00101c80                __nedf2
                0x00101c80                __eqdf2
                0x00101c80                __cmpdf2
                0x00101d08                __aeabi_cdrcmple
                0x00101d24                __aeabi_cdcmpeq
                0x00101d24                __aeabi_cdcmple
                0x00101d3c                __aeabi_dcmpeq
                0x00101d54                __aeabi_dcmplt
                0x00101d6c                __aeabi_dcmple
                0x00101d84                __aeabi_dcmpge
                0x00101d9c                __aeabi_dcmpgt
 .text          0x00101db4       0x54 c:/gnuarm-471_eabi/bin/../lib/gcc/arm-none-eabi/4.7.1/thumb\libgcc.a(_arm_fixunsdfsi.o)
                0x00101db4                __aeabi_d2uiz
                0x00101db4                __fixunsdfsi
 .text          0x00101e08       0xa0 c:/gnuarm-471_eabi/bin/../lib/gcc/arm-none-eabi/4.7.1/thumb\libgcc.a(_arm_truncdfsf2.o)
                0x00101e08                __truncdfsf2
                0x00101e08                __aeabi_d2f
 .text          0x00101ea8      0x2ac c:/gnuarm-471_eabi/bin/../lib/gcc/arm-none-eabi/4.7.1/thumb\libgcc.a(_arm_addsubsf3.o)
                0x00101ea8                __aeabi_frsub
                0x00101eb0                __subsf3
                0x00101eb0                __aeabi_fsub
                0x00101eb4                __aeabi_fadd
                0x00101eb4                __addsf3
                0x00102070                __aeabi_ui2f
                0x00102070                __floatunsisf
                0x00102078                __aeabi_i2f
                0x00102078                __floatsisf
                0x00102098                __aeabi_ul2f
                0x00102098                __floatundisf
                0x001020a8                __aeabi_l2f
                0x001020a8                __floatdisf
 .text          0x00102154      0x2f8 c:/gnuarm-471_eabi/bin/../lib/gcc/arm-none-eabi/4.7.1/thumb\libgcc.a(_arm_muldivsf3.o)
                0x00102154                __mulsf3
                0x00102154                __aeabi_fmul
                0x001022ec                __aeabi_fdiv
                0x001022ec                __divsf3
 .text          0x0010244c      0x114 c:/gnuarm-471_eabi/bin/../lib/gcc/arm-none-eabi/4.7.1/thumb\libgcc.a(_arm_cmpsf2.o)
                0x0010244c                __gesf2
                0x0010244c                __gtsf2
                0x00102454                __lesf2
                0x00102454                __ltsf2
                0x0010245c                __nesf2
                0x0010245c                __eqsf2
                0x0010245c                __cmpsf2
                0x001024c0                __aeabi_cfrcmple
                0x001024d0                __aeabi_cfcmpeq
                0x001024d0                __aeabi_cfcmple
                0x001024e8                __aeabi_fcmpeq
                0x00102500                __aeabi_fcmplt
                0x00102518                __aeabi_fcmple
                0x00102530                __aeabi_fcmpge
                0x00102548                __aeabi_fcmpgt
 .text          0x00102560       0x54 c:/gnuarm-471_eabi/bin/../lib/gcc/arm-none-eabi/4.7.1/thumb\libgcc.a(_arm_fixunssfsi.o)
                0x00102560                __fixunssfsi
                0x00102560                __aeabi_f2uiz
 .text          0x001025b4       0x10 c:/gnuarm-471_eabi/bin/../lib/gcc/arm-none-eabi/4.7.1/../../../../arm-none-eabi/lib/thumb\libg.a(lib_a-atoff.o)
                0x001025b4                atoff
 .text          0x001025c4       0x20 c:/gnuarm-471_eabi/bin/../lib/gcc/arm-none-eabi/4.7.1/../../../../arm-none-eabi/lib/thumb\libg.a(lib_a-atoi.o)
                0x001025c4                atoi
                0x001025d4                _atoi_r
 .text          0x001025e4       0x20 c:/gnuarm-471_eabi/bin/../lib/gcc/arm-none-eabi/4.7.1/../../../../arm-none-eabi/lib/thumb\libg.a(lib_a-atol.o)
                0x001025e4                atol
                0x001025f4                _atol_r
 .text          0x00102604       0x90 c:/gnuarm-471_eabi/bin/../lib/gcc/arm-none-eabi/4.7.1/../../../../arm-none-eabi/lib/thumb\libg.a(lib_a-memcpy-stub.o)
                0x00102604                memcpy
 .text          0x00102694       0x98 c:/gnuarm-471_eabi/bin/../lib/gcc/arm-none-eabi/4.7.1/../../../../arm-none-eabi/lib/thumb\libg.a(lib_a-memset.o)
                0x00102694                memset
 .text          0x0010272c       0x84 c:/gnuarm-471_eabi/bin/../lib/gcc/arm-none-eabi/4.7.1/../../../../arm-none-eabi/lib/thumb\libg.a(lib_a-sprintf.o)
                0x0010272c                _sprintf_r
                0x0010276c                sprintf
 .text          0x001027b0       0x50 c:/gnuarm-471_eabi/bin/../lib/gcc/arm-none-eabi/4.7.1/../../../../arm-none-eabi/lib/thumb\libg.a(lib_a-strcat.o)
                0x001027b0                strcat
 .text          0x00102800       0x10 c:/gnuarm-471_eabi/bin/../lib/gcc/arm-none-eabi/4.7.1/../../../../arm-none-eabi/lib/thumb\libg.a(lib_a-strcpy.o)
                0x00102800                strcpy
 .text          0x00102810       0x10 c:/gnuarm-471_eabi/bin/../lib/gcc/arm-none-eabi/4.7.1/../../../../arm-none-eabi/lib/thumb\libg.a(lib_a-strlen.o)
                0x00102810                strlen
 .text          0x00102820       0x60 c:/gnuarm-471_eabi/bin/../lib/gcc/arm-none-eabi/4.7.1/../../../../arm-none-eabi/lib/thumb\libg.a(lib_a-strncpy.o)
                0x00102820                strncpy
 .text          0x00102880      0xee8 c:/gnuarm-471_eabi/bin/../lib/gcc/arm-none-eabi/4.7.1/../../../../arm-none-eabi/lib/thumb\libg.a(lib_a-strtod.o)
                0x00102880                _strtod_r
                0x00103714                strtod
                0x00103730                strtof
 .text          0x00103768      0x190 c:/gnuarm-471_eabi/bin/../lib/gcc/arm-none-eabi/4.7.1/../../../../arm-none-eabi/lib/thumb\libg.a(lib_a-strtol.o)
                0x00103768                _strtol_r
                0x001038d8                strtol
 .text          0x001038f8     0x1368 c:/gnuarm-471_eabi/bin/../lib/gcc/arm-none-eabi/4.7.1/../../../../arm-none-eabi/lib/thumb\libg.a(lib_a-svfprintf.o)
                0x001038f8                _svfprintf_r
 .text          0x00104c60     0x10a0 c:/gnuarm-471_eabi/bin/../lib/gcc/arm-none-eabi/4.7.1/../../../../arm-none-eabi/lib/thumb\libg.a(lib_a-dtoa.o)
                0x00104db8                _dtoa_r
 .text          0x00105d00      0x66c c:/gnuarm-471_eabi/bin/../lib/gcc/arm-none-eabi/4.7.1/../../../../arm-none-eabi/lib/thumb\libg.a(lib_a-gdtoa-gethex.o)
                0x00105dc4                __hexdig_init
                0x00105e1c                __gethex
 .text          0x0010636c      0x1dc c:/gnuarm-471_eabi/bin/../lib/gcc/arm-none-eabi/4.7.1/../../../../arm-none-eabi/lib/thumb\libg.a(lib_a-gdtoa-hexnan.o)
                0x0010636c                __hexnan
 .text          0x00106548       0xa0 c:/gnuarm-471_eabi/bin/../lib/gcc/arm-none-eabi/4.7.1/../../../../arm-none-eabi/lib/thumb\libg.a(lib_a-locale.o)
                0x00106548                _setlocale_r
                0x00106590                __locale_charset
                0x00106598                __locale_mb_cur_max
                0x001065a4                __locale_msgcharset
                0x001065b0                __locale_cjk_lang
                0x001065b4                _localeconv_r
                0x001065c0                setlocale
                0x001065dc                localeconv
 .text          0x001065e8      0x51c c:/gnuarm-471_eabi/bin/../lib/gcc/arm-none-eabi/4.7.1/../../../../arm-none-eabi/lib/thumb\libg.a(lib_a-mallocr.o)
                0x001065e8                _malloc_r
 .text          0x00106b04       0x98 c:/gnuarm-471_eabi/bin/../lib/gcc/arm-none-eabi/4.7.1/../../../../arm-none-eabi/lib/thumb\libg.a(lib_a-memchr-stub.o)
                0x00106b04                memchr
 .text          0x00106b9c        0x8 c:/gnuarm-471_eabi/bin/../lib/gcc/arm-none-eabi/4.7.1/../../../../arm-none-eabi/lib/thumb\libg.a(lib_a-mlock.o)
                0x00106b9c                __malloc_lock
                0x00106ba0                __malloc_unlock
 *fill*         0x00106ba4        0x4 00
 .text          0x00106ba8      0x978 c:/gnuarm-471_eabi/bin/../lib/gcc/arm-none-eabi/4.7.1/../../../../arm-none-eabi/lib/thumb\libg.a(lib_a-mprec.o)
                0x00106ba8                _Balloc
                0x00106bfc                _Bfree
                0x00106c14                __multadd
                0x00106cc0                __s2b
                0x00106d5c                __hi0bits
                0x00106d94                __lo0bits
                0x00106df4                __i2b
                0x00106e0c                __multiply
                0x00106f70                __pow5mult
                0x00107020                __lshift
                0x001070f0                __mcmp
                0x0010712c                __mdiff
                0x0010721c                __ulp
                0x00107264                __b2d
                0x00107308                __d2b
                0x001073c0                __ratio
                0x0010743c                _mprec_log10
                0x0010747c                __copybits
                0x001074c4                __any_on
 .text          0x00107520       0x5c c:/gnuarm-471_eabi/bin/../lib/gcc/arm-none-eabi/4.7.1/../../../../arm-none-eabi/lib/thumb\libg.a(lib_a-s_fpclassify.o)
                0x00107520                __fpclassifyd
 .text          0x0010757c        0x8 c:/gnuarm-471_eabi/bin/../lib/gcc/arm-none-eabi/4.7.1/../../../../arm-none-eabi/lib/thumb\libg.a(lib_a-sf_nan.o)
                0x0010757c                nanf
 .text          0x00107584       0x14 c:/gnuarm-471_eabi/bin/../lib/gcc/arm-none-eabi/4.7.1/../../../../arm-none-eabi/lib/thumb\libg.a(lib_a-strcmp.o)
                0x00107584                strcmp
 .text          0x00107598       0xbc c:/gnuarm-471_eabi/bin/../lib/gcc/arm-none-eabi/4.7.1/../../../../arm-none-eabi/lib/thumb\libg.a(lib_a-strncmp.o)
                0x00107598                strncmp
 .text          0x00107654      0xa00 c:/gnuarm-471_eabi/bin/../lib/gcc/arm-none-eabi/4.7.1/../../../../arm-none-eabi/lib/thumb\libg.a(lib_a-svfiprintf.o)
                0x00107654                __ssprint_r
                0x00107784                _svfiprintf_r
 .text          0x00108054       0x64 c:/gnuarm-471_eabi/bin/../lib/gcc/arm-none-eabi/4.7.1/../../../../arm-none-eabi/lib/thumb\libg.a(lib_a-callocr.o)
                0x00108054                _calloc_r
 .text          0x001080b8      0x238 c:/gnuarm-471_eabi/bin/../lib/gcc/arm-none-eabi/4.7.1/../../../../arm-none-eabi/lib/thumb\libg.a(lib_a-freer.o)
                0x001080b8                _malloc_trim_r
                0x0010815c                _free_r
 .text          0x001082f0       0xb0 c:/gnuarm-471_eabi/bin/../lib/gcc/arm-none-eabi/4.7.1/../../../../arm-none-eabi/lib/thumb\libg.a(lib_a-memmove.o)
                0x001082f0                memmove
 .text          0x001083a0      0x3e8 c:/gnuarm-471_eabi/bin/../lib/gcc/arm-none-eabi/4.7.1/../../../../arm-none-eabi/lib/thumb\libg.a(lib_a-reallocr.o)
                0x001083a0                _realloc_r
 .text          0x00108788       0x5c c:/gnuarm-471_eabi/bin/../lib/gcc/arm-none-eabi/4.7.1/thumb\libgcc.a(_arm_fixdfsi.o)
                0x00108788                __aeabi_d2iz
                0x00108788                __fixdfsi
 *fill*         0x001087e4        0x4 00
 .text.stub     0x001087e8       0xa4 linker stubs
 *(.glue_7t)
 .glue_7t       0x00000000        0x0 linker stubs
 *(.glue_7)
 .glue_7        0x00000000        0x0 linker stubs
 *(.rodata)
 .rodata        0x00108890       0x20 functions.o
 *fill*         0x001088b0        0x0 00
 .rodata        0x001088b0       0xf8 c:/gnuarm-471_eabi/bin/../lib/gcc/arm-none-eabi/4.7.1/../../../../arm-none-eabi/lib/thumb\libg.a(lib_a-strtod.o)
 .rodata        0x001089a8      0x184 c:/gnuarm-471_eabi/bin/../lib/gcc/arm-none-eabi/4.7.1/../../../../arm-none-eabi/lib/thumb\libg.a(lib_a-svfprintf.o)
 .rodata        0x00108b2c      0x104 c:/gnuarm-471_eabi/bin/../lib/gcc/arm-none-eabi/4.7.1/../../../../arm-none-eabi/lib/thumb\libg.a(lib_a-ctype_.o)
                0x00108b2c                _ctype_
 .rodata        0x00108c30      0x128 c:/gnuarm-471_eabi/bin/../lib/gcc/arm-none-eabi/4.7.1/../../../../arm-none-eabi/lib/thumb\libg.a(lib_a-mprec.o)
                0x00108c40                __mprec_tens
                0x00108d08                __mprec_tinytens
                0x00108d30                __mprec_bigtens
 .rodata        0x00108d58      0x184 c:/gnuarm-471_eabi/bin/../lib/gcc/arm-none-eabi/4.7.1/../../../../arm-none-eabi/lib/thumb\libg.a(lib_a-svfiprintf.o)

.vfp11_veneer   0x00108edc        0x0
 .vfp11_veneer  0x00000000        0x0 linker stubs

.v4_bx          0x00108edc        0x0
 .v4_bx         0x00000000        0x0 linker stubs

.iplt           0x00108edc        0x0
 .iplt          0x00000000        0x0 Cstartup.o

.text.AT91F_LowLevelInit
                0x00108edc       0xe8
 .text.AT91F_LowLevelInit
                0x00108edc       0xe8 Cstartup_SAM7.o
                0x00108edc                AT91F_LowLevelInit

.text._sbrk_r   0x00108fc4       0x34
 .text._sbrk_r  0x00108fc4       0x34 syscalls.o
                0x00108fc4                _sbrk_r

.text.vPortISRStartFirstTask
                0x00108ff8       0x54
 .text.vPortISRStartFirstTask
                0x00108ff8       0x54 portISR.o
                0x00108ff8                vPortISRStartFirstTask

.text.vPortYieldProcessor
                0x00109050       0xc0
 .text.vPortYieldProcessor
                0x00109050       0xac portISR.o
                0x00109050                vPortYieldProcessor
 *fill*         0x001090fc        0x4 00
 .text.vPortYieldProcessor.stub
                0x00109100        0xc linker stubs

.text.SystemInterruptHandler
                0x00109110      0x118
 .text.SystemInterruptHandler
                0x00109110       0xd4 portISR.o
                0x00109110                SystemInterruptHandler
 *fill*         0x001091e4        0x4 00
 .text.SystemInterruptHandler.stub
                0x001091e8       0x30 linker stubs

.text.vPreemptiveTick
                0x00109228       0xa8
 .text.vPreemptiveTick
                0x00109228       0xa8 portISR.o
                0x00109228                vPreemptiveTick

.text.vPortDisableInterruptsFromThumb
                0x001092d0       0x18
 .text.vPortDisableInterruptsFromThumb
                0x001092d0       0x18 portISR.o
                0x001092d0                vPortDisableInterruptsFromThumb

.text.vPortEnterCritical
                0x001092e8       0x2c
 .text.vPortEnterCritical
                0x001092e8       0x2c portISR.o
                0x001092e8                vPortEnterCritical

.text.vPortExitCritical
                0x00109314       0x48
 .text.vPortExitCritical
                0x00109314       0x48 portISR.o
                0x00109314                vPortExitCritical

.text.TC0_irq_handler
                0x0010935c      0x188
 .text.TC0_irq_handler
                0x0010935c      0x188 interrupts.o
                0x0010935c                TC0_irq_handler

.text.TC1_irq_handler
                0x001094e4      0x148
 .text.TC1_irq_handler
                0x001094e4      0x148 interrupts.o
                0x001094e4                TC1_irq_handler

.text.TC4_irq_handler
                0x0010962c       0x98
 .text.TC4_irq_handler
                0x0010962c       0x98 interrupts.o
                0x0010962c                TC4_irq_handler

.text.TC5_irq_handler
                0x001096c4       0x98
 .text.TC5_irq_handler
                0x001096c4       0x98 interrupts.o
                0x001096c4                TC5_irq_handler

.text.TC6_irq_handler
                0x0010975c      0x208
 .text.TC6_irq_handler
                0x0010975c      0x208 interrupts.o
                0x0010975c                TC6_irq_handler

.text.PIOB_irq_function
                0x00109968       0x70
 .text.PIOB_irq_function
                0x00109968       0x50 interrupts.o
                0x00109968                PIOB_irq_function
 .text.PIOB_irq_function.stub
                0x001099b8       0x18 linker stubs

.text.PIOB_irq_handler
                0x001099d8       0xa8
 .text.PIOB_irq_handler
                0x001099d8       0xa8 interrupts.o
                0x001099d8                PIOB_irq_handler

.text.ADC0_irq_function
                0x00109a80      0x1c8
 .text.ADC0_irq_function
                0x00109a80      0x1a4 interrupts.o
                0x00109a80                ADC0_irq_function
 *fill*         0x00109c24        0x4 00
 .text.ADC0_irq_function.stub
                0x00109c28       0x18 linker stubs

.text.ADC0_irq_handler
                0x00109c48       0xa8
 .text.ADC0_irq_handler
                0x00109c48       0xa8 interrupts.o
                0x00109c48                ADC0_irq_handler

.text.debug_message_wait
                0x00109cf0       0x14
 .text.debug_message_wait
                0x00109cf0       0x14 interrupts.o
                0x00109cf0                debug_message_wait

.text.debug_message
                0x00109d04       0x2c
 .text.debug_message
                0x00109d04       0x2c interrupts.o
                0x00109d04                debug_message

.text.IntToString
                0x00109d30       0xa4
 .text.IntToString
                0x00109d30       0xa4 interrupts.o
                0x00109d30                IntToString

.text.DebugAbortMessage
                0x00109dd4       0xa4
 .text.DebugAbortMessage
                0x00109dd4       0xa4 interrupts.o
                0x00109dd4                DebugAbortMessage

.text.AT91F_Undefined_Instruction_handler
                0x00109e78       0x10
 .text.AT91F_Undefined_Instruction_handler
                0x00109e78       0x10 interrupts.o
                0x00109e78                AT91F_Undefined_Instruction_handler

.text.AT91F_Prefetch_Abort_handler
                0x00109e88       0x10
 .text.AT91F_Prefetch_Abort_handler
                0x00109e88       0x10 interrupts.o
                0x00109e88                AT91F_Prefetch_Abort_handler

.text.AT91F_Data_Abort_handler
                0x00109e98       0x10
 .text.AT91F_Data_Abort_handler
                0x00109e98       0x10 interrupts.o
                0x00109e98                AT91F_Data_Abort_handler

.text.AT91F_Reserved_handler
                0x00109ea8       0x10
 .text.AT91F_Reserved_handler
                0x00109ea8       0x10 interrupts.o
                0x00109ea8                AT91F_Reserved_handler

.text.AT91F_Default_FIQ_handler
                0x00109eb8       0x10
 .text.AT91F_Default_FIQ_handler
                0x00109eb8       0x10 interrupts.o
                0x00109eb8                AT91F_Default_FIQ_handler

.text.AT91F_Default_IRQ_handler
                0x00109ec8       0x10
 .text.AT91F_Default_IRQ_handler
                0x00109ec8       0x10 interrupts.o
                0x00109ec8                AT91F_Default_IRQ_handler

.text.AT91F_Spurious_handler
                0x00109ed8       0x18
 .text.AT91F_Spurious_handler
                0x00109ed8       0x18 interrupts.o
                0x00109ed8                AT91F_Spurious_handler

.text.main      0x00109ef0      0x268
 .text.main     0x00109ef0      0x268 main.o
                0x00109ef0                main

.text.pvPortMalloc
                0x0010a158       0xc4
 .text.pvPortMalloc
                0x0010a158       0xc4 heap_2.o
                0x0010a158                pvPortMalloc

.text.vPortFree
                0x0010a21c       0x44
 .text.vPortFree
                0x0010a21c       0x44 heap_2.o
                0x0010a21c                vPortFree

.text.ClockDisplay
                0x0010a260       0x88
 .text.ClockDisplay
                0x0010a260       0x88 functions.o
                0x0010a260                ClockDisplay

.text.CheckSumIt
                0x0010a2e8       0x1c
 .text.CheckSumIt
                0x0010a2e8       0x1c functions.o
                0x0010a2e8                CheckSumIt

.text.SetDefaultFactors
                0x0010a304      0x2b8
 .text.SetDefaultFactors
                0x0010a304      0x2b8 functions.o
                0x0010a304                SetDefaultFactors

.text.SetDefaultTotals
                0x0010a5bc       0x6c
 .text.SetDefaultTotals
                0x0010a5bc       0x6c functions.o
                0x0010a5bc                SetDefaultTotals

.text.SetStartupDefaults
                0x0010a628       0x70
 .text.SetStartupDefaults
                0x0010a628       0x70 functions.o
                0x0010a628                SetStartupDefaults

.text.btobcd    0x0010a698       0x30
 .text.btobcd   0x0010a698       0x20 functions.o
                0x0010a698                btobcd
 .text.btobcd.stub
                0x0010a6b8       0x10 linker stubs

.text.bcdtob    0x0010a6c8       0x14
 .text.bcdtob   0x0010a6c8       0x14 functions.o
                0x0010a6c8                bcdtob

.text.SetOutputPWM
                0x0010a6e0      0x1c8
 .text.SetOutputPWM
                0x0010a6e0      0x1b4 functions.o
                0x0010a6e0                SetOutputPWM
 *fill*         0x0010a894        0x4 00
 .text.SetOutputPWM.stub
                0x0010a898       0x10 linker stubs

.text.ResetLubeCount
                0x0010a8a8       0x30
 .text.ResetLubeCount
                0x0010a8a8       0x30 functions.o
                0x0010a8a8                ResetLubeCount

.text.Inputs    0x0010a8d8      0x5d8
 .text.Inputs   0x0010a8d8      0x570 functions.o
                0x0010a8d8                Inputs
 .text.Inputs.stub
                0x0010ae48       0x68 linker stubs

.text.CheckAlarms
                0x0010aeb0      0x340
 .text.CheckAlarms
                0x0010aeb0      0x318 functions.o
                0x0010aeb0                CheckAlarms
 .text.CheckAlarms.stub
                0x0010b1c8       0x28 linker stubs

.text.ResetSequenceFactors
                0x0010b1f0      0x148
 .text.ResetSequenceFactors
                0x0010b1f0      0x148 functions.o
                0x0010b1f0                ResetSequenceFactors

.text.AllSeqOpOff
                0x0010b338       0x20
 .text.AllSeqOpOff
                0x0010b338       0x20 functions.o
                0x0010b338                AllSeqOpOff

.text.UpdatingAndSavingTotalsToMemory
                0x0010b358       0xb0
 .text.UpdatingAndSavingTotalsToMemory
                0x0010b358       0xa0 functions.o
                0x0010b358                UpdatingAndSavingTotalsToMemory
 .text.UpdatingAndSavingTotalsToMemory.stub
                0x0010b3f8       0x10 linker stubs

.text.CalculateNetPulseFrequency
                0x0010b408       0x68
 .text.CalculateNetPulseFrequency
                0x0010b408       0x4c functions.o
                0x0010b408                CalculateNetPulseFrequency
 *fill*         0x0010b454        0x4 00
 .text.CalculateNetPulseFrequency.stub
                0x0010b458       0x18 linker stubs

.text.CalculateNetPulsesPerLayer
                0x0010b470       0x88
 .text.CalculateNetPulsesPerLayer
                0x0010b470       0x64 functions.o
                0x0010b470                CalculateNetPulsesPerLayer
 *fill*         0x0010b4d4        0x4 00
 .text.CalculateNetPulsesPerLayer.stub
                0x0010b4d8       0x20 linker stubs

.text.CalculateTargetNetPulses
                0x0010b4f8       0x58
 .text.CalculateTargetNetPulses
                0x0010b4f8       0x44 functions.o
                0x0010b4f8                CalculateTargetNetPulses
 *fill*         0x0010b53c        0x4 00
 .text.CalculateTargetNetPulses.stub
                0x0010b540       0x10 linker stubs

.text.Sequence  0x0010b550     0x1178
 .text.Sequence
                0x0010b550     0x1140 functions.o
                0x0010b550                Sequence
 .text.Sequence.stub
                0x0010c690       0x38 linker stubs

.text.CalculateAnalogInputRollingAverages
                0x0010c6c8      0x378
 .text.CalculateAnalogInputRollingAverages
                0x0010c6c8      0x330 functions.o
                0x0010c6c8                CalculateAnalogInputRollingAverages
 .text.CalculateAnalogInputRollingAverages.stub
                0x0010c9f8       0x48 linker stubs

.text.greatest  0x0010ca40       0x1c
 .text.greatest
                0x0010ca40       0x1c display.o
                0x0010ca40                greatest

.text.draw_line
                0x0010ca5c      0x278
 .text.draw_line
                0x0010ca5c      0x278 display.o
                0x0010ca5c                draw_line

.text.draw_box  0x0010ccd4      0x544
 .text.draw_box
                0x0010ccd4      0x544 display.o
                0x0010ccd4                draw_box

.text.clip_box  0x0010d218       0x6c
 .text.clip_box
                0x0010d218       0x6c display.o
                0x0010d218                clip_box

.text.write_bitmap
                0x0010d284      0x1fc
 .text.write_bitmap
                0x0010d284      0x1fc display.o
                0x0010d284                write_bitmap

.text.display_f1_text
                0x0010d480      0x638
 .text.display_f1_text
                0x0010d480      0x638 display.o
                0x0010d480                display_f1_text

.text.display_number
                0x0010dab8      0x7c0
 .text.display_number
                0x0010dab8      0x76c display.o
                0x0010dab8                display_number
 *fill*         0x0010e224        0x4 00
 .text.display_number.stub
                0x0010e228       0x50 linker stubs

.text.draw_frame
                0x0010e278       0x64
 .text.draw_frame
                0x0010e278       0x64 display.o
                0x0010e278                draw_frame

.text.SendToDisplay
                0x0010e2dc       0x30
 .text.SendToDisplay
                0x0010e2dc       0x30 display.o
                0x0010e2dc                SendToDisplay

.text.WriteDisplay
                0x0010e30c       0xf4
 .text.WriteDisplay
                0x0010e30c       0xf4 display.o
                0x0010e30c                WriteDisplay

.text.SPI0Setup
                0x0010e400       0x48
 .text.SPI0Setup
                0x0010e400       0x48 display.o
                0x0010e400                SPI0Setup

.text.InitilizeDisplay
                0x0010e448       0xd0
 .text.InitilizeDisplay
                0x0010e448       0xd0 display.o
                0x0010e448                InitilizeDisplay

.text.vDisplayTask
                0x0010e518      0x540
 .text.vDisplayTask
                0x0010e518      0x510 display.o
 .text.vDisplayTask.stub
                0x0010ea28       0x30 linker stubs

.text.vStartDisplayTask
                0x0010ea58       0x28
 .text.vStartDisplayTask
                0x0010ea58       0x28 display.o
                0x0010ea58                vStartDisplayTask

.text.screen125
                0x0010ea80       0xf0
 .text.screen125
                0x0010ea80       0xf0 screens.o
                0x0010ea80                screen125

.text.screen113
                0x0010eb70      0x2b0
 .text.screen113
                0x0010eb70      0x2b0 screens.o
                0x0010eb70                screen113

.text.screen100
                0x0010ee20      0x348
 .text.screen100
                0x0010ee20      0x348 screens.o
                0x0010ee20                screen100

.text.screen151
                0x0010f168      0x4b8
 .text.screen151
                0x0010f168      0x490 screens.o
                0x0010f168                screen151
 .text.screen151.stub
                0x0010f5f8       0x28 linker stubs

.text.screen148
                0x0010f620      0x5b8
 .text.screen148
                0x0010f620      0x5b0 screens.o
                0x0010f620                screen148
 .text.screen148.stub
                0x0010fbd0        0x8 linker stubs

.text.screen146
                0x0010fbd8      0x4c8
 .text.screen146
                0x0010fbd8      0x4a8 screens.o
                0x0010fbd8                screen146
 .text.screen146.stub
                0x00110080       0x20 linker stubs

.text.screen145
                0x001100a0      0xbc8
 .text.screen145
                0x001100a0      0xba4 screens.o
                0x001100a0                screen145
 *fill*         0x00110c44        0x4 00
 .text.screen145.stub
                0x00110c48       0x20 linker stubs

.text.screen144
                0x00110c68      0x8d8
 .text.screen144
                0x00110c68      0x8ac screens.o
                0x00110c68                screen144
 *fill*         0x00111514        0x4 00
 .text.screen144.stub
                0x00111518       0x28 linker stubs

.text.screen143
                0x00111540      0xbd8
 .text.screen143
                0x00111540      0xbb0 screens.o
                0x00111540                screen143
 .text.screen143.stub
                0x001120f0       0x28 linker stubs

.text.screen142
                0x00112118      0xca8
 .text.screen142
                0x00112118      0xc7c screens.o
                0x00112118                screen142
 *fill*         0x00112d94        0x4 00
 .text.screen142.stub
                0x00112d98       0x28 linker stubs

.text.screen124
                0x00112dc0      0x120
 .text.screen124
                0x00112dc0      0x120 screens.o
                0x00112dc0                screen124

.text.screen152
                0x00112ee0      0x388
 .text.screen152
                0x00112ee0      0x370 screens.o
                0x00112ee0                screen152
 .text.screen152.stub
                0x00113250       0x18 linker stubs

.text.screen121
                0x00113268      0x10c
 .text.screen121
                0x00113268      0x10c screens.o
                0x00113268                screen121

.text.screen120
                0x00113374      0x100
 .text.screen120
                0x00113374      0x100 screens.o
                0x00113374                screen120

.text.screen112
                0x00113478      0x660
 .text.screen112
                0x00113478      0x64c screens.o
                0x00113478                screen112
 *fill*         0x00113ac4        0x4 00
 .text.screen112.stub
                0x00113ac8       0x10 linker stubs

.text.screen150
                0x00113ad8      0x248
 .text.screen150
                0x00113ad8      0x248 screens.o
                0x00113ad8                screen150

.text.screen147
                0x00113d20      0x190
 .text.screen147
                0x00113d20      0x190 screens.o
                0x00113d20                screen147

.text.screen140
                0x00113eb0      0x258
 .text.screen140
                0x00113eb0      0x248 screens.o
                0x00113eb0                screen140
 .text.screen140.stub
                0x001140f8       0x10 linker stubs

.text.screen111
                0x00114108      0xb00
 .text.screen111
                0x00114108      0xac8 screens.o
                0x00114108                screen111
 .text.screen111.stub
                0x00114bd0       0x38 linker stubs

.text.screen110
                0x00114c08      0x930
 .text.screen110
                0x00114c08      0x908 screens.o
                0x00114c08                screen110
 .text.screen110.stub
                0x00115510       0x28 linker stubs

.text.screen132
                0x00115538      0x6f8
 .text.screen132
                0x00115538      0x6f0 screens.o
                0x00115538                screen132
 .text.screen132.stub
                0x00115c28        0x8 linker stubs

.text.screen131
                0x00115c30      0x4c8
 .text.screen131
                0x00115c30      0x4c0 screens.o
                0x00115c30                screen131
 .text.screen131.stub
                0x001160f0        0x8 linker stubs

.text.mainscreen
                0x001160f8     0x1b80
 .text.mainscreen
                0x001160f8     0x1af0 screens.o
                0x001160f8                mainscreen
 .text.mainscreen.stub
                0x00117be8       0x90 linker stubs

.text.screen00  0x00117c78       0xa0
 .text.screen00
                0x00117c78       0xa0 screens.o
                0x00117c78                screen00

.text.screen141
                0x00117d18      0x3a4
 .text.screen141
                0x00117d18      0x3a4 screens.o
                0x00117d18                screen141

.text.screen99  0x001180bc      0x188
 .text.screen99
                0x001180bc      0x188 screens.o
                0x001180bc                screen99

.text.prvIdleTask
                0x00118244       0x14
 .text.prvIdleTask
                0x00118244       0x14 tasks.o

.text.prvListTaskWithinSingleList
                0x00118258       0xa4
 .text.prvListTaskWithinSingleList
                0x00118258       0xa4 tasks.o

.text.xTaskGenericCreate
                0x00118300      0x1c0
 .text.xTaskGenericCreate
                0x00118300      0x1b0 tasks.o
                0x00118300                xTaskGenericCreate
 .text.xTaskGenericCreate.stub
                0x001184b0       0x10 linker stubs

.text.vTaskPrioritySet
                0x001184c0       0xa8
 .text.vTaskPrioritySet
                0x001184c0       0x94 tasks.o
                0x001184c0                vTaskPrioritySet
 *fill*         0x00118554        0x4 00
 .text.vTaskPrioritySet.stub
                0x00118558       0x10 linker stubs

.text.xTaskIsTaskSuspended
                0x00118568       0x2c
 .text.xTaskIsTaskSuspended
                0x00118568       0x2c tasks.o
                0x00118568                xTaskIsTaskSuspended

.text.vTaskResume
                0x00118598       0x78
 .text.vTaskResume
                0x00118598       0x68 tasks.o
                0x00118598                vTaskResume
 .text.vTaskResume.stub
                0x00118600       0x10 linker stubs

.text.xTaskResumeFromISR
                0x00118610       0x74
 .text.xTaskResumeFromISR
                0x00118610       0x74 tasks.o
                0x00118610                xTaskResumeFromISR

.text.vTaskStartScheduler
                0x00118688       0x50
 .text.vTaskStartScheduler
                0x00118688       0x48 tasks.o
                0x00118688                vTaskStartScheduler
 .text.vTaskStartScheduler.stub
                0x001186d0        0x8 linker stubs

.text.vTaskSuspendAll
                0x001186d8       0x10
 .text.vTaskSuspendAll
                0x001186d8       0x10 tasks.o
                0x001186d8                vTaskSuspendAll

.text.xTaskGetTickCount
                0x001186e8       0x30
 .text.xTaskGetTickCount
                0x001186e8       0x1c tasks.o
                0x001186e8                xTaskGetTickCount
 *fill*         0x00118704        0x4 00
 .text.xTaskGetTickCount.stub
                0x00118708       0x10 linker stubs

.text.vTaskIncrementTick
                0x00118718       0xc0
 .text.vTaskIncrementTick
                0x00118718       0xc0 tasks.o
                0x00118718                vTaskIncrementTick

.text.xTaskResumeAll
                0x001187d8      0x100
 .text.xTaskResumeAll
                0x001187d8       0xec tasks.o
                0x001187d8                xTaskResumeAll
 *fill*         0x001188c4        0x4 00
 .text.xTaskResumeAll.stub
                0x001188c8       0x10 linker stubs

.text.vTaskList
                0x001188d8       0xa8
 .text.vTaskList
                0x001188d8       0xa8 tasks.o
                0x001188d8                vTaskList

.text.vTaskDelay
                0x00118980       0x64
 .text.vTaskDelay
                0x00118980       0x64 tasks.o
                0x00118980                vTaskDelay

.text.vTaskDelayUntil
                0x001189e4       0x94
 .text.vTaskDelayUntil
                0x001189e4       0x94 tasks.o
                0x001189e4                vTaskDelayUntil

.text.vTaskSwitchContext
                0x00118a78       0xe4
 .text.vTaskSwitchContext
                0x00118a78       0xe4 tasks.o
                0x00118a78                vTaskSwitchContext

.text.vTaskSuspend
                0x00118b60       0x90
 .text.vTaskSuspend
                0x00118b60       0x7c tasks.o
                0x00118b60                vTaskSuspend
 *fill*         0x00118bdc        0x4 00
 .text.vTaskSuspend.stub
                0x00118be0       0x10 linker stubs

.text.vTaskPlaceOnEventList
                0x00118bf0       0x74
 .text.vTaskPlaceOnEventList
                0x00118bf0       0x74 tasks.o
                0x00118bf0                vTaskPlaceOnEventList

.text.xTaskRemoveFromEventList
                0x00118c64       0x78
 .text.xTaskRemoveFromEventList
                0x00118c64       0x78 tasks.o
                0x00118c64                xTaskRemoveFromEventList

.text.vTaskSetTimeOutState
                0x00118cdc       0x18
 .text.vTaskSetTimeOutState
                0x00118cdc       0x18 tasks.o
                0x00118cdc                vTaskSetTimeOutState

.text.xTaskCheckForTimeOut
                0x00118cf8       0x70
 .text.xTaskCheckForTimeOut
                0x00118cf8       0x60 tasks.o
                0x00118cf8                xTaskCheckForTimeOut
 .text.xTaskCheckForTimeOut.stub
                0x00118d58       0x10 linker stubs

.text.vTaskMissedYield
                0x00118d68        0xc
 .text.vTaskMissedYield
                0x00118d68        0xc tasks.o
                0x00118d68                vTaskMissedYield

.text.prvCopyDataFromQueue
                0x00118d74       0x28
 .text.prvCopyDataFromQueue
                0x00118d74       0x28 queue.o

.text.prvCopyDataToQueue
                0x00118d9c       0x54
 .text.prvCopyDataToQueue
                0x00118d9c       0x54 queue.o

.text.prvUnlockQueue
                0x00118df0       0x98
 .text.prvUnlockQueue
                0x00118df0       0x88 queue.o
 .text.prvUnlockQueue.stub
                0x00118e78       0x10 linker stubs

.text.xQueueCreate
                0x00118e88       0x6c
 .text.xQueueCreate
                0x00118e88       0x6c queue.o
                0x00118e88                xQueueCreate

.text.xQueueGenericSend
                0x00118ef8      0x100
 .text.xQueueGenericSend
                0x00118ef8       0xf0 queue.o
                0x00118ef8                xQueueGenericSend
 .text.xQueueGenericSend.stub
                0x00118fe8       0x10 linker stubs

.text.xQueueGenericSendFromISR
                0x00118ff8       0x48
 .text.xQueueGenericSendFromISR
                0x00118ff8       0x48 queue.o
                0x00118ff8                xQueueGenericSendFromISR

.text.xQueueGenericReceive
                0x00119040      0x118
 .text.xQueueGenericReceive
                0x00119040      0x108 queue.o
                0x00119040                xQueueGenericReceive
 .text.xQueueGenericReceive.stub
                0x00119148       0x10 linker stubs

.text.xQueueReceiveFromISR
                0x00119158       0x4c
 .text.xQueueReceiveFromISR
                0x00119158       0x4c queue.o
                0x00119158                xQueueReceiveFromISR

.text.uxQueueMessagesWaiting
                0x001191a8       0x28
 .text.uxQueueMessagesWaiting
                0x001191a8       0x18 queue.o
                0x001191a8                uxQueueMessagesWaiting
 .text.uxQueueMessagesWaiting.stub
                0x001191c0       0x10 linker stubs

.text.vListInitialise
                0x001191d0       0x18
 .text.vListInitialise
                0x001191d0       0x18 list.o
                0x001191d0                vListInitialise

.text.vListInitialiseItem
                0x001191e8        0x8
 .text.vListInitialiseItem
                0x001191e8        0x8 list.o
                0x001191e8                vListInitialiseItem

.text.vListInsertEnd
                0x001191f0       0x1c
 .text.vListInsertEnd
                0x001191f0       0x1c list.o
                0x001191f0                vListInsertEnd

.text.vListInsert
                0x0011920c       0x3c
 .text.vListInsert
                0x0011920c       0x3c list.o
                0x0011920c                vListInsert

.text.vListRemove
                0x00119248       0x28
 .text.vListRemove
                0x00119248       0x28 list.o
                0x00119248                vListRemove

.text.pxPortInitialiseStack
                0x00119270       0xa0
 .text.pxPortInitialiseStack
                0x00119270       0xa0 port.o
                0x00119270                pxPortInitialiseStack

.text.xPortStartScheduler
                0x00119310       0x50
 .text.xPortStartScheduler
                0x00119310       0x48 port.o
                0x00119310                xPortStartScheduler
 .text.xPortStartScheduler.stub
                0x00119358        0x8 linker stubs

.text.vSerialISRCreateQueues
                0x00119360       0x34
 .text.vSerialISRCreateQueues
                0x00119360       0x34 serial.o
                0x00119360                vSerialISRCreateQueues

.text.xSerialPortInit
                0x00119398       0xc8
 .text.xSerialPortInit
                0x00119398       0xb0 serial.o
                0x00119398                xSerialPortInit
 .text.xSerialPortInit.stub
                0x00119448       0x18 linker stubs

.text.xSerialGetChar
                0x00119460       0x1c
 .text.xSerialGetChar
                0x00119460       0x1c serial.o
                0x00119460                xSerialGetChar

.text.xSerialPutChar
                0x0011947c       0x34
 .text.xSerialPutChar
                0x0011947c       0x34 serial.o
                0x0011947c                xSerialPutChar

.text.vSerialPutString
                0x001194b0       0x28
 .text.vSerialPutString
                0x001194b0       0x28 serial.o
                0x001194b0                vSerialPutString

.text.vComRxTask
                0x001194d8       0x18
 .text.vComRxTask
                0x001194d8       0x18 comtest.o

.text.vComTxTask
                0x001194f0       0xc0
 .text.vComTxTask
                0x001194f0       0xa4 comtest.o
 *fill*         0x00119594        0x4 00
 .text.vComTxTask.stub
                0x00119598       0x18 linker stubs

.text.vStartComTasks
                0x001195b0       0x54
 .text.vStartComTasks
                0x001195b0       0x54 comtest.o
                0x001195b0                vStartComTasks

.text.vTWI_task
                0x00119604       0xec
 .text.vTWI_task
                0x00119604       0xec TWI_task.o

.text.vStartTWITask
                0x001196f0       0x2c
 .text.vStartTWITask
                0x001196f0       0x2c TWI_task.o
                0x001196f0                vStartTWITask

.text.vOperateTask
                0x00119720      0x140
 .text.vOperateTask
                0x00119720      0x120 Operate.o
 .text.vOperateTask.stub
                0x00119840       0x20 linker stubs

.text.vStartOperateTask
                0x00119860       0x28
 .text.vStartOperateTask
                0x00119860       0x28 Operate.o
                0x00119860                vStartOperateTask

.text.SPI1Setup
                0x00119888       0x50
 .text.SPI1Setup
                0x00119888       0x50 Power.o
                0x00119888                SPI1Setup

.text.SPI1TransferData
                0x001198d8       0x34
 .text.SPI1TransferData
                0x001198d8       0x34 Power.o
                0x001198d8                SPI1TransferData

.text.SPI1FlashRead
                0x0011990c       0x6c
 .text.SPI1FlashRead
                0x0011990c       0x6c Power.o
                0x0011990c                SPI1FlashRead

.text.SPI1FlashWrite
                0x00119978       0xfc
 .text.SPI1FlashWrite
                0x00119978       0xfc Power.o
                0x00119978                SPI1FlashWrite

.text.vPowerTask
                0x00119a74      0x2c8
 .text.vPowerTask
                0x00119a74      0x2c8 Power.o

.text.vStartPowerTask
                0x00119d3c       0x2c
 .text.vStartPowerTask
                0x00119d3c       0x2c Power.o
                0x00119d3c                vStartPowerTask

.rodata.DebugMessage
                0x00119d68       0x18
 .rodata.DebugMessage
                0x00119d68       0x18 interrupts.o
                0x00119d68                DebugMessage

.rodata.str1.4  0x00119d80      0x6d0
 .rodata.str1.4
                0x00119d80       0x80 interrupts.o
                                 0x84 (size before relaxing)
 .rodata.str1.4
                0x00119e00       0x5c functions.o
 .rodata.str1.4
                0x00119e5c       0x18 display.o
 .rodata.str1.4
                0x00119e74      0x4ea screens.o
                                0x500 (size before relaxing)
 *fill*         0x0011a35e        0x2 00
 .rodata.str1.4
                0x0011a360       0x19 tasks.o
                                 0x20 (size before relaxing)
 *fill*         0x0011a379        0x3 00
 .rodata.str1.4
                0x0011a37c       0x32 comtest.o
                                 0x34 (size before relaxing)
 *fill*         0x0011a3ae        0x2 00
 .rodata.str1.4
                0x0011a3b0        0x4 TWI_task.o
 .rodata.str1.4
                0x0011a3b4        0x8 Operate.o
 .rodata.str1.4
                0x0011a3bc        0x6 Power.o
                                  0x8 (size before relaxing)
 *fill*         0x0011a3c2        0x2 00
 .rodata.str1.4
                0x0011a3c4        0xf c:/gnuarm-471_eabi/bin/../lib/gcc/arm-none-eabi/4.7.1/../../../../arm-none-eabi/lib/thumb\libg.a(lib_a-strtod.o)
                                 0x10 (size before relaxing)
 *fill*         0x0011a3d3        0x1 00
 .rodata.str1.4
                0x0011a3d4       0x3f c:/gnuarm-471_eabi/bin/../lib/gcc/arm-none-eabi/4.7.1/../../../../arm-none-eabi/lib/thumb\libg.a(lib_a-svfprintf.o)
                                 0x44 (size before relaxing)
 *fill*         0x0011a413        0x1 00
 .rodata.str1.4
                0x0011a414       0x10 c:/gnuarm-471_eabi/bin/../lib/gcc/arm-none-eabi/4.7.1/../../../../arm-none-eabi/lib/thumb\libg.a(lib_a-dtoa.o)
                                 0x14 (size before relaxing)
 .rodata.str1.4
                0x0011a424       0x1b c:/gnuarm-471_eabi/bin/../lib/gcc/arm-none-eabi/4.7.1/../../../../arm-none-eabi/lib/thumb\libg.a(lib_a-gdtoa-gethex.o)
                                 0x1c (size before relaxing)
 *fill*         0x0011a43f        0x1 00
 .rodata.str1.4
                0x0011a440        0x2 c:/gnuarm-471_eabi/bin/../lib/gcc/arm-none-eabi/4.7.1/../../../../arm-none-eabi/lib/thumb\libg.a(lib_a-impure.o)
                                  0x4 (size before relaxing)
 *fill*         0x0011a442        0x2 00
 .rodata.str1.4
                0x0011a444        0xc c:/gnuarm-471_eabi/bin/../lib/gcc/arm-none-eabi/4.7.1/../../../../arm-none-eabi/lib/thumb\libg.a(lib_a-locale.o)
                                 0x14 (size before relaxing)
 .rodata.str1.4
                0x00000000       0x30 c:/gnuarm-471_eabi/bin/../lib/gcc/arm-none-eabi/4.7.1/../../../../arm-none-eabi/lib/thumb\libg.a(lib_a-svfiprintf.o)

.rodata.Inputs  0x0011a450       0xa0
 .rodata.Inputs
                0x0011a450       0xa0 functions.o

.rodata.Sequence
                0x0011a4f0       0x3c
 .rodata.Sequence
                0x0011a4f0       0x3c functions.o

.rodata.PF_GW302_NoNetPulse
                0x0011a52c       0x10
 .rodata.PF_GW302_NoNetPulse
                0x0011a52c       0x10 functions.o
                0x0011a52c                PF_GW302_NoNetPulse

.rodata.PF_GW302_KnifePressure
                0x0011a53c       0x10
 .rodata.PF_GW302_KnifePressure
                0x0011a53c       0x10 functions.o
                0x0011a53c                PF_GW302_KnifePressure

.rodata.PresetBaleDensity
                0x0011a54c        0x8
 .rodata.PresetBaleDensity
                0x0011a54c        0x8 functions.o
                0x0011a54c                PresetBaleDensity

.rodata.PF_GW302_PreNetPulse
                0x0011a554        0x4
 .rodata.PF_GW302_PreNetPulse
                0x0011a554        0x4 functions.o
                0x0011a554                PF_GW302_PreNetPulse

.rodata.PF_GW302_NetCutTime
                0x0011a558       0x10
 .rodata.PF_GW302_NetCutTime
                0x0011a558       0x10 functions.o
                0x0011a558                PF_GW302_NetCutTime

.rodata.PF_GW302_DiameterMax
                0x0011a568        0x4
 .rodata.PF_GW302_DiameterMax
                0x0011a568        0x4 functions.o
                0x0011a568                PF_GW302_DiameterMax

.rodata.PF_GW302_NetLayers
                0x0011a56c       0x10
 .rodata.PF_GW302_NetLayers
                0x0011a56c       0x10 functions.o
                0x0011a56c                PF_GW302_NetLayers

.rodata.PF_GW302_DiameterMin
                0x0011a57c        0x4
 .rodata.PF_GW302_DiameterMin
                0x0011a57c        0x4 functions.o
                0x0011a57c                PF_GW302_DiameterMin

.rodata.PF_GW302_RollerDelay
                0x0011a580       0x10
 .rodata.PF_GW302_RollerDelay
                0x0011a580       0x10 functions.o
                0x0011a580                PF_GW302_RollerDelay

.rodata.PresetCoreDiameter
                0x0011a590        0x8
 .rodata.PresetCoreDiameter
                0x0011a590        0x8 functions.o
                0x0011a590                PresetCoreDiameter

.rodata.PF_GW302_NetTwineOption
                0x0011a598        0x4
 .rodata.PF_GW302_NetTwineOption
                0x0011a598        0x4 functions.o
                0x0011a598                PF_GW302_NetTwineOption

.rodata.NCkey   0x0011a59c       0x14
 .rodata.NCkey  0x0011a59c       0x14 functions.o
                0x0011a59c                NCkey

.rodata.ip_status
                0x0011a5b0        0x8
 .rodata.ip_status
                0x0011a5b0        0x8 functions.o
                0x0011a5b0                ip_status

.rodata.PF_GW302_FormationDensity
                0x0011a5b8        0x4
 .rodata.PF_GW302_FormationDensity
                0x0011a5b8        0x4 functions.o
                0x0011a5b8                PF_GW302_FormationDensity

.rodata.PF_GW302_PreWarningBeep
                0x0011a5bc        0x4
 .rodata.PF_GW302_PreWarningBeep
                0x0011a5bc        0x4 functions.o
                0x0011a5bc                PF_GW302_PreWarningBeep

.rodata.PresetCoreDensity
                0x0011a5c0        0x8
 .rodata.PresetCoreDensity
                0x0011a5c0        0x8 functions.o
                0x0011a5c0                PresetCoreDensity

.rodata.PF_GW302_PresDeadband
                0x0011a5c8       0x10
 .rodata.PF_GW302_PresDeadband
                0x0011a5c8       0x10 functions.o
                0x0011a5c8                PF_GW302_PresDeadband

.rodata.PF_GW302_Formation2Density
                0x0011a5d8        0x4
 .rodata.PF_GW302_Formation2Density
                0x0011a5d8        0x4 functions.o
                0x0011a5d8                PF_GW302_Formation2Density

.rodata.PF_GW302_MinDiaPulsPerLay
                0x0011a5dc       0x10
 .rodata.PF_GW302_MinDiaPulsPerLay
                0x0011a5dc       0x10 functions.o
                0x0011a5dc                PF_GW302_MinDiaPulsPerLay

.rodata.PF_GW302_BaleSizeFactor
                0x0011a5ec        0x4
 .rodata.PF_GW302_BaleSizeFactor
                0x0011a5ec        0x4 functions.o
                0x0011a5ec                PF_GW302_BaleSizeFactor

.rodata.PF_GW302_Density10
                0x0011a5f0       0x10
 .rodata.PF_GW302_Density10
                0x0011a5f0       0x10 functions.o
                0x0011a5f0                PF_GW302_Density10

.rodata.PF_GW302_Density1
                0x0011a600       0x10
 .rodata.PF_GW302_Density1
                0x0011a600       0x10 functions.o
                0x0011a600                PF_GW302_Density1

.rodata.PF_GW302_Density2
                0x0011a610       0x10
 .rodata.PF_GW302_Density2
                0x0011a610       0x10 functions.o
                0x0011a610                PF_GW302_Density2

.rodata.PF_GW302_Density3
                0x0011a620       0x10
 .rodata.PF_GW302_Density3
                0x0011a620       0x10 functions.o
                0x0011a620                PF_GW302_Density3

.rodata.PF_GW302_Density5
                0x0011a630       0x10
 .rodata.PF_GW302_Density5
                0x0011a630       0x10 functions.o
                0x0011a630                PF_GW302_Density5

.rodata.PF_GW302_BaleShapeSmoothingFactor
                0x0011a640        0x4
 .rodata.PF_GW302_BaleShapeSmoothingFactor
                0x0011a640        0x4 functions.o
                0x0011a640                PF_GW302_BaleShapeSmoothingFactor

.rodata.PF_GW302_BaleTotal
                0x0011a644       0x10
 .rodata.PF_GW302_BaleTotal
                0x0011a644       0x10 functions.o
                0x0011a644                PF_GW302_BaleTotal

.rodata.PF_GW302_Density8
                0x0011a654       0x10
 .rodata.PF_GW302_Density8
                0x0011a654       0x10 functions.o
                0x0011a654                PF_GW302_Density8

.rodata.PF_GW302_BaleStore
                0x0011a664        0x4
 .rodata.PF_GW302_BaleStore
                0x0011a664        0x4 functions.o
                0x0011a664                PF_GW302_BaleStore

.rodata.PF_GW302_TotalNetMetres
                0x0011a668       0x10
 .rodata.PF_GW302_TotalNetMetres
                0x0011a668       0x10 functions.o
                0x0011a668                PF_GW302_TotalNetMetres

.rodata.PF_GW302_PresSwDelay
                0x0011a678       0x10
 .rodata.PF_GW302_PresSwDelay
                0x0011a678       0x10 functions.o
                0x0011a678                PF_GW302_PresSwDelay

.rodata.PF_GW302_EngageDiameter
                0x0011a688        0x4
 .rodata.PF_GW302_EngageDiameter
                0x0011a688        0x4 functions.o
                0x0011a688                PF_GW302_EngageDiameter

.rodata.PF_GW302_NetSpeed
                0x0011a68c       0x10
 .rodata.PF_GW302_NetSpeed
                0x0011a68c       0x10 functions.o
                0x0011a68c                PF_GW302_NetSpeed

.rodata.PF_GW302_NetFactor
                0x0011a69c       0x10
 .rodata.PF_GW302_NetFactor
                0x0011a69c       0x10 functions.o
                0x0011a69c                PF_GW302_NetFactor

.rodata.PresetFormationDensity
                0x0011a6ac        0x8
 .rodata.PresetFormationDensity
                0x0011a6ac        0x8 functions.o
                0x0011a6ac                PresetFormationDensity

.rodata.PF_GW302_NetCutPulse
                0x0011a6b4        0x4
 .rodata.PF_GW302_NetCutPulse
                0x0011a6b4        0x4 functions.o
                0x0011a6b4                PF_GW302_NetCutPulse

.rodata.op_status
                0x0011a6b8        0x8
 .rodata.op_status
                0x0011a6b8        0x8 functions.o
                0x0011a6b8                op_status

.rodata.PF_GW302_LubeAlarm
                0x0011a6c0        0x8
 .rodata.PF_GW302_LubeAlarm
                0x0011a6c0        0x8 functions.o
                0x0011a6c0                PF_GW302_LubeAlarm

.rodata.PF_GW302_KnifePresSmoothingFactor
                0x0011a6c8        0x4
 .rodata.PF_GW302_KnifePresSmoothingFactor
                0x0011a6c8        0x4 functions.o
                0x0011a6c8                PF_GW302_KnifePresSmoothingFactor

.rodata.PresetFormation2Density
                0x0011a6cc        0x8
 .rodata.PresetFormation2Density
                0x0011a6cc        0x8 functions.o
                0x0011a6cc                PresetFormation2Density

.rodata.PF_GW302_FillPotIgnore
                0x0011a6d4       0x10
 .rodata.PF_GW302_FillPotIgnore
                0x0011a6d4       0x10 functions.o
                0x0011a6d4                PF_GW302_FillPotIgnore

.rodata.PF_GW302_NetDelay
                0x0011a6e4       0x10
 .rodata.PF_GW302_NetDelay
                0x0011a6e4       0x10 functions.o
                0x0011a6e4                PF_GW302_NetDelay

.rodata.PF_GW302_DiaCorrection
                0x0011a6f4       0x10
 .rodata.PF_GW302_DiaCorrection
                0x0011a6f4       0x10 functions.o
                0x0011a6f4                PF_GW302_DiaCorrection

.rodata.LCkey   0x0011a704       0x3c
 .rodata.LCkey  0x0011a704       0x3c functions.o
                0x0011a704                LCkey

.rodata.PF_GW302_BaleDiameter
                0x0011a740        0x4
 .rodata.PF_GW302_BaleDiameter
                0x0011a740        0x4 functions.o
                0x0011a740                PF_GW302_BaleDiameter

.rodata.PF_GW302_DiameterCorrection
                0x0011a744        0x4
 .rodata.PF_GW302_DiameterCorrection
                0x0011a744        0x4 functions.o
                0x0011a744                PF_GW302_DiameterCorrection

.rodata.PresetBaleDiameter
                0x0011a748        0x8
 .rodata.PresetBaleDiameter
                0x0011a748        0x8 functions.o
                0x0011a748                PresetBaleDiameter

.rodata.Store   0x0011a750        0xc
 .rodata.Store  0x0011a750        0xc functions.o
                0x0011a750                Store

.rodata.PresetNetLayers
                0x0011a75c       0x14
 .rodata.PresetNetLayers
                0x0011a75c       0x14 functions.o
                0x0011a75c                PresetNetLayers

.rodata.PF_GW302_BaleDensity
                0x0011a770        0x4
 .rodata.PF_GW302_BaleDensity
                0x0011a770        0x4 functions.o
                0x0011a770                PF_GW302_BaleDensity

.rodata.binHex  0x0011a774       0x10
 .rodata.binHex
                0x0011a774       0x10 functions.o
                0x0011a774                binHex

.rodata.PF_GW302_BaleShapeIndicatorZero
                0x0011a784       0x10
 .rodata.PF_GW302_BaleShapeIndicatorZero
                0x0011a784       0x10 functions.o
                0x0011a784                PF_GW302_BaleShapeIndicatorZero

.rodata.UCkey   0x0011a794       0x3c
 .rodata.UCkey  0x0011a794       0x3c functions.o
                0x0011a794                UCkey

.rodata.PF_GW302_DensityPresSmoothingFactor
                0x0011a7d0        0x4
 .rodata.PF_GW302_DensityPresSmoothingFactor
                0x0011a7d0        0x4 functions.o
                0x0011a7d0                PF_GW302_DensityPresSmoothingFactor

.rodata.PF_GW302_Density4
                0x0011a7d4       0x10
 .rodata.PF_GW302_Density4
                0x0011a7d4       0x10 functions.o
                0x0011a7d4                PF_GW302_Density4

.rodata.PF_GW302_Density6
                0x0011a7e4       0x10
 .rodata.PF_GW302_Density6
                0x0011a7e4       0x10 functions.o
                0x0011a7e4                PF_GW302_Density6

.rodata.PF_GW302_Density7
                0x0011a7f4       0x10
 .rodata.PF_GW302_Density7
                0x0011a7f4       0x10 functions.o
                0x0011a7f4                PF_GW302_Density7

.rodata.PF_GW302_Density9
                0x0011a804       0x10
 .rodata.PF_GW302_Density9
                0x0011a804       0x10 functions.o
                0x0011a804                PF_GW302_Density9

.rodata.PF_GW302_KnifePresWarn
                0x0011a814       0x10
 .rodata.PF_GW302_KnifePresWarn
                0x0011a814       0x10 functions.o
                0x0011a814                PF_GW302_KnifePresWarn

.rodata.PF_GW302_FormationDiameter
                0x0011a824        0x4
 .rodata.PF_GW302_FormationDiameter
                0x0011a824        0x4 functions.o
                0x0011a824                PF_GW302_FormationDiameter

.rodata.PF_GW302_MaxDiaPulsPerLay
                0x0011a828       0x10
 .rodata.PF_GW302_MaxDiaPulsPerLay
                0x0011a828       0x10 functions.o
                0x0011a828                PF_GW302_MaxDiaPulsPerLay

.rodata.PF_GW302_BaleProfile
                0x0011a838        0x4
 .rodata.PF_GW302_BaleProfile
                0x0011a838        0x4 functions.o
                0x0011a838                PF_GW302_BaleProfile

.rodata.Bar     0x0011a83c        0xc
 .rodata.Bar    0x0011a83c        0xc functions.o
                0x0011a83c                Bar

.rodata.PF_GW302_Formation2Diameter
                0x0011a848        0x4
 .rodata.PF_GW302_Formation2Diameter
                0x0011a848        0x4 functions.o
                0x0011a848                PF_GW302_Formation2Diameter

.rodata.PF_GW302_CoreDensity
                0x0011a84c        0x4
 .rodata.PF_GW302_CoreDensity
                0x0011a84c        0x4 functions.o
                0x0011a84c                PF_GW302_CoreDensity

.rodata.PF_GW302_BaleDiaSmoothingFactor
                0x0011a850        0x4
 .rodata.PF_GW302_BaleDiaSmoothingFactor
                0x0011a850        0x4 functions.o
                0x0011a850                PF_GW302_BaleDiaSmoothingFactor

.rodata.PF_GW302_NetOn
                0x0011a854       0x10
 .rodata.PF_GW302_NetOn
                0x0011a854       0x10 functions.o
                0x0011a854                PF_GW302_NetOn

.rodata.PF_GW302_FillPotRange
                0x0011a864       0x10
 .rodata.PF_GW302_FillPotRange
                0x0011a864       0x10 functions.o
                0x0011a864                PF_GW302_FillPotRange

.rodata.PF_GW302_BeakEngage
                0x0011a874        0x4
 .rodata.PF_GW302_BeakEngage
                0x0011a874        0x4 functions.o
                0x0011a874                PF_GW302_BeakEngage

.rodata.PF_GW302_DiverterDelay
                0x0011a878       0x10
 .rodata.PF_GW302_DiverterDelay
                0x0011a878       0x10 functions.o
                0x0011a878                PF_GW302_DiverterDelay

.rodata.PF_GW302_DoorClosed
                0x0011a888       0x10
 .rodata.PF_GW302_DoorClosed
                0x0011a888       0x10 functions.o
                0x0011a888                PF_GW302_DoorClosed

.rodata.PF_GW302_CoreDiameter
                0x0011a898        0x4
 .rodata.PF_GW302_CoreDiameter
                0x0011a898        0x4 functions.o
                0x0011a898                PF_GW302_CoreDiameter

.rodata.PresetFormation2Diameter
                0x0011a89c        0x8
 .rodata.PresetFormation2Diameter
                0x0011a89c        0x8 functions.o
                0x0011a89c                PresetFormation2Diameter

.rodata.PinOption
                0x0011a8a4        0x8
 .rodata.PinOption
                0x0011a8a4        0x8 functions.o
                0x0011a8a4                PinOption

.rodata.PresetFormationDiameter
                0x0011a8ac        0x8
 .rodata.PresetFormationDiameter
                0x0011a8ac        0x8 functions.o
                0x0011a8ac                PresetFormationDiameter

.rodata.display_number
                0x0011a8b4       0x3c
 .rodata.display_number
                0x0011a8b4       0x3c display.o

.rodata.screen151
                0x0011a8f0       0x20
 .rodata.screen151
                0x0011a8f0       0x20 screens.o

.rodata.screen145
                0x0011a910       0x30
 .rodata.screen145
                0x0011a910       0x30 screens.o

.rodata.screen144
                0x0011a940       0x54
 .rodata.screen144
                0x0011a940       0x54 screens.o

.rodata.screen143
                0x0011a994       0x40
 .rodata.screen143
                0x0011a994       0x40 screens.o

.rodata.screen142
                0x0011a9d4       0x58
 .rodata.screen142
                0x0011a9d4       0x58 screens.o

.rodata.screen112
                0x0011aa2c       0x2c
 .rodata.screen112
                0x0011aa2c       0x2c screens.o

.rodata.screen110
                0x0011aa58       0xd0
 .rodata.screen110
                0x0011aa58       0xd0 screens.o

.rodata.screen132
                0x0011ab28       0x78
 .rodata.screen132
                0x0011ab28       0x78 screens.o

.rodata.mainscreen
                0x0011aba0       0x24
 .rodata.mainscreen
                0x0011aba0       0x24 screens.o

.rodata.screen141
                0x0011abc4       0x40
 .rodata.screen141
                0x0011abc4       0x40 screens.o

.rodata.ICON_BALE_INDICATOR
                0x0011ac04       0x8c
 .rodata.ICON_BALE_INDICATOR
                0x0011ac04       0x8c bm_sym.o
                0x0011ac04                ICON_BALE_INDICATOR

.rodata.ICON_BALE_PROFILE_B
                0x0011ac90       0x24
 .rodata.ICON_BALE_PROFILE_B
                0x0011ac90       0x24 bm_sym.o
                0x0011ac90                ICON_BALE_PROFILE_B

.rodata.ICON_BALE_PROFILE_C
                0x0011acb4       0x24
 .rodata.ICON_BALE_PROFILE_C
                0x0011acb4       0x24 bm_sym.o
                0x0011acb4                ICON_BALE_PROFILE_C

.rodata.ICON_BALE_PROFILE_D
                0x0011acd8       0x24
 .rodata.ICON_BALE_PROFILE_D
                0x0011acd8       0x24 bm_sym.o
                0x0011acd8                ICON_BALE_PROFILE_D

.rodata.ICON_BALE_PROFILE_E
                0x0011acfc       0x24
 .rodata.ICON_BALE_PROFILE_E
                0x0011acfc       0x24 bm_sym.o
                0x0011acfc                ICON_BALE_PROFILE_E

.rodata.ICON_NET_METRES_RESET
                0x0011ad20       0xec
 .rodata.ICON_NET_METRES_RESET
                0x0011ad20       0xec bm_sym.o
                0x0011ad20                ICON_NET_METRES_RESET

.rodata.TABNET  0x0011ae0c       0x54
 .rodata.TABNET
                0x0011ae0c       0x54 bm_sym.o
                0x0011ae0c                TABNET

.rodata.McHale_V6
                0x0011ae60      0x304
 .rodata.McHale_V6
                0x0011ae60      0x304 bm_sym.o
                0x0011ae60                McHale_V6

.rodata.SWCLOSED
                0x0011b164       0x10
 .rodata.SWCLOSED
                0x0011b164       0x10 bm_sym.o
                0x0011b164                SWCLOSED

.rodata.Balerdoorclosed_withoutkicker
                0x0011b174      0x158
 .rodata.Balerdoorclosed_withoutkicker
                0x0011b174      0x158 bm_sym.o
                0x0011b174                Balerdoorclosed_withoutkicker

.rodata.ROLLER  0x0011b2cc       0x20
 .rodata.ROLLER
                0x0011b2cc       0x20 bm_sym.o
                0x0011b2cc                ROLLER

.rodata.DRIVING_ARROWS_X3_LEFT
                0x0011b2ec       0x68
 .rodata.DRIVING_ARROWS_X3_LEFT
                0x0011b2ec       0x68 bm_sym.o
                0x0011b2ec                DRIVING_ARROWS_X3_LEFT

.rodata.ICON_CURRENT_SELECTION_INDICATOR
                0x0011b354       0x1c
 .rodata.ICON_CURRENT_SELECTION_INDICATOR
                0x0011b354       0x1c bm_sym.o
                0x0011b354                ICON_CURRENT_SELECTION_INDICATOR

.rodata.TAB_NET_CUT
                0x0011b370       0x54
 .rodata.TAB_NET_CUT
                0x0011b370       0x54 bm_sym.o
                0x0011b370                TAB_NET_CUT

.rodata.ICON_BALE_COUNT
                0x0011b3c4       0x2c
 .rodata.ICON_BALE_COUNT
                0x0011b3c4       0x2c bm_sym.o
                0x0011b3c4                ICON_BALE_COUNT

.rodata.BAR_UNIT
                0x0011b3f0       0x10
 .rodata.BAR_UNIT
                0x0011b3f0       0x10 bm_sym.o
                0x0011b3f0                BAR_UNIT

.rodata.ICON_NET_METRES_SELECTED
                0x0011b400      0x100
 .rodata.ICON_NET_METRES_SELECTED
                0x0011b400      0x100 bm_sym.o
                0x0011b400                ICON_NET_METRES_SELECTED

.rodata.TABKNFOFF
                0x0011b500       0x54
 .rodata.TABKNFOFF
                0x0011b500       0x54 bm_sym.o
                0x0011b500                TABKNFOFF

.rodata.DIASCALE
                0x0011b554       0x54
 .rodata.DIASCALE
                0x0011b554       0x54 bm_sym.o
                0x0011b554                DIASCALE

.rodata.TABPLUS
                0x0011b5a8       0x54
 .rodata.TABPLUS
                0x0011b5a8       0x54 bm_sym.o
                0x0011b5a8                TABPLUS

.rodata.GRASS01
                0x0011b5fc       0x20
 .rodata.GRASS01
                0x0011b5fc       0x20 bm_sym.o
                0x0011b5fc                GRASS01

.rodata.TABLEFT
                0x0011b61c       0x54
 .rodata.TABLEFT
                0x0011b61c       0x54 bm_sym.o
                0x0011b61c                TABLEFT

.rodata.DRIVING_ARROWS_X4_LEFT
                0x0011b670       0x68
 .rodata.DRIVING_ARROWS_X4_LEFT
                0x0011b670       0x68 bm_sym.o
                0x0011b670                DRIVING_ARROWS_X4_LEFT

.rodata.TABCYCLE_ATOJ
                0x0011b6d8       0x54
 .rodata.TABCYCLE_ATOJ
                0x0011b6d8       0x54 bm_sym.o
                0x0011b6d8                TABCYCLE_ATOJ

.rodata.GRASS05
                0x0011b72c       0x20
 .rodata.GRASS05
                0x0011b72c       0x20 bm_sym.o
                0x0011b72c                GRASS05

.rodata.GRASS06
                0x0011b74c       0x20
 .rodata.GRASS06
                0x0011b74c       0x20 bm_sym.o
                0x0011b74c                GRASS06

.rodata.DRIVING_ARROWS_X1_LEFT
                0x0011b76c       0x68
 .rodata.DRIVING_ARROWS_X1_LEFT
                0x0011b76c       0x68 bm_sym.o
                0x0011b76c                DRIVING_ARROWS_X1_LEFT

.rodata.BAR     0x0011b7d4       0x94
 .rodata.BAR    0x0011b7d4       0x94 bm_sym.o
                0x0011b7d4                BAR

.rodata.ICON_LUBE_COUNT_RESET
                0x0011b868       0xec
 .rodata.ICON_LUBE_COUNT_RESET
                0x0011b868       0xec bm_sym.o
                0x0011b868                ICON_LUBE_COUNT_RESET

.rodata.ICON_BALE_INDICATOR_BEEP
                0x0011b954       0x28
 .rodata.ICON_BALE_INDICATOR_BEEP
                0x0011b954       0x28 bm_sym.o
                0x0011b954                ICON_BALE_INDICATOR_BEEP

.rodata.Balerdooropen_withoutkicker
                0x0011b97c      0x174
 .rodata.Balerdooropen_withoutkicker
                0x0011b97c      0x174 bm_sym.o
                0x0011b97c                Balerdooropen_withoutkicker

.rodata.ICON_OPERATOR_SETUP_MENU
                0x0011baf0       0xdc
 .rodata.ICON_OPERATOR_SETUP_MENU
                0x0011baf0       0xdc bm_sym.o
                0x0011baf0                ICON_OPERATOR_SETUP_MENU

.rodata.ICON_PRE_WARNING_BEEP
                0x0011bbcc       0xe8
 .rodata.ICON_PRE_WARNING_BEEP
                0x0011bbcc       0xe8 bm_sym.o
                0x0011bbcc                ICON_PRE_WARNING_BEEP

.rodata.TAB_MAKE_SELECTION_CURRENT
                0x0011bcb4       0x54
 .rodata.TAB_MAKE_SELECTION_CURRENT
                0x0011bcb4       0x54 bm_sym.o
                0x0011bcb4                TAB_MAKE_SELECTION_CURRENT

.rodata.ICON_TIME_AND_DATE_ADJUST_MENU
                0x0011bd08       0x6c
 .rodata.ICON_TIME_AND_DATE_ADJUST_MENU
                0x0011bd08       0x6c bm_sym.o
                0x0011bd08                ICON_TIME_AND_DATE_ADJUST_MENU

.rodata.DAYSYM  0x0011bd74       0x6c
 .rodata.DAYSYM
                0x0011bd74       0x6c bm_sym.o
                0x0011bd74                DAYSYM

.rodata.ICON_BALE_INDICATOR_SELECTED
                0x0011bde0       0x8c
 .rodata.ICON_BALE_INDICATOR_SELECTED
                0x0011bde0       0x8c bm_sym.o
                0x0011bde0                ICON_BALE_INDICATOR_SELECTED

.rodata.TABTICK
                0x0011be6c       0x54
 .rodata.TABTICK
                0x0011be6c       0x54 bm_sym.o
                0x0011be6c                TABTICK

.rodata.ICON_PRE_WARNING_BEEP_SELECTED
                0x0011bec0       0xe8
 .rodata.ICON_PRE_WARNING_BEEP_SELECTED
                0x0011bec0       0xe8 bm_sym.o
                0x0011bec0                ICON_PRE_WARNING_BEEP_SELECTED

.rodata.ICON_FILL_POT_ZERO_RESET
                0x0011bfa8       0xc0
 .rodata.ICON_FILL_POT_ZERO_RESET
                0x0011bfa8       0xc0 bm_sym.o
                0x0011bfa8                ICON_FILL_POT_ZERO_RESET

.rodata.DIAMIND
                0x0011c068        0x8
 .rodata.DIAMIND
                0x0011c068        0x8 bm_sym.o
                0x0011c068                DIAMIND

.rodata.ICON_TECHNICIAN_MENU_SELECTED
                0x0011c070       0x44
 .rodata.ICON_TECHNICIAN_MENU_SELECTED
                0x0011c070       0x44 bm_sym.o
                0x0011c070                ICON_TECHNICIAN_MENU_SELECTED

.rodata.CONTRST1
                0x0011c0b4       0x14
 .rodata.CONTRST1
                0x0011c0b4       0x14 bm_sym.o
                0x0011c0b4                CONTRST1

.rodata.SWOPEN  0x0011c0c8       0x10
 .rodata.SWOPEN
                0x0011c0c8       0x10 bm_sym.o
                0x0011c0c8                SWOPEN

.rodata.TABNAV_ULR
                0x0011c0d8       0x7c
 .rodata.TABNAV_ULR
                0x0011c0d8       0x7c bm_sym.o
                0x0011c0d8                TABNAV_ULR

.rodata.SIDEDISPLAY_2
                0x0011c154      0x158
 .rodata.SIDEDISPLAY_2
                0x0011c154      0x158 bm_sym.o
                0x0011c154                SIDEDISPLAY_2

.rodata.TABNAV_DLR
                0x0011c2ac       0x7c
 .rodata.TABNAV_DLR
                0x0011c2ac       0x7c bm_sym.o
                0x0011c2ac                TABNAV_DLR

.rodata.ICON_BALE_PROFILE_A
                0x0011c328       0x24
 .rodata.ICON_BALE_PROFILE_A
                0x0011c328       0x24 bm_sym.o
                0x0011c328                ICON_BALE_PROFILE_A

.rodata.TABNAV_DL
                0x0011c34c       0x7c
 .rodata.TABNAV_DL
                0x0011c34c       0x7c bm_sym.o
                0x0011c34c                TABNAV_DL

.rodata.MODEMAN
                0x0011c3c8       0x30
 .rodata.MODEMAN
                0x0011c3c8       0x30 bm_sym.o
                0x0011c3c8                MODEMAN

.rodata.BATTSLIM
                0x0011c3f8       0x14
 .rodata.BATTSLIM
                0x0011c3f8       0x14 bm_sym.o
                0x0011c3f8                BATTSLIM

.rodata.TABNAV_DR
                0x0011c40c       0x7c
 .rodata.TABNAV_DR
                0x0011c40c       0x7c bm_sym.o
                0x0011c40c                TABNAV_DR

.rodata.TAB_DENSITY_RELEASE
                0x0011c488       0x54
 .rodata.TAB_DENSITY_RELEASE
                0x0011c488       0x54 bm_sym.o
                0x0011c488                TAB_DENSITY_RELEASE

.rodata.ICON_GRAND_TOTAL_BALES
                0x0011c4dc       0x2c
 .rodata.ICON_GRAND_TOTAL_BALES
                0x0011c4dc       0x2c bm_sym.o
                0x0011c4dc                ICON_GRAND_TOTAL_BALES

.rodata.ICON_FILL_POT_ZERO
                0x0011c508       0xd0
 .rodata.ICON_FILL_POT_ZERO
                0x0011c508       0xd0 bm_sym.o
                0x0011c508                ICON_FILL_POT_ZERO

.rodata.BalerCenter
                0x0011c5d8      0x1a0
 .rodata.BalerCenter
                0x0011c5d8      0x1a0 bm_sym.o
                0x0011c5d8                BalerCenter

.rodata.ICON_NET_TWINE_WITH_TWINE_HIGHLIGHTED
                0x0011c778      0x118
 .rodata.ICON_NET_TWINE_WITH_TWINE_HIGHLIGHTED
                0x0011c778      0x118 bm_sym.o
                0x0011c778                ICON_NET_TWINE_WITH_TWINE_HIGHLIGHTED

.rodata.ICON_BALE_DIAMETER_SELECTED
                0x0011c890      0x2e4
 .rodata.ICON_BALE_DIAMETER_SELECTED
                0x0011c890      0x2e4 bm_sym.o
                0x0011c890                ICON_BALE_DIAMETER_SELECTED

.rodata.TABRESET
                0x0011cb74       0x54
 .rodata.TABRESET
                0x0011cb74       0x54 bm_sym.o
                0x0011cb74                TABRESET

.rodata.MODEAUTO
                0x0011cbc8       0x38
 .rodata.MODEAUTO
                0x0011cbc8       0x38 bm_sym.o
                0x0011cbc8                MODEAUTO

.rodata.ICON_LUBE_COUNT
                0x0011cc00       0x2c
 .rodata.ICON_LUBE_COUNT
                0x0011cc00       0x2c bm_sym.o
                0x0011cc00                ICON_LUBE_COUNT

.rodata.ICON_CLOCK_AT_TEN_TO_TWO
                0x0011cc2c       0x20
 .rodata.ICON_CLOCK_AT_TEN_TO_TWO
                0x0011cc2c       0x20 bm_sym.o
                0x0011cc2c                ICON_CLOCK_AT_TEN_TO_TWO

.rodata.WARNING_LOWBATT
                0x0011cc4c      0x214
 .rodata.WARNING_LOWBATT
                0x0011cc4c      0x214 bm_sym.o
                0x0011cc4c                WARNING_LOWBATT

.rodata.ICON_CORE_DIAMETER_SELECTED
                0x0011ce60      0x2e4
 .rodata.ICON_CORE_DIAMETER_SELECTED
                0x0011ce60      0x2e4 bm_sym.o
                0x0011ce60                ICON_CORE_DIAMETER_SELECTED

.rodata.ICON_MACHINE_SETUP_MENU_SELECTED
                0x0011d144       0xdc
 .rodata.ICON_MACHINE_SETUP_MENU_SELECTED
                0x0011d144       0xdc bm_sym.o
                0x0011d144                ICON_MACHINE_SETUP_MENU_SELECTED

.rodata.WARNING_DROPFLOOR
                0x0011d220      0x214
 .rodata.WARNING_DROPFLOOR
                0x0011d220      0x214 bm_sym.o
                0x0011d220                WARNING_DROPFLOOR

.rodata.ROLL01  0x0011d434       0x38
 .rodata.ROLL01
                0x0011d434       0x38 bm_sym.o
                0x0011d434                ROLL01

.rodata.ROLL02  0x0011d46c       0x38
 .rodata.ROLL02
                0x0011d46c       0x38 bm_sym.o
                0x0011d46c                ROLL02

.rodata.ROLL04  0x0011d4a4       0x38
 .rodata.ROLL04
                0x0011d4a4       0x38 bm_sym.o
                0x0011d4a4                ROLL04

.rodata.UNDERLINE_FOUR_DIGIT
                0x0011d4dc        0x8
 .rodata.UNDERLINE_FOUR_DIGIT
                0x0011d4dc        0x8 bm_sym.o
                0x0011d4dc                UNDERLINE_FOUR_DIGIT

.rodata.ROLL06  0x0011d4e4       0x38
 .rodata.ROLL06
                0x0011d4e4       0x38 bm_sym.o
                0x0011d4e4                ROLL06

.rodata.WARNING_CHECKNET
                0x0011d51c      0x214
 .rodata.WARNING_CHECKNET
                0x0011d51c      0x214 bm_sym.o
                0x0011d51c                WARNING_CHECKNET

.rodata.ICON_NET_METRES
                0x0011d730      0x100
 .rodata.ICON_NET_METRES
                0x0011d730      0x100 bm_sym.o
                0x0011d730                ICON_NET_METRES

.rodata.TABKNFDIV
                0x0011d830       0x54
 .rodata.TABKNFDIV
                0x0011d830       0x54 bm_sym.o
                0x0011d830                TABKNFDIV

.rodata.DRIVING_ARROWS_X2_RIGHT
                0x0011d884       0x68
 .rodata.DRIVING_ARROWS_X2_RIGHT
                0x0011d884       0x68 bm_sym.o
                0x0011d884                DRIVING_ARROWS_X2_RIGHT

.rodata.KICKER_DOWN
                0x0011d8ec       0x1c
 .rodata.KICKER_DOWN
                0x0011d8ec       0x1c bm_sym.o
                0x0011d8ec                KICKER_DOWN

.rodata.TABNAV_LR
                0x0011d908       0x7c
 .rodata.TABNAV_LR
                0x0011d908       0x7c bm_sym.o
                0x0011d908                TABNAV_LR

.rodata.KNIFE   0x0011d984       0x1c
 .rodata.KNIFE  0x0011d984       0x1c bm_sym.o
                0x0011d984                KNIFE

.rodata.GRASS04
                0x0011d9a0       0x20
 .rodata.GRASS04
                0x0011d9a0       0x20 bm_sym.o
                0x0011d9a0                GRASS04

.rodata.ICON_NET_DELAY_SELECTED
                0x0011d9c0       0xc4
 .rodata.ICON_NET_DELAY_SELECTED
                0x0011d9c0       0xc4 bm_sym.o
                0x0011d9c0                ICON_NET_DELAY_SELECTED

.rodata.ICON_CORE_DENSITY
                0x0011da84       0x9c
 .rodata.ICON_CORE_DENSITY
                0x0011da84       0x9c bm_sym.o
                0x0011da84                ICON_CORE_DENSITY

.rodata.ICON_SELECTION_POINTER
                0x0011db20       0x10
 .rodata.ICON_SELECTION_POINTER
                0x0011db20       0x10 bm_sym.o
                0x0011db20                ICON_SELECTION_POINTER

.rodata.WARNING_DENSITY_PRESSURE_SCREEN_IMAGE
                0x0011db30      0x48c
 .rodata.WARNING_DENSITY_PRESSURE_SCREEN_IMAGE
                0x0011db30      0x48c bm_sym.o
                0x0011db30                WARNING_DENSITY_PRESSURE_SCREEN_IMAGE

.rodata.ICON_DIAMETER_CORRECTION
                0x0011dfbc      0x120
 .rodata.ICON_DIAMETER_CORRECTION
                0x0011dfbc      0x120 bm_sym.o
                0x0011dfbc                ICON_DIAMETER_CORRECTION

.rodata.ICON_BALE_SETUP_MENU
                0x0011e0dc       0xdc
 .rodata.ICON_BALE_SETUP_MENU
                0x0011e0dc       0xdc bm_sym.o
                0x0011e0dc                ICON_BALE_SETUP_MENU

.rodata.DRIVING_ARROWS_X4_RIGHT
                0x0011e1b8       0x68
 .rodata.DRIVING_ARROWS_X4_RIGHT
                0x0011e1b8       0x68 bm_sym.o
                0x0011e1b8                DRIVING_ARROWS_X4_RIGHT

.rodata.LUBE_COUNT_RESET_PROMPT
                0x0011e220      0x204
 .rodata.LUBE_COUNT_RESET_PROMPT
                0x0011e220      0x204 bm_sym.o
                0x0011e220                LUBE_COUNT_RESET_PROMPT

.rodata.BRICK1  0x0011e424       0x38
 .rodata.BRICK1
                0x0011e424       0x38 bm_sym.o
                0x0011e424                BRICK1

.rodata.ICON_NET_LAYERS_SELECTED
                0x0011e45c       0x54
 .rodata.ICON_NET_LAYERS_SELECTED
                0x0011e45c       0x54 bm_sym.o
                0x0011e45c                ICON_NET_LAYERS_SELECTED

.rodata.UNDERLINE_TWO_DIGIT
                0x0011e4b0        0x8
 .rodata.UNDERLINE_TWO_DIGIT
                0x0011e4b0        0x8 bm_sym.o
                0x0011e4b0                UNDERLINE_TWO_DIGIT

.rodata.DRIVING_ARROWS_NONE
                0x0011e4b8       0x68
 .rodata.DRIVING_ARROWS_NONE
                0x0011e4b8       0x68 bm_sym.o
                0x0011e4b8                DRIVING_ARROWS_NONE

.rodata.ICON_BALE_DENSITY_SELECTED
                0x0011e520       0xb0
 .rodata.ICON_BALE_DENSITY_SELECTED
                0x0011e520       0xb0 bm_sym.o
                0x0011e520                ICON_BALE_DENSITY_SELECTED

.rodata.ICON_MACHINE_SETUP_MENU
                0x0011e5d0       0xdc
 .rodata.ICON_MACHINE_SETUP_MENU
                0x0011e5d0       0xdc bm_sym.o
                0x0011e5d0                ICON_MACHINE_SETUP_MENU

.rodata.TAB_PAGE
                0x0011e6ac       0x54
 .rodata.TAB_PAGE
                0x0011e6ac       0x54 bm_sym.o
                0x0011e6ac                TAB_PAGE

.rodata.BRIGHTN1
                0x0011e700       0x18
 .rodata.BRIGHTN1
                0x0011e700       0x18 bm_sym.o
                0x0011e700                BRIGHTN1

.rodata.TABRIGHT
                0x0011e718       0x54
 .rodata.TABRIGHT
                0x0011e718       0x54 bm_sym.o
                0x0011e718                TABRIGHT

.rodata.ICON_BALE_PROFILE_SELECTED
                0x0011e76c      0x2e4
 .rodata.ICON_BALE_PROFILE_SELECTED
                0x0011e76c      0x2e4 bm_sym.o
                0x0011e76c                ICON_BALE_PROFILE_SELECTED

.rodata.ICON_BALE_SETUP_MENU_SELECTED
                0x0011ea50       0xdc
 .rodata.ICON_BALE_SETUP_MENU_SELECTED
                0x0011ea50       0xdc bm_sym.o
                0x0011ea50                ICON_BALE_SETUP_MENU_SELECTED

.rodata.TABNAV01
                0x0011eb2c       0x7c
 .rodata.TABNAV01
                0x0011eb2c       0x7c bm_sym.o
                0x0011eb2c                TABNAV01

.rodata.Bale    0x0011eba8      0x100
 .rodata.Bale   0x0011eba8      0x100 bm_sym.o
                0x0011eba8                Bale

.rodata.ICON_BALE_INDICATOR_ON
                0x0011eca8       0x28
 .rodata.ICON_BALE_INDICATOR_ON
                0x0011eca8       0x28 bm_sym.o
                0x0011eca8                ICON_BALE_INDICATOR_ON

.rodata.ICON_BRIGHTNESS_AND_CONTRAST_MENU_SELECTED
                0x0011ecd0       0x64
 .rodata.ICON_BRIGHTNESS_AND_CONTRAST_MENU_SELECTED
                0x0011ecd0       0x64 bm_sym.o
                0x0011ecd0                ICON_BRIGHTNESS_AND_CONTRAST_MENU_SELECTED

.rodata.TABNAV_D
                0x0011ed34       0x7c
 .rodata.TABNAV_D
                0x0011ed34       0x7c bm_sym.o
                0x0011ed34                TABNAV_D

.rodata.TABESC  0x0011edb0       0x58
 .rodata.TABESC
                0x0011edb0       0x58 bm_sym.o
                0x0011edb0                TABESC

.rodata.ICON_CORE_DENSITY_SELECTED
                0x0011ee08       0x9c
 .rodata.ICON_CORE_DENSITY_SELECTED
                0x0011ee08       0x9c bm_sym.o
                0x0011ee08                ICON_CORE_DENSITY_SELECTED

.rodata.ICON_FILL_POT_ZERO_SELECTED
                0x0011eea4       0xd0
 .rodata.ICON_FILL_POT_ZERO_SELECTED
                0x0011eea4       0xd0 bm_sym.o
                0x0011eea4                ICON_FILL_POT_ZERO_SELECTED

.rodata.DRIVING_ARROWS_X2_LEFT
                0x0011ef74       0x68
 .rodata.DRIVING_ARROWS_X2_LEFT
                0x0011ef74       0x68 bm_sym.o
                0x0011ef74                DRIVING_ARROWS_X2_LEFT

.rodata.ICON_SCROLL_BAR_PAGE_2_OF_2
                0x0011efdc       0xac
 .rodata.ICON_SCROLL_BAR_PAGE_2_OF_2
                0x0011efdc       0xac bm_sym.o
                0x0011efdc                ICON_SCROLL_BAR_PAGE_2_OF_2

.rodata.ICON_BALE_INDICATOR_OFF
                0x0011f088       0x28
 .rodata.ICON_BALE_INDICATOR_OFF
                0x0011f088       0x28 bm_sym.o
                0x0011f088                ICON_BALE_INDICATOR_OFF

.rodata.TABNAV_L
                0x0011f0b0       0x7c
 .rodata.TABNAV_L
                0x0011f0b0       0x7c bm_sym.o
                0x0011f0b0                TABNAV_L

.rodata.TABMINUS
                0x0011f12c       0x54
 .rodata.TABMINUS
                0x0011f12c       0x54 bm_sym.o
                0x0011f12c                TABMINUS

.rodata.TABKNFON
                0x0011f180       0x54
 .rodata.TABKNFON
                0x0011f180       0x54 bm_sym.o
                0x0011f180                TABKNFON

.rodata.ICON_TECHNICIAN_MENU
                0x0011f1d4       0x44
 .rodata.ICON_TECHNICIAN_MENU
                0x0011f1d4       0x44 bm_sym.o
                0x0011f1d4                ICON_TECHNICIAN_MENU

.rodata.ICON_BRIGHTNESS_AND_CONTRAST_MENU
                0x0011f218       0x64
 .rodata.ICON_BRIGHTNESS_AND_CONTRAST_MENU
                0x0011f218       0x64 bm_sym.o
                0x0011f218                ICON_BRIGHTNESS_AND_CONTRAST_MENU

.rodata.ICON_TIME_AND_DATE_ADJUST_MENU_SELECTED
                0x0011f27c       0x6c
 .rodata.ICON_TIME_AND_DATE_ADJUST_MENU_SELECTED
                0x0011f27c       0x6c bm_sym.o
                0x0011f27c                ICON_TIME_AND_DATE_ADJUST_MENU_SELECTED

.rodata.TABNAV_U
                0x0011f2e8       0x7c
 .rodata.TABNAV_U
                0x0011f2e8       0x7c bm_sym.o
                0x0011f2e8                TABNAV_U

.rodata.POWER   0x0011f364       0x18
 .rodata.POWER  0x0011f364       0x18 bm_sym.o
                0x0011f364                POWER

.rodata.ROLL03  0x0011f37c       0x38
 .rodata.ROLL03
                0x0011f37c       0x38 bm_sym.o
                0x0011f37c                ROLL03

.rodata.BUTTON03
                0x0011f3b4       0x18
 .rodata.BUTTON03
                0x0011f3b4       0x18 bm_sym.o
                0x0011f3b4                BUTTON03

.rodata.BUTTON04
                0x0011f3cc       0x18
 .rodata.BUTTON04
                0x0011f3cc       0x18 bm_sym.o
                0x0011f3cc                BUTTON04

.rodata.KICKER_UP
                0x0011f3e4       0x1c
 .rodata.KICKER_UP
                0x0011f3e4       0x1c bm_sym.o
                0x0011f3e4                KICKER_UP

.rodata.ICON_NET_TWINE_WITH_NET_HIGHLIGHTED
                0x0011f400      0x118
 .rodata.ICON_NET_TWINE_WITH_NET_HIGHLIGHTED
                0x0011f400      0x118 bm_sym.o
                0x0011f400                ICON_NET_TWINE_WITH_NET_HIGHLIGHTED

.rodata.TABRESET_LUBECOUNT
                0x0011f518       0x54
 .rodata.TABRESET_LUBECOUNT
                0x0011f518       0x54 bm_sym.o
                0x0011f518                TABRESET_LUBECOUNT

.rodata.SIDEDISPLAY_1
                0x0011f56c      0x158
 .rodata.SIDEDISPLAY_1
                0x0011f56c      0x158 bm_sym.o
                0x0011f56c                SIDEDISPLAY_1

.rodata.BalerHitch
                0x0011f6c4       0x44
 .rodata.BalerHitch
                0x0011f6c4       0x44 bm_sym.o
                0x0011f6c4                BalerHitch

.rodata.ICON_NET_DELAY
                0x0011f708       0xc4
 .rodata.ICON_NET_DELAY
                0x0011f708       0xc4 bm_sym.o
                0x0011f708                ICON_NET_DELAY

.rodata.TABNAV_
                0x0011f7cc       0x7c
 .rodata.TABNAV_
                0x0011f7cc       0x7c bm_sym.o
                0x0011f7cc                TABNAV_

.rodata.TABNAV_UDL
                0x0011f848       0x7c
 .rodata.TABNAV_UDL
                0x0011f848       0x7c bm_sym.o
                0x0011f848                TABNAV_UDL

.rodata.ICON_BALE_COUNT_MENU_SELECTED
                0x0011f8c4       0xdc
 .rodata.ICON_BALE_COUNT_MENU_SELECTED
                0x0011f8c4       0xdc bm_sym.o
                0x0011f8c4                ICON_BALE_COUNT_MENU_SELECTED

.rodata.ROLL08  0x0011f9a0       0x38
 .rodata.ROLL08
                0x0011f9a0       0x38 bm_sym.o
                0x0011f9a0                ROLL08

.rodata.ICON_BALE_PROFILE_CORE_DIAMETER_BALE_DIAMETER
                0x0011f9d8      0x2e4
 .rodata.ICON_BALE_PROFILE_CORE_DIAMETER_BALE_DIAMETER
                0x0011f9d8      0x2e4 bm_sym.o
                0x0011f9d8                ICON_BALE_PROFILE_CORE_DIAMETER_BALE_DIAMETER

.rodata.WARNING_KNIFEPRES
                0x0011fcbc      0x214
 .rodata.WARNING_KNIFEPRES
                0x0011fcbc      0x214 bm_sym.o
                0x0011fcbc                WARNING_KNIFEPRES

.rodata.TABNAV_UDR
                0x0011fed0       0x7c
 .rodata.TABNAV_UDR
                0x0011fed0       0x7c bm_sym.o
                0x0011fed0                TABNAV_UDR

.rodata.ICON_SCROLL_BAR_PAGE_1_OF_2
                0x0011ff4c       0xac
 .rodata.ICON_SCROLL_BAR_PAGE_1_OF_2
                0x0011ff4c       0xac bm_sym.o
                0x0011ff4c                ICON_SCROLL_BAR_PAGE_1_OF_2

.rodata.TABNAV_UD
                0x0011fff8       0x7c
 .rodata.TABNAV_UD
                0x0011fff8       0x7c bm_sym.o
                0x0011fff8                TABNAV_UD

.rodata.ICON_OPERATOR_SETUP_MENU_SELECTED
                0x00120074       0xdc
 .rodata.ICON_OPERATOR_SETUP_MENU_SELECTED
                0x00120074       0xdc bm_sym.o
                0x00120074                ICON_OPERATOR_SETUP_MENU_SELECTED

.rodata.ICON_NET_LAYERS
                0x00120150       0x54
 .rodata.ICON_NET_LAYERS
                0x00120150       0x54 bm_sym.o
                0x00120150                ICON_NET_LAYERS

.rodata.TABNAV_UDLR
                0x001201a4       0x7c
 .rodata.TABNAV_UDLR
                0x001201a4       0x7c bm_sym.o
                0x001201a4                TABNAV_UDLR

.rodata.TABCROSS
                0x00120220       0x54
 .rodata.TABCROSS
                0x00120220       0x54 bm_sym.o
                0x00120220                TABCROSS

.rodata.TABNAV_UL
                0x00120274       0x7c
 .rodata.TABNAV_UL
                0x00120274       0x7c bm_sym.o
                0x00120274                TABNAV_UL

.rodata.TABDIVERT
                0x001202f0       0x54
 .rodata.TABDIVERT
                0x001202f0       0x54 bm_sym.o
                0x001202f0                TABDIVERT

.rodata.ICON_DIAMETER_CORRECTION_SELECTED
                0x00120344      0x120
 .rodata.ICON_DIAMETER_CORRECTION_SELECTED
                0x00120344      0x120 bm_sym.o
                0x00120344                ICON_DIAMETER_CORRECTION_SELECTED

.rodata.TABAUTOMAN
                0x00120464       0x54
 .rodata.TABAUTOMAN
                0x00120464       0x54 bm_sym.o
                0x00120464                TABAUTOMAN

.rodata.WARNING_CHOP_KNIV_POS
                0x001204b8      0x214
 .rodata.WARNING_CHOP_KNIV_POS
                0x001204b8      0x214 bm_sym.o
                0x001204b8                WARNING_CHOP_KNIV_POS

.rodata.OILCAN  0x001206cc       0x5c
 .rodata.OILCAN
                0x001206cc       0x5c bm_sym.o
                0x001206cc                OILCAN

.rodata.ROLL05  0x00120728       0x38
 .rodata.ROLL05
                0x00120728       0x38 bm_sym.o
                0x00120728                ROLL05

.rodata.ICON_DIAGNOSTICS_SCREENS_SELECTED
                0x00120760       0x64
 .rodata.ICON_DIAGNOSTICS_SCREENS_SELECTED
                0x00120760       0x64 bm_sym.o
                0x00120760                ICON_DIAGNOSTICS_SCREENS_SELECTED

.rodata.GRASS02
                0x001207c4       0x20
 .rodata.GRASS02
                0x001207c4       0x20 bm_sym.o
                0x001207c4                GRASS02

.rodata.ROLL07  0x001207e4       0x38
 .rodata.ROLL07
                0x001207e4       0x38 bm_sym.o
                0x001207e4                ROLL07

.rodata.ICON_BALE_DENSITY
                0x0012081c       0xb0
 .rodata.ICON_BALE_DENSITY
                0x0012081c       0xb0 bm_sym.o
                0x0012081c                ICON_BALE_DENSITY

.rodata.DRIVING_ARROWS_X1_RIGHT
                0x001208cc       0x68
 .rodata.DRIVING_ARROWS_X1_RIGHT
                0x001208cc       0x68 bm_sym.o
                0x001208cc                DRIVING_ARROWS_X1_RIGHT

.rodata.GRASS03
                0x00120934       0x20
 .rodata.GRASS03
                0x00120934       0x20 bm_sym.o
                0x00120934                GRASS03

.rodata.TABNAV_MENU_DL
                0x00120954       0x7c
 .rodata.TABNAV_MENU_DL
                0x00120954       0x7c bm_sym.o
                0x00120954                TABNAV_MENU_DL

.rodata.TABENT  0x001209d0       0x58
 .rodata.TABENT
                0x001209d0       0x58 bm_sym.o
                0x001209d0                TABENT

.rodata.CROPFEED
                0x00120a28       0x30
 .rodata.CROPFEED
                0x00120a28       0x30 bm_sym.o
                0x00120a28                CROPFEED

.rodata.TABMAN  0x00120a58       0x54
 .rodata.TABMAN
                0x00120a58       0x54 bm_sym.o
                0x00120a58                TABMAN

.rodata.BUTTON01
                0x00120aac       0x18
 .rodata.BUTTON01
                0x00120aac       0x18 bm_sym.o
                0x00120aac                BUTTON01

.rodata.NIGHTSYM
                0x00120ac4       0x40
 .rodata.NIGHTSYM
                0x00120ac4       0x40 bm_sym.o
                0x00120ac4                NIGHTSYM

.rodata.ICON_BALE_COUNT_MENU
                0x00120b04       0xdc
 .rodata.ICON_BALE_COUNT_MENU
                0x00120b04       0xdc bm_sym.o
                0x00120b04                ICON_BALE_COUNT_MENU

.rodata.ICON_BALE_COUNT_RESET
                0x00120be0       0xec
 .rodata.ICON_BALE_COUNT_RESET
                0x00120be0       0xec bm_sym.o
                0x00120be0                ICON_BALE_COUNT_RESET

.rodata.DRIVING_ARROWS_X3_RIGHT
                0x00120ccc       0x68
 .rodata.DRIVING_ARROWS_X3_RIGHT
                0x00120ccc       0x68 bm_sym.o
                0x00120ccc                DRIVING_ARROWS_X3_RIGHT

.rodata.TABNAV00
                0x00120d34       0x7c
 .rodata.TABNAV00
                0x00120d34       0x7c bm_sym.o
                0x00120d34                TABNAV00

.rodata.TAB     0x00120db0       0x54
 .rodata.TAB    0x00120db0       0x54 bm_sym.o
                0x00120db0                TAB

.rodata.RDSfnt1
                0x00120e04       0x3c
 .rodata.RDSfnt1
                0x00120e04       0x3c bm_num.o
                0x00120e04                RDSfnt1

.rodata.F1_CLK  0x00120e40        0xc
 .rodata.F1_CLK
                0x00120e40        0xc bm_f1all.o
                0x00120e40                F1_CLK

.rodata.F1_I12F
                0x00120e4c        0xc
 .rodata.F1_I12F
                0x00120e4c        0xc bm_f1all.o
                0x00120e4c                F1_I12F

.rodata.F1_I170
                0x00120e58        0xc
 .rodata.F1_I170
                0x00120e58        0xc bm_f1all.o
                0x00120e58                F1_I170

.rodata.F1_I171
                0x00120e64        0xc
 .rodata.F1_I171
                0x00120e64        0xc bm_f1all.o
                0x00120e64                F1_I171

.rodata.F1_I172
                0x00120e70        0xc
 .rodata.F1_I172
                0x00120e70        0xc bm_f1all.o
                0x00120e70                F1_I172

.rodata.F1_I13D
                0x00120e7c        0xc
 .rodata.F1_I13D
                0x00120e7c        0xc bm_f1all.o
                0x00120e7c                F1_I13D

.rodata.F1_I13E
                0x00120e88        0xc
 .rodata.F1_I13E
                0x00120e88        0xc bm_f1all.o
                0x00120e88                F1_I13E

.rodata.F1_I175
                0x00120e94        0xc
 .rodata.F1_I175
                0x00120e94        0xc bm_f1all.o
                0x00120e94                F1_I175

.rodata.F1_I176
                0x00120ea0        0xc
 .rodata.F1_I176
                0x00120ea0        0xc bm_f1all.o
                0x00120ea0                F1_I176

.rodata.F1_I177
                0x00120eac        0xc
 .rodata.F1_I177
                0x00120eac        0xc bm_f1all.o
                0x00120eac                F1_I177

.rodata.F1_I178
                0x00120eb8        0xc
 .rodata.F1_I178
                0x00120eb8        0xc bm_f1all.o
                0x00120eb8                F1_I178

.rodata.F1_I179
                0x00120ec4        0xc
 .rodata.F1_I179
                0x00120ec4        0xc bm_f1all.o
                0x00120ec4                F1_I179

.rodata.F1_I17A
                0x00120ed0        0xc
 .rodata.F1_I17A
                0x00120ed0        0xc bm_f1all.o
                0x00120ed0                F1_I17A

.rodata.F1_I17B
                0x00120edc        0xc
 .rodata.F1_I17B
                0x00120edc        0xc bm_f1all.o
                0x00120edc                F1_I17B

.rodata.F1_I17C
                0x00120ee8        0xc
 .rodata.F1_I17C
                0x00120ee8        0xc bm_f1all.o
                0x00120ee8                F1_I17C

.rodata.F1_I17D
                0x00120ef4        0xc
 .rodata.F1_I17D
                0x00120ef4        0xc bm_f1all.o
                0x00120ef4                F1_I17D

.rodata.F1_I17E
                0x00120f00        0xc
 .rodata.F1_I17E
                0x00120f00        0xc bm_f1all.o
                0x00120f00                F1_I17E

.rodata.F1_FILL
                0x00120f0c        0xc
 .rodata.F1_FILL
                0x00120f0c        0xc bm_f1all.o
                0x00120f0c                F1_FILL

.rodata.F1_I140
                0x00120f18        0xc
 .rodata.F1_I140
                0x00120f18        0xc bm_f1all.o
                0x00120f18                F1_I140

.rodata.F1_I141
                0x00120f24        0xc
 .rodata.F1_I141
                0x00120f24        0xc bm_f1all.o
                0x00120f24                F1_I141

.rodata.F1_I142
                0x00120f30        0xc
 .rodata.F1_I142
                0x00120f30        0xc bm_f1all.o
                0x00120f30                F1_I142

.rodata.F1_I143
                0x00120f3c        0xc
 .rodata.F1_I143
                0x00120f3c        0xc bm_f1all.o
                0x00120f3c                F1_I143

.rodata.F1_I144
                0x00120f48        0xc
 .rodata.F1_I144
                0x00120f48        0xc bm_f1all.o
                0x00120f48                F1_I144

.rodata.F1_I145
                0x00120f54        0xc
 .rodata.F1_I145
                0x00120f54        0xc bm_f1all.o
                0x00120f54                F1_I145

.rodata.F1_I146
                0x00120f60        0xc
 .rodata.F1_I146
                0x00120f60        0xc bm_f1all.o
                0x00120f60                F1_I146

.rodata.F1_I147
                0x00120f6c        0xc
 .rodata.F1_I147
                0x00120f6c        0xc bm_f1all.o
                0x00120f6c                F1_I147

.rodata.F1_I148
                0x00120f78        0xc
 .rodata.F1_I148
                0x00120f78        0xc bm_f1all.o
                0x00120f78                F1_I148

.rodata.F1_I149
                0x00120f84        0xc
 .rodata.F1_I149
                0x00120f84        0xc bm_f1all.o
                0x00120f84                F1_I149

.rodata.F1_POINT
                0x00120f90        0xc
 .rodata.F1_POINT
                0x00120f90        0xc bm_f1all.o
                0x00120f90                F1_POINT

.rodata.F1_I14A
                0x00120f9c        0xc
 .rodata.F1_I14A
                0x00120f9c        0xc bm_f1all.o
                0x00120f9c                F1_I14A

.rodata.F1_I14B
                0x00120fa8        0xc
 .rodata.F1_I14B
                0x00120fa8        0xc bm_f1all.o
                0x00120fa8                F1_I14B

.rodata.F1_I14C
                0x00120fb4        0xc
 .rodata.F1_I14C
                0x00120fb4        0xc bm_f1all.o
                0x00120fb4                F1_I14C

.rodata.F1_I14D
                0x00120fc0        0xc
 .rodata.F1_I14D
                0x00120fc0        0xc bm_f1all.o
                0x00120fc0                F1_I14D

.rodata.F1_I14E
                0x00120fcc        0xc
 .rodata.F1_I14E
                0x00120fcc        0xc bm_f1all.o
                0x00120fcc                F1_I14E

.rodata.F1_I14F
                0x00120fd8        0xc
 .rodata.F1_I14F
                0x00120fd8        0xc bm_f1all.o
                0x00120fd8                F1_I14F

.rodata.F1_I160
                0x00120fe4        0xc
 .rodata.F1_I160
                0x00120fe4        0xc bm_f1all.o
                0x00120fe4                F1_I160

.rodata.F1_I161
                0x00120ff0        0xc
 .rodata.F1_I161
                0x00120ff0        0xc bm_f1all.o
                0x00120ff0                F1_I161

.rodata.F1_I162
                0x00120ffc        0xc
 .rodata.F1_I162
                0x00120ffc        0xc bm_f1all.o
                0x00120ffc                F1_I162

.rodata.F1_DEG  0x00121008        0xc
 .rodata.F1_DEG
                0x00121008        0xc bm_f1all.o
                0x00121008                F1_DEG

.rodata.F1_I163
                0x00121014        0xc
 .rodata.F1_I163
                0x00121014        0xc bm_f1all.o
                0x00121014                F1_I163

.rodata.F1_I164
                0x00121020        0xc
 .rodata.F1_I164
                0x00121020        0xc bm_f1all.o
                0x00121020                F1_I164

.rodata.F1_I150
                0x0012102c        0xc
 .rodata.F1_I150
                0x0012102c        0xc bm_f1all.o
                0x0012102c                F1_I150

.rodata.F1_I151
                0x00121038        0xc
 .rodata.F1_I151
                0x00121038        0xc bm_f1all.o
                0x00121038                F1_I151

.rodata.F1_I152
                0x00121044        0xc
 .rodata.F1_I152
                0x00121044        0xc bm_f1all.o
                0x00121044                F1_I152

.rodata.F1_I153
                0x00121050        0xc
 .rodata.F1_I153
                0x00121050        0xc bm_f1all.o
                0x00121050                F1_I153

.rodata.F1_I154
                0x0012105c        0xc
 .rodata.F1_I154
                0x0012105c        0xc bm_f1all.o
                0x0012105c                F1_I154

.rodata.F1_I155
                0x00121068        0xc
 .rodata.F1_I155
                0x00121068        0xc bm_f1all.o
                0x00121068                F1_I155

.rodata.F1_I156
                0x00121074        0xc
 .rodata.F1_I156
                0x00121074        0xc bm_f1all.o
                0x00121074                F1_I156

.rodata.F1_I157
                0x00121080        0xc
 .rodata.F1_I157
                0x00121080        0xc bm_f1all.o
                0x00121080                F1_I157

.rodata.F1_I158
                0x0012108c        0xc
 .rodata.F1_I158
                0x0012108c        0xc bm_f1all.o
                0x0012108c                F1_I158

.rodata.F1_I159
                0x00121098        0xc
 .rodata.F1_I159
                0x00121098        0xc bm_f1all.o
                0x00121098                F1_I159

.rodata.F1_I15A
                0x001210a4        0xc
 .rodata.F1_I15A
                0x001210a4        0xc bm_f1all.o
                0x001210a4                F1_I15A

.rodata.F1_I15B
                0x001210b0        0xc
 .rodata.F1_I15B
                0x001210b0        0xc bm_f1all.o
                0x001210b0                F1_I15B

.rodata.F1_I15C
                0x001210bc        0xc
 .rodata.F1_I15C
                0x001210bc        0xc bm_f1all.o
                0x001210bc                F1_I15C

.rodata.F1_I15D
                0x001210c8        0xc
 .rodata.F1_I15D
                0x001210c8        0xc bm_f1all.o
                0x001210c8                F1_I15D

.rodata.F1_I15E
                0x001210d4        0xc
 .rodata.F1_I15E
                0x001210d4        0xc bm_f1all.o
                0x001210d4                F1_I15E

.rodata.F1_I15F
                0x001210e0        0xc
 .rodata.F1_I15F
                0x001210e0        0xc bm_f1all.o
                0x001210e0                F1_I15F

.rodata.F1_ENT  0x001210ec        0x8
 .rodata.F1_ENT
                0x001210ec        0x8 bm_f1all.o
                0x001210ec                F1_ENT

.rodata.fnt1    0x001210f4        0x8
 .rodata.fnt1   0x001210f4        0x8 bm_f1all.o
                0x001210f4                fnt1

.rodata.F1_RDS  0x001210fc       0x30
 .rodata.F1_RDS
                0x001210fc       0x30 bm_f1all.o
                0x001210fc                F1_RDS

.rodata.F1_I120
                0x0012112c        0xc
 .rodata.F1_I120
                0x0012112c        0xc bm_f1all.o
                0x0012112c                F1_I120

.rodata.F1_I121
                0x00121138        0xc
 .rodata.F1_I121
                0x00121138        0xc bm_f1all.o
                0x00121138                F1_I121

.rodata.F1_I122
                0x00121144        0xc
 .rodata.F1_I122
                0x00121144        0xc bm_f1all.o
                0x00121144                F1_I122

.rodata.F1_I123
                0x00121150        0xc
 .rodata.F1_I123
                0x00121150        0xc bm_f1all.o
                0x00121150                F1_I123

.rodata.F1_I124
                0x0012115c        0xc
 .rodata.F1_I124
                0x0012115c        0xc bm_f1all.o
                0x0012115c                F1_I124

.rodata.F1_I125
                0x00121168        0xc
 .rodata.F1_I125
                0x00121168        0xc bm_f1all.o
                0x00121168                F1_I125

.rodata.F1_I126
                0x00121174        0xc
 .rodata.F1_I126
                0x00121174        0xc bm_f1all.o
                0x00121174                F1_I126

.rodata.F1_I127
                0x00121180        0xc
 .rodata.F1_I127
                0x00121180        0xc bm_f1all.o
                0x00121180                F1_I127

.rodata.F1_I128
                0x0012118c        0xc
 .rodata.F1_I128
                0x0012118c        0xc bm_f1all.o
                0x0012118c                F1_I128

.rodata.F1_I129
                0x00121198        0xc
 .rodata.F1_I129
                0x00121198        0xc bm_f1all.o
                0x00121198                F1_I129

.rodata.F1_I12A
                0x001211a4        0xc
 .rodata.F1_I12A
                0x001211a4        0xc bm_f1all.o
                0x001211a4                F1_I12A

.rodata.F1_I12B
                0x001211b0        0xc
 .rodata.F1_I12B
                0x001211b0        0xc bm_f1all.o
                0x001211b0                F1_I12B

.rodata.F1_I12C
                0x001211bc        0xc
 .rodata.F1_I12C
                0x001211bc        0xc bm_f1all.o
                0x001211bc                F1_I12C

.rodata.F1_I12D
                0x001211c8        0xc
 .rodata.F1_I12D
                0x001211c8        0xc bm_f1all.o
                0x001211c8                F1_I12D

.rodata.F1_I12E
                0x001211d4        0xc
 .rodata.F1_I12E
                0x001211d4        0xc bm_f1all.o
                0x001211d4                F1_I12E

.rodata.F1_I165
                0x001211e0        0xc
 .rodata.F1_I165
                0x001211e0        0xc bm_f1all.o
                0x001211e0                F1_I165

.rodata.F1_I166
                0x001211ec        0xc
 .rodata.F1_I166
                0x001211ec        0xc bm_f1all.o
                0x001211ec                F1_I166

.rodata.F1_I167
                0x001211f8        0xc
 .rodata.F1_I167
                0x001211f8        0xc bm_f1all.o
                0x001211f8                F1_I167

.rodata.F1_I168
                0x00121204        0xc
 .rodata.F1_I168
                0x00121204        0xc bm_f1all.o
                0x00121204                F1_I168

.rodata.F1_I169
                0x00121210        0xc
 .rodata.F1_I169
                0x00121210        0xc bm_f1all.o
                0x00121210                F1_I169

.rodata.F1_I13F
                0x0012121c        0xc
 .rodata.F1_I13F
                0x0012121c        0xc bm_f1all.o
                0x0012121c                F1_I13F

.rodata.F1_I16A
                0x00121228        0xc
 .rodata.F1_I16A
                0x00121228        0xc bm_f1all.o
                0x00121228                F1_I16A

.rodata.F1_I16B
                0x00121234        0xc
 .rodata.F1_I16B
                0x00121234        0xc bm_f1all.o
                0x00121234                F1_I16B

.rodata.F1_I16C
                0x00121240        0xc
 .rodata.F1_I16C
                0x00121240        0xc bm_f1all.o
                0x00121240                F1_I16C

.rodata.F1_I16D
                0x0012124c        0xc
 .rodata.F1_I16D
                0x0012124c        0xc bm_f1all.o
                0x0012124c                F1_I16D

.rodata.F1_I16E
                0x00121258        0xc
 .rodata.F1_I16E
                0x00121258        0xc bm_f1all.o
                0x00121258                F1_I16E

.rodata.F1_I16F
                0x00121264        0xc
 .rodata.F1_I16F
                0x00121264        0xc bm_f1all.o
                0x00121264                F1_I16F

.rodata.F1_I13A
                0x00121270        0xc
 .rodata.F1_I13A
                0x00121270        0xc bm_f1all.o
                0x00121270                F1_I13A

.rodata.F1_I13B
                0x0012127c        0xc
 .rodata.F1_I13B
                0x0012127c        0xc bm_f1all.o
                0x0012127c                F1_I13B

.rodata.F1_I13C
                0x00121288        0xc
 .rodata.F1_I13C
                0x00121288        0xc bm_f1all.o
                0x00121288                F1_I13C

.rodata.F1_I173
                0x00121294        0xc
 .rodata.F1_I173
                0x00121294        0xc bm_f1all.o
                0x00121294                F1_I173

.rodata.F1_I174
                0x001212a0        0xc
 .rodata.F1_I174
                0x001212a0        0xc bm_f1all.o
                0x001212a0                F1_I174

.rodata.F1_I130
                0x001212ac        0xc
 .rodata.F1_I130
                0x001212ac        0xc bm_f1all.o
                0x001212ac                F1_I130

.rodata.F1_I131
                0x001212b8        0xc
 .rodata.F1_I131
                0x001212b8        0xc bm_f1all.o
                0x001212b8                F1_I131

.rodata.F1_I132
                0x001212c4        0xc
 .rodata.F1_I132
                0x001212c4        0xc bm_f1all.o
                0x001212c4                F1_I132

.rodata.F1_I133
                0x001212d0        0xc
 .rodata.F1_I133
                0x001212d0        0xc bm_f1all.o
                0x001212d0                F1_I133

.rodata.F1_I134
                0x001212dc        0xc
 .rodata.F1_I134
                0x001212dc        0xc bm_f1all.o
                0x001212dc                F1_I134

.rodata.F1_I135
                0x001212e8        0xc
 .rodata.F1_I135
                0x001212e8        0xc bm_f1all.o
                0x001212e8                F1_I135

.rodata.F1_I136
                0x001212f4        0xc
 .rodata.F1_I136
                0x001212f4        0xc bm_f1all.o
                0x001212f4                F1_I136

.rodata.F1_I137
                0x00121300        0xc
 .rodata.F1_I137
                0x00121300        0xc bm_f1all.o
                0x00121300                F1_I137

.rodata.F1_I138
                0x0012130c        0xc
 .rodata.F1_I138
                0x0012130c        0xc bm_f1all.o
                0x0012130c                F1_I138

.rodata.F1_I139
                0x00121318        0xc
 .rodata.F1_I139
                0x00121318        0xc bm_f1all.o
                0x00121318                F1_I139

.rodata.F1_I1D5
                0x00121324        0xc
 .rodata.F1_I1D5
                0x00121324        0xc bm_f1eur.o
                0x00121324                F1_I1D5

.rodata.F1_I1D6
                0x00121330        0xc
 .rodata.F1_I1D6
                0x00121330        0xc bm_f1eur.o
                0x00121330                F1_I1D6

.rodata.F1_I1D7
                0x0012133c        0xc
 .rodata.F1_I1D7
                0x0012133c        0xc bm_f1eur.o
                0x0012133c                F1_I1D7

.rodata.F1_I1D8
                0x00121348        0xc
 .rodata.F1_I1D8
                0x00121348        0xc bm_f1eur.o
                0x00121348                F1_I1D8

.rodata.F1_I1F2
                0x00121354        0xc
 .rodata.F1_I1F2
                0x00121354        0xc bm_f1eur.o
                0x00121354                F1_I1F2

.rodata.F1_I1F3
                0x00121360        0xc
 .rodata.F1_I1F3
                0x00121360        0xc bm_f1eur.o
                0x00121360                F1_I1F3

.rodata.F1_I1F4
                0x0012136c        0xc
 .rodata.F1_I1F4
                0x0012136c        0xc bm_f1eur.o
                0x0012136c                F1_I1F4

.rodata.F1_I1F5
                0x00121378        0xc
 .rodata.F1_I1F5
                0x00121378        0xc bm_f1eur.o
                0x00121378                F1_I1F5

.rodata.F1_I1F6
                0x00121384        0xc
 .rodata.F1_I1F6
                0x00121384        0xc bm_f1eur.o
                0x00121384                F1_I1F6

.rodata.F1_I1F7
                0x00121390        0xc
 .rodata.F1_I1F7
                0x00121390        0xc bm_f1eur.o
                0x00121390                F1_I1F7

.rodata.F1_I1F8
                0x0012139c        0xc
 .rodata.F1_I1F8
                0x0012139c        0xc bm_f1eur.o
                0x0012139c                F1_I1F8

.rodata.F1_I1F9
                0x001213a8        0xc
 .rodata.F1_I1F9
                0x001213a8        0xc bm_f1eur.o
                0x001213a8                F1_I1F9

.rodata.F1_I1DA
                0x001213b4        0xc
 .rodata.F1_I1DA
                0x001213b4        0xc bm_f1eur.o
                0x001213b4                F1_I1DA

.rodata.F1_I1DB
                0x001213c0        0xc
 .rodata.F1_I1DB
                0x001213c0        0xc bm_f1eur.o
                0x001213c0                F1_I1DB

.rodata.F1_I1DC
                0x001213cc        0xc
 .rodata.F1_I1DC
                0x001213cc        0xc bm_f1eur.o
                0x001213cc                F1_I1DC

.rodata.F1_I1DD
                0x001213d8        0xc
 .rodata.F1_I1DD
                0x001213d8        0xc bm_f1eur.o
                0x001213d8                F1_I1DD

.rodata.F1_I1DE
                0x001213e4        0xc
 .rodata.F1_I1DE
                0x001213e4        0xc bm_f1eur.o
                0x001213e4                F1_I1DE

.rodata.F1_I1DF
                0x001213f0        0xc
 .rodata.F1_I1DF
                0x001213f0        0xc bm_f1eur.o
                0x001213f0                F1_I1DF

.rodata.F1_I1FA
                0x001213fc        0xc
 .rodata.F1_I1FA
                0x001213fc        0xc bm_f1eur.o
                0x001213fc                F1_I1FA

.rodata.F1_I1FB
                0x00121408        0xc
 .rodata.F1_I1FB
                0x00121408        0xc bm_f1eur.o
                0x00121408                F1_I1FB

.rodata.F1_I1FC
                0x00121414        0xc
 .rodata.F1_I1FC
                0x00121414        0xc bm_f1eur.o
                0x00121414                F1_I1FC

.rodata.F1_I1FD
                0x00121420        0xc
 .rodata.F1_I1FD
                0x00121420        0xc bm_f1eur.o
                0x00121420                F1_I1FD

.rodata.F1_I1FE
                0x0012142c        0xc
 .rodata.F1_I1FE
                0x0012142c        0xc bm_f1eur.o
                0x0012142c                F1_I1FE

.rodata.F1_I1FF
                0x00121438        0xc
 .rodata.F1_I1FF
                0x00121438        0xc bm_f1eur.o
                0x00121438                F1_I1FF

.rodata.F1_I1A3
                0x00121444        0xc
 .rodata.F1_I1A3
                0x00121444        0xc bm_f1eur.o
                0x00121444                F1_I1A3

.rodata.F1_I1AA
                0x00121450        0xc
 .rodata.F1_I1AA
                0x00121450        0xc bm_f1eur.o
                0x00121450                F1_I1AA

.rodata.F1_I1B1
                0x0012145c        0xc
 .rodata.F1_I1B1
                0x0012145c        0xc bm_f1eur.o
                0x0012145c                F1_I1B1

.rodata.F1_I1A6
                0x00121468        0xc
 .rodata.F1_I1A6
                0x00121468        0xc bm_f1eur.o
                0x00121468                F1_I1A6

.rodata.F1_I1AD
                0x00121474        0xc
 .rodata.F1_I1AD
                0x00121474        0xc bm_f1eur.o
                0x00121474                F1_I1AD

.rodata.F1_I1AB
                0x00121480        0xc
 .rodata.F1_I1AB
                0x00121480        0xc bm_f1eur.o
                0x00121480                F1_I1AB

.rodata.F1_I1AF
                0x0012148c        0xc
 .rodata.F1_I1AF
                0x0012148c        0xc bm_f1eur.o
                0x0012148c                F1_I1AF

.rodata.F1_I1C7
                0x00121498        0xc
 .rodata.F1_I1C7
                0x00121498        0xc bm_f1eur.o
                0x00121498                F1_I1C7

.rodata.F1_I1AE
                0x001214a4        0xc
 .rodata.F1_I1AE
                0x001214a4        0xc bm_f1eur.o
                0x001214a4                F1_I1AE

.rodata.F1_I1B5
                0x001214b0        0xc
 .rodata.F1_I1B5
                0x001214b0        0xc bm_f1eur.o
                0x001214b0                F1_I1B5

.rodata.F1_I1B6
                0x001214bc        0xc
 .rodata.F1_I1B6
                0x001214bc        0xc bm_f1eur.o
                0x001214bc                F1_I1B6

.rodata.F1_I1B4
                0x001214c8        0xc
 .rodata.F1_I1B4
                0x001214c8        0xc bm_f1eur.o
                0x001214c8                F1_I1B4

.rodata.F1_I1B7
                0x001214d4        0xc
 .rodata.F1_I1B7
                0x001214d4        0xc bm_f1eur.o
                0x001214d4                F1_I1B7

.rodata.F1_I1B8
                0x001214e0        0xc
 .rodata.F1_I1B8
                0x001214e0        0xc bm_f1eur.o
                0x001214e0                F1_I1B8

.rodata.F1_I1C5
                0x001214ec        0xc
 .rodata.F1_I1C5
                0x001214ec        0xc bm_f1eur.o
                0x001214ec                F1_I1C5

.rodata.F1_I1B9
                0x001214f8        0xc
 .rodata.F1_I1B9
                0x001214f8        0xc bm_f1eur.o
                0x001214f8                F1_I1B9

.rodata.F1_I1AC
                0x00121504        0xc
 .rodata.F1_I1AC
                0x00121504        0xc bm_f1eur.o
                0x00121504                F1_I1AC

.rodata.F1_I1BC
                0x00121510        0xc
 .rodata.F1_I1BC
                0x00121510        0xc bm_f1eur.o
                0x00121510                F1_I1BC

.rodata.F1_I1A1
                0x0012151c        0xc
 .rodata.F1_I1A1
                0x0012151c        0xc bm_f1eur.o
                0x0012151c                F1_I1A1

.rodata.F1_I1BE
                0x00121528        0xc
 .rodata.F1_I1BE
                0x00121528        0xc bm_f1eur.o
                0x00121528                F1_I1BE

.rodata.F1_I1C8
                0x00121534        0xc
 .rodata.F1_I1C8
                0x00121534        0xc bm_f1eur.o
                0x00121534                F1_I1C8

.rodata.F1_I1A4
                0x00121540        0xc
 .rodata.F1_I1A4
                0x00121540        0xc bm_f1eur.o
                0x00121540                F1_I1A4

.rodata.F1_I1C9
                0x0012154c        0xc
 .rodata.F1_I1C9
                0x0012154c        0xc bm_f1eur.o
                0x0012154c                F1_I1C9

.rodata.F1_I1BD
                0x00121558        0xc
 .rodata.F1_I1BD
                0x00121558        0xc bm_f1eur.o
                0x00121558                F1_I1BD

.rodata.F1_I1C0
                0x00121564        0xc
 .rodata.F1_I1C0
                0x00121564        0xc bm_f1eur.o
                0x00121564                F1_I1C0

.rodata.F1_I1C1
                0x00121570        0xc
 .rodata.F1_I1C1
                0x00121570        0xc bm_f1eur.o
                0x00121570                F1_I1C1

.rodata.F1_I1C2
                0x0012157c        0xc
 .rodata.F1_I1C2
                0x0012157c        0xc bm_f1eur.o
                0x0012157c                F1_I1C2

.rodata.F1_I1C3
                0x00121588        0xc
 .rodata.F1_I1C3
                0x00121588        0xc bm_f1eur.o
                0x00121588                F1_I1C3

.rodata.F1_I1C4
                0x00121594        0xc
 .rodata.F1_I1C4
                0x00121594        0xc bm_f1eur.o
                0x00121594                F1_I1C4

.rodata.F1_I1F0
                0x001215a0        0xc
 .rodata.F1_I1F0
                0x001215a0        0xc bm_f1eur.o
                0x001215a0                F1_I1F0

.rodata.F1_I1C6
                0x001215ac        0xc
 .rodata.F1_I1C6
                0x001215ac        0xc bm_f1eur.o
                0x001215ac                F1_I1C6

.rodata.F1_I1E0
                0x001215b8        0xc
 .rodata.F1_I1E0
                0x001215b8        0xc bm_f1eur.o
                0x001215b8                F1_I1E0

.rodata.F1_I1E1
                0x001215c4        0xc
 .rodata.F1_I1E1
                0x001215c4        0xc bm_f1eur.o
                0x001215c4                F1_I1E1

.rodata.F1_I1E2
                0x001215d0        0xc
 .rodata.F1_I1E2
                0x001215d0        0xc bm_f1eur.o
                0x001215d0                F1_I1E2

.rodata.F1_I1E3
                0x001215dc        0xc
 .rodata.F1_I1E3
                0x001215dc        0xc bm_f1eur.o
                0x001215dc                F1_I1E3

.rodata.F1_I1E4
                0x001215e8        0xc
 .rodata.F1_I1E4
                0x001215e8        0xc bm_f1eur.o
                0x001215e8                F1_I1E4

.rodata.F1_I1E5
                0x001215f4        0xc
 .rodata.F1_I1E5
                0x001215f4        0xc bm_f1eur.o
                0x001215f4                F1_I1E5

.rodata.F1_I1E6
                0x00121600        0xc
 .rodata.F1_I1E6
                0x00121600        0xc bm_f1eur.o
                0x00121600                F1_I1E6

.rodata.F1_I1E7
                0x0012160c        0xc
 .rodata.F1_I1E7
                0x0012160c        0xc bm_f1eur.o
                0x0012160c                F1_I1E7

.rodata.F1_I1E8
                0x00121618        0xc
 .rodata.F1_I1E8
                0x00121618        0xc bm_f1eur.o
                0x00121618                F1_I1E8

.rodata.F1_I1E9
                0x00121624        0xc
 .rodata.F1_I1E9
                0x00121624        0xc bm_f1eur.o
                0x00121624                F1_I1E9

.rodata.F1_I1CA
                0x00121630        0xc
 .rodata.F1_I1CA
                0x00121630        0xc bm_f1eur.o
                0x00121630                F1_I1CA

.rodata.F1_I1CB
                0x0012163c        0xc
 .rodata.F1_I1CB
                0x0012163c        0xc bm_f1eur.o
                0x0012163c                F1_I1CB

.rodata.F1_I1CC
                0x00121648        0xc
 .rodata.F1_I1CC
                0x00121648        0xc bm_f1eur.o
                0x00121648                F1_I1CC

.rodata.F1_I1CD
                0x00121654        0xc
 .rodata.F1_I1CD
                0x00121654        0xc bm_f1eur.o
                0x00121654                F1_I1CD

.rodata.F1_I1CE
                0x00121660        0xc
 .rodata.F1_I1CE
                0x00121660        0xc bm_f1eur.o
                0x00121660                F1_I1CE

.rodata.F1_I1CF
                0x0012166c        0xc
 .rodata.F1_I1CF
                0x0012166c        0xc bm_f1eur.o
                0x0012166c                F1_I1CF

.rodata.F1_I1EA
                0x00121678        0xc
 .rodata.F1_I1EA
                0x00121678        0xc bm_f1eur.o
                0x00121678                F1_I1EA

.rodata.F1_I1EB
                0x00121684        0xc
 .rodata.F1_I1EB
                0x00121684        0xc bm_f1eur.o
                0x00121684                F1_I1EB

.rodata.F1_I1EC
                0x00121690        0xc
 .rodata.F1_I1EC
                0x00121690        0xc bm_f1eur.o
                0x00121690                F1_I1EC

.rodata.F1_I1ED
                0x0012169c        0xc
 .rodata.F1_I1ED
                0x0012169c        0xc bm_f1eur.o
                0x0012169c                F1_I1ED

.rodata.F1_I1EE
                0x001216a8        0xc
 .rodata.F1_I1EE
                0x001216a8        0xc bm_f1eur.o
                0x001216a8                F1_I1EE

.rodata.F1_I1EF
                0x001216b4        0xc
 .rodata.F1_I1EF
                0x001216b4        0xc bm_f1eur.o
                0x001216b4                F1_I1EF

.rodata.F1_I1A7
                0x001216c0        0xc
 .rodata.F1_I1A7
                0x001216c0        0xc bm_f1eur.o
                0x001216c0                F1_I1A7

.rodata.F1_I1A2
                0x001216cc        0xc
 .rodata.F1_I1A2
                0x001216cc        0xc bm_f1eur.o
                0x001216cc                F1_I1A2

.rodata.F1_I1A8
                0x001216d8        0xc
 .rodata.F1_I1A8
                0x001216d8        0xc bm_f1eur.o
                0x001216d8                F1_I1A8

.rodata.F1_I1A9
                0x001216e4        0xc
 .rodata.F1_I1A9
                0x001216e4        0xc bm_f1eur.o
                0x001216e4                F1_I1A9

.rodata.F1_I1BA
                0x001216f0        0xc
 .rodata.F1_I1BA
                0x001216f0        0xc bm_f1eur.o
                0x001216f0                F1_I1BA

.rodata.F1_I1A5
                0x001216fc        0xc
 .rodata.F1_I1A5
                0x001216fc        0xc bm_f1eur.o
                0x001216fc                F1_I1A5

.rodata.F1_I1BB
                0x00121708        0xc
 .rodata.F1_I1BB
                0x00121708        0xc bm_f1eur.o
                0x00121708                F1_I1BB

.rodata.F1_I1B0
                0x00121714        0xc
 .rodata.F1_I1B0
                0x00121714        0xc bm_f1eur.o
                0x00121714                F1_I1B0

.rodata.fnt1_EUR
                0x00121720      0x404
 .rodata.fnt1_EUR
                0x00121720      0x404 bm_f1eur.o
                0x00121720                fnt1_EUR

.rodata.F1_I1B2
                0x00121b24        0xc
 .rodata.F1_I1B2
                0x00121b24        0xc bm_f1eur.o
                0x00121b24                F1_I1B2

.rodata.F1_I1B3
                0x00121b30        0xc
 .rodata.F1_I1B3
                0x00121b30        0xc bm_f1eur.o
                0x00121b30                F1_I1B3

.rodata.F1_I1BF
                0x00121b3c        0xc
 .rodata.F1_I1BF
                0x00121b3c        0xc bm_f1eur.o
                0x00121b3c                F1_I1BF

.rodata.F1_I1D9
                0x00121b48        0xc
 .rodata.F1_I1D9
                0x00121b48        0xc bm_f1eur.o
                0x00121b48                F1_I1D9

.rodata.F1_I1F1
                0x00121b54        0xc
 .rodata.F1_I1F1
                0x00121b54        0xc bm_f1eur.o
                0x00121b54                F1_I1F1

.rodata.F1_I1D0
                0x00121b60        0xc
 .rodata.F1_I1D0
                0x00121b60        0xc bm_f1eur.o
                0x00121b60                F1_I1D0

.rodata.F1_I1D1
                0x00121b6c        0xc
 .rodata.F1_I1D1
                0x00121b6c        0xc bm_f1eur.o
                0x00121b6c                F1_I1D1

.rodata.F1_I1D2
                0x00121b78        0xc
 .rodata.F1_I1D2
                0x00121b78        0xc bm_f1eur.o
                0x00121b78                F1_I1D2

.rodata.F1_I1D3
                0x00121b84        0xc
 .rodata.F1_I1D3
                0x00121b84        0xc bm_f1eur.o
                0x00121b84                F1_I1D3

.rodata.F1_I1D4
                0x00121b90        0xc
 .rodata.F1_I1D4
                0x00121b90        0xc bm_f1eur.o
                0x00121b90                F1_I1D4

.rodata.F1_I5EA
                0x00121b9c        0xc
 .rodata.F1_I5EA
                0x00121b9c        0xc bm_f1cyr.o
                0x00121b9c                F1_I5EA

.rodata.F1_I5EB
                0x00121ba8        0xc
 .rodata.F1_I5EB
                0x00121ba8        0xc bm_f1cyr.o
                0x00121ba8                F1_I5EB

.rodata.F1_I5EC
                0x00121bb4        0xc
 .rodata.F1_I5EC
                0x00121bb4        0xc bm_f1cyr.o
                0x00121bb4                F1_I5EC

.rodata.F1_I5ED
                0x00121bc0        0xc
 .rodata.F1_I5ED
                0x00121bc0        0xc bm_f1cyr.o
                0x00121bc0                F1_I5ED

.rodata.F1_I5EE
                0x00121bcc        0xc
 .rodata.F1_I5EE
                0x00121bcc        0xc bm_f1cyr.o
                0x00121bcc                F1_I5EE

.rodata.F1_I5EF
                0x00121bd8        0xc
 .rodata.F1_I5EF
                0x00121bd8        0xc bm_f1cyr.o
                0x00121bd8                F1_I5EF

.rodata.F1_I5AF
                0x00121be4        0xc
 .rodata.F1_I5AF
                0x00121be4        0xc bm_f1cyr.o
                0x00121be4                F1_I5AF

.rodata.F1_I5A6
                0x00121bf0        0xc
 .rodata.F1_I5A6
                0x00121bf0        0xc bm_f1cyr.o
                0x00121bf0                F1_I5A6

.rodata.F1_I5B0
                0x00121bfc        0xc
 .rodata.F1_I5B0
                0x00121bfc        0xc bm_f1cyr.o
                0x00121bfc                F1_I5B0

.rodata.F1_I5B1
                0x00121c08        0xc
 .rodata.F1_I5B1
                0x00121c08        0xc bm_f1cyr.o
                0x00121c08                F1_I5B1

.rodata.F1_I5B2
                0x00121c14        0xc
 .rodata.F1_I5B2
                0x00121c14        0xc bm_f1cyr.o
                0x00121c14                F1_I5B2

.rodata.F1_I5B3
                0x00121c20        0xc
 .rodata.F1_I5B3
                0x00121c20        0xc bm_f1cyr.o
                0x00121c20                F1_I5B3

.rodata.F1_I5B4
                0x00121c2c        0xc
 .rodata.F1_I5B4
                0x00121c2c        0xc bm_f1cyr.o
                0x00121c2c                F1_I5B4

.rodata.fnt1_CYR
                0x00121c38      0x404
 .rodata.fnt1_CYR
                0x00121c38      0x404 bm_f1cyr.o
                0x00121c38                fnt1_CYR

.rodata.F1_I5B6
                0x0012203c        0xc
 .rodata.F1_I5B6
                0x0012203c        0xc bm_f1cyr.o
                0x0012203c                F1_I5B6

.rodata.F1_I5D0
                0x00122048        0xc
 .rodata.F1_I5D0
                0x00122048        0xc bm_f1cyr.o
                0x00122048                F1_I5D0

.rodata.F1_I5D1
                0x00122054        0xc
 .rodata.F1_I5D1
                0x00122054        0xc bm_f1cyr.o
                0x00122054                F1_I5D1

.rodata.F1_I5D2
                0x00122060        0xc
 .rodata.F1_I5D2
                0x00122060        0xc bm_f1cyr.o
                0x00122060                F1_I5D2

.rodata.F1_I5D3
                0x0012206c        0xc
 .rodata.F1_I5D3
                0x0012206c        0xc bm_f1cyr.o
                0x0012206c                F1_I5D3

.rodata.F1_I5D4
                0x00122078        0xc
 .rodata.F1_I5D4
                0x00122078        0xc bm_f1cyr.o
                0x00122078                F1_I5D4

.rodata.F1_I5D5
                0x00122084        0xc
 .rodata.F1_I5D5
                0x00122084        0xc bm_f1cyr.o
                0x00122084                F1_I5D5

.rodata.F1_I5D6
                0x00122090        0xc
 .rodata.F1_I5D6
                0x00122090        0xc bm_f1cyr.o
                0x00122090                F1_I5D6

.rodata.F1_I5D7
                0x0012209c        0xc
 .rodata.F1_I5D7
                0x0012209c        0xc bm_f1cyr.o
                0x0012209c                F1_I5D7

.rodata.F1_I5D8
                0x001220a8        0xc
 .rodata.F1_I5D8
                0x001220a8        0xc bm_f1cyr.o
                0x001220a8                F1_I5D8

.rodata.F1_I5D9
                0x001220b4        0xc
 .rodata.F1_I5D9
                0x001220b4        0xc bm_f1cyr.o
                0x001220b4                F1_I5D9

.rodata.F1_I5C7
                0x001220c0        0xc
 .rodata.F1_I5C7
                0x001220c0        0xc bm_f1cyr.o
                0x001220c0                F1_I5C7

.rodata.F1_I5BB
                0x001220cc        0xc
 .rodata.F1_I5BB
                0x001220cc        0xc bm_f1cyr.o
                0x001220cc                F1_I5BB

.rodata.F1_I5C8
                0x001220d8        0xc
 .rodata.F1_I5C8
                0x001220d8        0xc bm_f1cyr.o
                0x001220d8                F1_I5C8

.rodata.F1_I5F6
                0x001220e4        0xc
 .rodata.F1_I5F6
                0x001220e4        0xc bm_f1cyr.o
                0x001220e4                F1_I5F6

.rodata.F1_I5C9
                0x001220f0        0xc
 .rodata.F1_I5C9
                0x001220f0        0xc bm_f1cyr.o
                0x001220f0                F1_I5C9

.rodata.F1_I5F8
                0x001220fc        0xc
 .rodata.F1_I5F8
                0x001220fc        0xc bm_f1cyr.o
                0x001220fc                F1_I5F8

.rodata.F1_I5F9
                0x00122108        0xc
 .rodata.F1_I5F9
                0x00122108        0xc bm_f1cyr.o
                0x00122108                F1_I5F9

.rodata.F1_I5DA
                0x00122114        0xc
 .rodata.F1_I5DA
                0x00122114        0xc bm_f1cyr.o
                0x00122114                F1_I5DA

.rodata.F1_I5DB
                0x00122120        0xc
 .rodata.F1_I5DB
                0x00122120        0xc bm_f1cyr.o
                0x00122120                F1_I5DB

.rodata.F1_I5DC
                0x0012212c        0xc
 .rodata.F1_I5DC
                0x0012212c        0xc bm_f1cyr.o
                0x0012212c                F1_I5DC

.rodata.F1_I5DD
                0x00122138        0xc
 .rodata.F1_I5DD
                0x00122138        0xc bm_f1cyr.o
                0x00122138                F1_I5DD

.rodata.F1_I5DE
                0x00122144        0xc
 .rodata.F1_I5DE
                0x00122144        0xc bm_f1cyr.o
                0x00122144                F1_I5DE

.rodata.F1_I5DF
                0x00122150        0xc
 .rodata.F1_I5DF
                0x00122150        0xc bm_f1cyr.o
                0x00122150                F1_I5DF

.rodata.F1_I5F1
                0x0012215c        0xc
 .rodata.F1_I5F1
                0x0012215c        0xc bm_f1cyr.o
                0x0012215c                F1_I5F1

.rodata.F1_I5FA
                0x00122168        0xc
 .rodata.F1_I5FA
                0x00122168        0xc bm_f1cyr.o
                0x00122168                F1_I5FA

.rodata.F1_I5B8
                0x00122174        0xc
 .rodata.F1_I5B8
                0x00122174        0xc bm_f1cyr.o
                0x00122174                F1_I5B8

.rodata.F1_I5B5
                0x00122180        0xc
 .rodata.F1_I5B5
                0x00122180        0xc bm_f1cyr.o
                0x00122180                F1_I5B5

.rodata.F1_I5BC
                0x0012218c        0xc
 .rodata.F1_I5BC
                0x0012218c        0xc bm_f1cyr.o
                0x0012218c                F1_I5BC

.rodata.F1_I5FF
                0x00122198        0xc
 .rodata.F1_I5FF
                0x00122198        0xc bm_f1cyr.o
                0x00122198                F1_I5FF

.rodata.F1_I5B7
                0x001221a4        0xc
 .rodata.F1_I5B7
                0x001221a4        0xc bm_f1cyr.o
                0x001221a4                F1_I5B7

.rodata.F1_I5BE
                0x001221b0        0xc
 .rodata.F1_I5BE
                0x001221b0        0xc bm_f1cyr.o
                0x001221b0                F1_I5BE

.rodata.F1_I5B9
                0x001221bc        0xc
 .rodata.F1_I5B9
                0x001221bc        0xc bm_f1cyr.o
                0x001221bc                F1_I5B9

.rodata.F1_I5BF
                0x001221c8        0xc
 .rodata.F1_I5BF
                0x001221c8        0xc bm_f1cyr.o
                0x001221c8                F1_I5BF

.rodata.F1_I5BA
                0x001221d4        0xc
 .rodata.F1_I5BA
                0x001221d4        0xc bm_f1cyr.o
                0x001221d4                F1_I5BA

.rodata.F1_I5AA
                0x001221e0        0xc
 .rodata.F1_I5AA
                0x001221e0        0xc bm_f1cyr.o
                0x001221e0                F1_I5AA

.rodata.F1_I5BD
                0x001221ec        0xc
 .rodata.F1_I5BD
                0x001221ec        0xc bm_f1cyr.o
                0x001221ec                F1_I5BD

.rodata.F1_I5A1
                0x001221f8        0xc
 .rodata.F1_I5A1
                0x001221f8        0xc bm_f1cyr.o
                0x001221f8                F1_I5A1

.rodata.F1_I5A8
                0x00122204        0xc
 .rodata.F1_I5A8
                0x00122204        0xc bm_f1cyr.o
                0x00122204                F1_I5A8

.rodata.F1_I5A9
                0x00122210        0xc
 .rodata.F1_I5A9
                0x00122210        0xc bm_f1cyr.o
                0x00122210                F1_I5A9

.rodata.F1_I5C0
                0x0012221c        0xc
 .rodata.F1_I5C0
                0x0012221c        0xc bm_f1cyr.o
                0x0012221c                F1_I5C0

.rodata.F1_I5C1
                0x00122228        0xc
 .rodata.F1_I5C1
                0x00122228        0xc bm_f1cyr.o
                0x00122228                F1_I5C1

.rodata.F1_I5C2
                0x00122234        0xc
 .rodata.F1_I5C2
                0x00122234        0xc bm_f1cyr.o
                0x00122234                F1_I5C2

.rodata.F1_I5C3
                0x00122240        0xc
 .rodata.F1_I5C3
                0x00122240        0xc bm_f1cyr.o
                0x00122240                F1_I5C3

.rodata.F1_I5C4
                0x0012224c        0xc
 .rodata.F1_I5C4
                0x0012224c        0xc bm_f1cyr.o
                0x0012224c                F1_I5C4

.rodata.F1_I5C5
                0x00122258        0xc
 .rodata.F1_I5C5
                0x00122258        0xc bm_f1cyr.o
                0x00122258                F1_I5C5

.rodata.F1_I5C6
                0x00122264        0xc
 .rodata.F1_I5C6
                0x00122264        0xc bm_f1cyr.o
                0x00122264                F1_I5C6

.rodata.F1_I5E0
                0x00122270        0xc
 .rodata.F1_I5E0
                0x00122270        0xc bm_f1cyr.o
                0x00122270                F1_I5E0

.rodata.F1_I5E1
                0x0012227c        0xc
 .rodata.F1_I5E1
                0x0012227c        0xc bm_f1cyr.o
                0x0012227c                F1_I5E1

.rodata.F1_I5E2
                0x00122288        0xc
 .rodata.F1_I5E2
                0x00122288        0xc bm_f1cyr.o
                0x00122288                F1_I5E2

.rodata.F1_I5E3
                0x00122294        0xc
 .rodata.F1_I5E3
                0x00122294        0xc bm_f1cyr.o
                0x00122294                F1_I5E3

.rodata.F1_I5E4
                0x001222a0        0xc
 .rodata.F1_I5E4
                0x001222a0        0xc bm_f1cyr.o
                0x001222a0                F1_I5E4

.rodata.F1_I5E5
                0x001222ac        0xc
 .rodata.F1_I5E5
                0x001222ac        0xc bm_f1cyr.o
                0x001222ac                F1_I5E5

.rodata.F1_I5E6
                0x001222b8        0xc
 .rodata.F1_I5E6
                0x001222b8        0xc bm_f1cyr.o
                0x001222b8                F1_I5E6

.rodata.F1_I5E7
                0x001222c4        0xc
 .rodata.F1_I5E7
                0x001222c4        0xc bm_f1cyr.o
                0x001222c4                F1_I5E7

.rodata.F1_I5E8
                0x001222d0        0xc
 .rodata.F1_I5E8
                0x001222d0        0xc bm_f1cyr.o
                0x001222d0                F1_I5E8

.rodata.F1_I5E9
                0x001222dc        0xc
 .rodata.F1_I5E9
                0x001222dc        0xc bm_f1cyr.o
                0x001222dc                F1_I5E9

.rodata.F1_I5CA
                0x001222e8        0xc
 .rodata.F1_I5CA
                0x001222e8        0xc bm_f1cyr.o
                0x001222e8                F1_I5CA

.rodata.F1_I5CB
                0x001222f4        0xc
 .rodata.F1_I5CB
                0x001222f4        0xc bm_f1cyr.o
                0x001222f4                F1_I5CB

.rodata.F1_I5CC
                0x00122300        0xc
 .rodata.F1_I5CC
                0x00122300        0xc bm_f1cyr.o
                0x00122300                F1_I5CC

.rodata.F1_I5CD
                0x0012230c        0xc
 .rodata.F1_I5CD
                0x0012230c        0xc bm_f1cyr.o
                0x0012230c                F1_I5CD

.rodata.F1_I5CE
                0x00122318        0xc
 .rodata.F1_I5CE
                0x00122318        0xc bm_f1cyr.o
                0x00122318                F1_I5CE

.rodata.F1_I5CF
                0x00122324        0xc
 .rodata.F1_I5CF
                0x00122324        0xc bm_f1cyr.o
                0x00122324                F1_I5CF

.rodata.s0054   0x00122330        0x8
 .rodata.s0054  0x00122330        0x8 strings.o
                0x00122330                s0054

.rodata.s0055   0x00122338       0x18
 .rodata.s0055  0x00122338       0x18 strings.o
                0x00122338                s0055

.rodata.s0056   0x00122350        0x4
 .rodata.s0056  0x00122350        0x4 strings.o
                0x00122350                s0056

.rodata.s0057   0x00122354        0x4
 .rodata.s0057  0x00122354        0x4 strings.o
                0x00122354                s0057

.rodata.s0058   0x00122358        0x4
 .rodata.s0058  0x00122358        0x4 strings.o
                0x00122358                s0058

.rodata.s0059   0x0012235c        0x4
 .rodata.s0059  0x0012235c        0x4 strings.o
                0x0012235c                s0059

.rodata.s0005   0x00122360       0x14
 .rodata.s0005  0x00122360       0x14 strings.o
                0x00122360                s0005

.rodata.s0004   0x00122374       0x10
 .rodata.s0004  0x00122374       0x10 strings.o
                0x00122374                s0004

.rodata.s0006   0x00122384        0xc
 .rodata.s0006  0x00122384        0xc strings.o
                0x00122384                s0006

.rodata.TextString
                0x00122390        0x8
 .rodata.TextString
                0x00122390        0x8 strings.o
                0x00122390                TextString

.rodata.s0007   0x00122398        0x8
 .rodata.s0007  0x00122398        0x8 strings.o
                0x00122398                s0007

.rodata.s0090   0x001223a0        0x8
 .rodata.s0090  0x001223a0        0x8 strings.o
                0x001223a0                s0090

.rodata.s0091   0x001223a8        0x8
 .rodata.s0091  0x001223a8        0x8 strings.o
                0x001223a8                s0091

.rodata.s0092   0x001223b0        0x8
 .rodata.s0092  0x001223b0        0x8 strings.o
                0x001223b0                s0092

.rodata.s0093   0x001223b8        0x8
 .rodata.s0093  0x001223b8        0x8 strings.o
                0x001223b8                s0093

.rodata.s0120   0x001223c0        0x8
 .rodata.s0120  0x001223c0        0x8 strings.o
                0x001223c0                s0120

.rodata.s0121   0x001223c8       0x10
 .rodata.s0121  0x001223c8       0x10 strings.o
                0x001223c8                s0121

.rodata.s0122   0x001223d8        0x8
 .rodata.s0122  0x001223d8        0x8 strings.o
                0x001223d8                s0122

.rodata.s0123   0x001223e0       0x10
 .rodata.s0123  0x001223e0       0x10 strings.o
                0x001223e0                s0123

.rodata.s0124   0x001223f0        0x4
 .rodata.s0124  0x001223f0        0x4 strings.o
                0x001223f0                s0124

.rodata.s0125   0x001223f4        0x4
 .rodata.s0125  0x001223f4        0x4 strings.o
                0x001223f4                s0125

.rodata.s0126   0x001223f8        0xc
 .rodata.s0126  0x001223f8        0xc strings.o
                0x001223f8                s0126

.rodata.s0127   0x00122404       0x14
 .rodata.s0127  0x00122404       0x14 strings.o
                0x00122404                s0127

.rodata.s0128   0x00122418        0x8
 .rodata.s0128  0x00122418        0x8 strings.o
                0x00122418                s0128

.rodata.s0129   0x00122420        0x4
 .rodata.s0129  0x00122420        0x4 strings.o
                0x00122420                s0129

.rodata.s0076   0x00122424        0xc
 .rodata.s0076  0x00122424        0xc strings.o
                0x00122424                s0076

.rodata.s0077   0x00122430       0x1c
 .rodata.s0077  0x00122430       0x1c strings.o
                0x00122430                s0077

.rodata.s0078   0x0012244c       0x14
 .rodata.s0078  0x0012244c       0x14 strings.o
                0x0012244c                s0078

.rodata.s0008   0x00122460        0x8
 .rodata.s0008  0x00122460        0x8 strings.o
                0x00122460                s0008

.rodata.s0079   0x00122468       0x10
 .rodata.s0079  0x00122468       0x10 strings.o
                0x00122468                s0079

.rodata.s0160   0x00122478        0xc
 .rodata.s0160  0x00122478        0xc strings.o
                0x00122478                s0160

.rodata.s0161   0x00122484        0x4
 .rodata.s0161  0x00122484        0x4 strings.o
                0x00122484                s0161

.rodata.s0162   0x00122488        0x4
 .rodata.s0162  0x00122488        0x4 strings.o
                0x00122488                s0162

.rodata.s0163   0x0012248c        0xc
 .rodata.s0163  0x0012248c        0xc strings.o
                0x0012248c                s0163

.rodata.s0164   0x00122498        0x4
 .rodata.s0164  0x00122498        0x4 strings.o
                0x00122498                s0164

.rodata.s0165   0x0012249c        0xc
 .rodata.s0165  0x0012249c        0xc strings.o
                0x0012249c                s0165

.rodata.s0166   0x001224a8        0x8
 .rodata.s0166  0x001224a8        0x8 strings.o
                0x001224a8                s0166

.rodata.s0167   0x001224b0       0x18
 .rodata.s0167  0x001224b0       0x18 strings.o
                0x001224b0                s0167

.rodata.s0168   0x001224c8        0x4
 .rodata.s0168  0x001224c8        0x4 strings.o
                0x001224c8                s0168

.rodata.s0169   0x001224cc        0x4
 .rodata.s0169  0x001224cc        0x4 strings.o
                0x001224cc                s0169

.rodata.s0095   0x001224d0        0xc
 .rodata.s0095  0x001224d0        0xc strings.o
                0x001224d0                s0095

.rodata.s0096   0x001224dc        0xc
 .rodata.s0096  0x001224dc        0xc strings.o
                0x001224dc                s0096

.rodata.s0021   0x001224e8        0x8
 .rodata.s0021  0x001224e8        0x8 strings.o
                0x001224e8                s0021

.rodata.s0097   0x001224f0        0x4
 .rodata.s0097  0x001224f0        0x4 strings.o
                0x001224f0                s0097

.rodata.s0023   0x001224f4       0x10
 .rodata.s0023  0x001224f4       0x10 strings.o
                0x001224f4                s0023

.rodata.s0098   0x00122504        0x8
 .rodata.s0098  0x00122504        0x8 strings.o
                0x00122504                s0098

.rodata.s0025   0x0012250c        0x8
 .rodata.s0025  0x0012250c        0x8 strings.o
                0x0012250c                s0025

.rodata.s0099   0x00122514        0x8
 .rodata.s0099  0x00122514        0x8 strings.o
                0x00122514                s0099

.rodata.s0027   0x0012251c        0x4
 .rodata.s0027  0x0012251c        0x4 strings.o
                0x0012251c                s0027

.rodata.s0028   0x00122520        0x8
 .rodata.s0028  0x00122520        0x8 strings.o
                0x00122520                s0028

.rodata.s0100   0x00122528        0x4
 .rodata.s0100  0x00122528        0x4 strings.o
                0x00122528                s0100

.rodata.s0060   0x0012252c        0x4
 .rodata.s0060  0x0012252c        0x4 strings.o
                0x0012252c                s0060

.rodata.s0061   0x00122530        0x8
 .rodata.s0061  0x00122530        0x8 strings.o
                0x00122530                s0061

.rodata.s0062   0x00122538        0xc
 .rodata.s0062  0x00122538        0xc strings.o
                0x00122538                s0062

.rodata.s0063   0x00122544        0x4
 .rodata.s0063  0x00122544        0x4 strings.o
                0x00122544                s0063

.rodata.s0094   0x00122548        0xc
 .rodata.s0094  0x00122548        0xc strings.o
                0x00122548                s0094

.rodata.s0065   0x00122554        0x4
 .rodata.s0065  0x00122554        0x4 strings.o
                0x00122554                s0065

.rodata.s0066   0x00122558       0x18
 .rodata.s0066  0x00122558       0x18 strings.o
                0x00122558                s0066

.rodata.s0067   0x00122570       0x14
 .rodata.s0067  0x00122570       0x14 strings.o
                0x00122570                s0067

.rodata.s0068   0x00122584       0x14
 .rodata.s0068  0x00122584       0x14 strings.o
                0x00122584                s0068

.rodata.s0069   0x00122598        0x4
 .rodata.s0069  0x00122598        0x4 strings.o
                0x00122598                s0069

.rodata.s0002   0x0012259c       0x10
 .rodata.s0002  0x0012259c       0x10 strings.o
                0x0012259c                s0002

.rodata.s0026   0x001225ac       0x14
 .rodata.s0026  0x001225ac       0x14 strings.o
                0x001225ac                s0026

.rodata.s0003   0x001225c0        0x8
 .rodata.s0003  0x001225c0        0x8 strings.o
                0x001225c0                s0003

.rodata.s0130   0x001225c8        0xc
 .rodata.s0130  0x001225c8        0xc strings.o
                0x001225c8                s0130

.rodata.s0131   0x001225d4       0x10
 .rodata.s0131  0x001225d4       0x10 strings.o
                0x001225d4                s0131

.rodata.s0132   0x001225e4       0x1c
 .rodata.s0132  0x001225e4       0x1c strings.o
                0x001225e4                s0132

.rodata.s0133   0x00122600       0x18
 .rodata.s0133  0x00122600       0x18 strings.o
                0x00122600                s0133

.rodata.s0134   0x00122618       0x1c
 .rodata.s0134  0x00122618       0x1c strings.o
                0x00122618                s0134

.rodata.s0135   0x00122634       0x18
 .rodata.s0135  0x00122634       0x18 strings.o
                0x00122634                s0135

.rodata.s0136   0x0012264c        0x8
 .rodata.s0136  0x0012264c        0x8 strings.o
                0x0012264c                s0136

.rodata.s0137   0x00122654       0x10
 .rodata.s0137  0x00122654       0x10 strings.o
                0x00122654                s0137

.rodata.s0138   0x00122664        0x4
 .rodata.s0138  0x00122664        0x4 strings.o
                0x00122664                s0138

.rodata.s0139   0x00122668        0x4
 .rodata.s0139  0x00122668        0x4 strings.o
                0x00122668                s0139

.rodata.s0020   0x0012266c        0x8
 .rodata.s0020  0x0012266c        0x8 strings.o
                0x0012266c                s0020

.rodata.s0022   0x00122674        0x8
 .rodata.s0022  0x00122674        0x8 strings.o
                0x00122674                s0022

.rodata.s0170   0x0012267c        0x4
 .rodata.s0170  0x0012267c        0x4 strings.o
                0x0012267c                s0170

.rodata.s0171   0x00122680        0x4
 .rodata.s0171  0x00122680        0x4 strings.o
                0x00122680                s0171

.rodata.s0172   0x00122684        0x8
 .rodata.s0172  0x00122684        0x8 strings.o
                0x00122684                s0172

.rodata.s0173   0x0012268c        0x8
 .rodata.s0173  0x0012268c        0x8 strings.o
                0x0012268c                s0173

.rodata.s0174   0x00122694        0xc
 .rodata.s0174  0x00122694        0xc strings.o
                0x00122694                s0174

.rodata.s0175   0x001226a0        0x8
 .rodata.s0175  0x001226a0        0x8 strings.o
                0x001226a0                s0175

.rodata.s0176   0x001226a8        0x4
 .rodata.s0176  0x001226a8        0x4 strings.o
                0x001226a8                s0176

.rodata.s0177   0x001226ac        0x8
 .rodata.s0177  0x001226ac        0x8 strings.o
                0x001226ac                s0177

.rodata.s0178   0x001226b4        0x4
 .rodata.s0178  0x001226b4        0x4 strings.o
                0x001226b4                s0178

.rodata.s0179   0x001226b8        0x8
 .rodata.s0179  0x001226b8        0x8 strings.o
                0x001226b8                s0179

.rodata.s0084   0x001226c0        0x8
 .rodata.s0084  0x001226c0        0x8 strings.o
                0x001226c0                s0084

.rodata.s0031   0x001226c8       0x10
 .rodata.s0031  0x001226c8       0x10 strings.o
                0x001226c8                s0031

.rodata.s0032   0x001226d8        0x8
 .rodata.s0032  0x001226d8        0x8 strings.o
                0x001226d8                s0032

.rodata.s0085   0x001226e0        0x8
 .rodata.s0085  0x001226e0        0x8 strings.o
                0x001226e0                s0085

.rodata.s0034   0x001226e8       0x10
 .rodata.s0034  0x001226e8       0x10 strings.o
                0x001226e8                s0034

.rodata.s0035   0x001226f8        0x4
 .rodata.s0035  0x001226f8        0x4 strings.o
                0x001226f8                s0035

.rodata.s0036   0x001226fc       0x14
 .rodata.s0036  0x001226fc       0x14 strings.o
                0x001226fc                s0036

.rodata.s0037   0x00122710       0x10
 .rodata.s0037  0x00122710       0x10 strings.o
                0x00122710                s0037

.rodata.s0038   0x00122720       0x14
 .rodata.s0038  0x00122720       0x14 strings.o
                0x00122720                s0038

.rodata.s0087   0x00122734        0x8
 .rodata.s0087  0x00122734        0x8 strings.o
                0x00122734                s0087

.rodata.s0039   0x0012273c       0x1c
 .rodata.s0039  0x0012273c       0x1c strings.o
                0x0012273c                s0039

.rodata.s0070   0x00122758       0x14
 .rodata.s0070  0x00122758       0x14 strings.o
                0x00122758                s0070

.rodata.s0071   0x0012276c       0x10
 .rodata.s0071  0x0012276c       0x10 strings.o
                0x0012276c                s0071

.rodata.s0072   0x0012277c        0xc
 .rodata.s0072  0x0012277c        0xc strings.o
                0x0012277c                s0072

.rodata.s0073   0x00122788       0x10
 .rodata.s0073  0x00122788       0x10 strings.o
                0x00122788                s0073

.rodata.s0074   0x00122798        0x4
 .rodata.s0074  0x00122798        0x4 strings.o
                0x00122798                s0074

.rodata.s0101   0x0012279c        0x8
 .rodata.s0101  0x0012279c        0x8 strings.o
                0x0012279c                s0101

.rodata.s0102   0x001227a4        0x8
 .rodata.s0102  0x001227a4        0x8 strings.o
                0x001227a4                s0102

.rodata.s0103   0x001227ac        0xc
 .rodata.s0103  0x001227ac        0xc strings.o
                0x001227ac                s0103

.rodata.s0104   0x001227b8        0x8
 .rodata.s0104  0x001227b8        0x8 strings.o
                0x001227b8                s0104

.rodata.s0105   0x001227c0        0x4
 .rodata.s0105  0x001227c0        0x4 strings.o
                0x001227c0                s0105

.rodata.s0106   0x001227c4        0x8
 .rodata.s0106  0x001227c4        0x8 strings.o
                0x001227c4                s0106

.rodata.s0107   0x001227cc       0x18
 .rodata.s0107  0x001227cc       0x18 strings.o
                0x001227cc                s0107

.rodata.s0108   0x001227e4       0x18
 .rodata.s0108  0x001227e4       0x18 strings.o
                0x001227e4                s0108

.rodata.s0109   0x001227fc       0x18
 .rodata.s0109  0x001227fc       0x18 strings.o
                0x001227fc                s0109

.rodata.s0140   0x00122814        0x4
 .rodata.s0140  0x00122814        0x4 strings.o
                0x00122814                s0140

.rodata.s0141   0x00122818        0x4
 .rodata.s0141  0x00122818        0x4 strings.o
                0x00122818                s0141

.rodata.s0142   0x0012281c        0x8
 .rodata.s0142  0x0012281c        0x8 strings.o
                0x0012281c                s0142

.rodata.s0143   0x00122824        0x8
 .rodata.s0143  0x00122824        0x8 strings.o
                0x00122824                s0143

.rodata.s0144   0x0012282c        0x4
 .rodata.s0144  0x0012282c        0x4 strings.o
                0x0012282c                s0144

.rodata.s0145   0x00122830        0x4
 .rodata.s0145  0x00122830        0x4 strings.o
                0x00122830                s0145

.rodata.s0146   0x00122834       0x10
 .rodata.s0146  0x00122834       0x10 strings.o
                0x00122834                s0146

.rodata.s0147   0x00122844        0xc
 .rodata.s0147  0x00122844        0xc strings.o
                0x00122844                s0147

.rodata.s0148   0x00122850        0x4
 .rodata.s0148  0x00122850        0x4 strings.o
                0x00122850                s0148

.rodata.s0149   0x00122854        0x8
 .rodata.s0149  0x00122854        0x8 strings.o
                0x00122854                s0149

.rodata.s0086   0x0012285c        0x8
 .rodata.s0086  0x0012285c        0x8 strings.o
                0x0012285c                s0086

.rodata.Language00
                0x00122864      0x2dc
 .rodata.Language00
                0x00122864      0x2dc strings.o
                0x00122864                Language00

.rodata.s0000   0x00122b40        0x4
 .rodata.s0000  0x00122b40        0x4 strings.o
                0x00122b40                s0000

.rodata.s0001   0x00122b44       0x10
 .rodata.s0001  0x00122b44       0x10 strings.o
                0x00122b44                s0001

.rodata.s0088   0x00122b54        0x8
 .rodata.s0088  0x00122b54        0x8 strings.o
                0x00122b54                s0088

.rodata.s0075   0x00122b5c        0xc
 .rodata.s0075  0x00122b5c        0xc strings.o
                0x00122b5c                s0075

.rodata.s0089   0x00122b68        0x8
 .rodata.s0089  0x00122b68        0x8 strings.o
                0x00122b68                s0089

.rodata.s0180   0x00122b70        0x4
 .rodata.s0180  0x00122b70        0x4 strings.o
                0x00122b70                s0180

.rodata.s0181   0x00122b74       0x10
 .rodata.s0181  0x00122b74       0x10 strings.o
                0x00122b74                s0181

.rodata.s0182   0x00122b84        0x4
 .rodata.s0182  0x00122b84        0x4 strings.o
                0x00122b84                s0182

.rodata.s0016   0x00122b88        0xc
 .rodata.s0016  0x00122b88        0xc strings.o
                0x00122b88                s0016

.rodata.s0009   0x00122b94        0x8
 .rodata.s0009  0x00122b94        0x8 strings.o
                0x00122b94                s0009

.rodata.s0029   0x00122b9c        0xc
 .rodata.s0029  0x00122b9c        0xc strings.o
                0x00122b9c                s0029

.rodata.s0040   0x00122ba8       0x10
 .rodata.s0040  0x00122ba8       0x10 strings.o
                0x00122ba8                s0040

.rodata.s0041   0x00122bb8       0x14
 .rodata.s0041  0x00122bb8       0x14 strings.o
                0x00122bb8                s0041

.rodata.s0042   0x00122bcc        0xc
 .rodata.s0042  0x00122bcc        0xc strings.o
                0x00122bcc                s0042

.rodata.s0043   0x00122bd8        0xc
 .rodata.s0043  0x00122bd8        0xc strings.o
                0x00122bd8                s0043

.rodata.s0044   0x00122be4       0x10
 .rodata.s0044  0x00122be4       0x10 strings.o
                0x00122be4                s0044

.rodata.s0045   0x00122bf4       0x10
 .rodata.s0045  0x00122bf4       0x10 strings.o
                0x00122bf4                s0045

.rodata.s0046   0x00122c04       0x10
 .rodata.s0046  0x00122c04       0x10 strings.o
                0x00122c04                s0046

.rodata.s0047   0x00122c14        0xc
 .rodata.s0047  0x00122c14        0xc strings.o
                0x00122c14                s0047

.rodata.s0048   0x00122c20       0x10
 .rodata.s0048  0x00122c20       0x10 strings.o
                0x00122c20                s0048

.rodata.s0049   0x00122c30       0x10
 .rodata.s0049  0x00122c30       0x10 strings.o
                0x00122c30                s0049

.rodata.s0080   0x00122c40        0xc
 .rodata.s0080  0x00122c40        0xc strings.o
                0x00122c40                s0080

.rodata.s0081   0x00122c4c       0x10
 .rodata.s0081  0x00122c4c       0x10 strings.o
                0x00122c4c                s0081

.rodata.s0082   0x00122c5c        0x4
 .rodata.s0082  0x00122c5c        0x4 strings.o
                0x00122c5c                s0082

.rodata.s0083   0x00122c60        0x4
 .rodata.s0083  0x00122c60        0x4 strings.o
                0x00122c60                s0083

.rodata.s0110   0x00122c64       0x18
 .rodata.s0110  0x00122c64       0x18 strings.o
                0x00122c64                s0110

.rodata.s0111   0x00122c7c        0x4
 .rodata.s0111  0x00122c7c        0x4 strings.o
                0x00122c7c                s0111

.rodata.s0112   0x00122c80        0xc
 .rodata.s0112  0x00122c80        0xc strings.o
                0x00122c80                s0112

.rodata.s0113   0x00122c8c        0x8
 .rodata.s0113  0x00122c8c        0x8 strings.o
                0x00122c8c                s0113

.rodata.s0114   0x00122c94        0x8
 .rodata.s0114  0x00122c94        0x8 strings.o
                0x00122c94                s0114

.rodata.s0115   0x00122c9c       0x14
 .rodata.s0115  0x00122c9c       0x14 strings.o
                0x00122c9c                s0115

.rodata.s0116   0x00122cb0       0x14
 .rodata.s0116  0x00122cb0       0x14 strings.o
                0x00122cb0                s0116

.rodata.s0117   0x00122cc4        0x8
 .rodata.s0117  0x00122cc4        0x8 strings.o
                0x00122cc4                s0117

.rodata.s0118   0x00122ccc        0x8
 .rodata.s0118  0x00122ccc        0x8 strings.o
                0x00122ccc                s0118

.rodata.s0119   0x00122cd4        0x4
 .rodata.s0119  0x00122cd4        0x4 strings.o
                0x00122cd4                s0119

.rodata.s0010   0x00122cd8        0xc
 .rodata.s0010  0x00122cd8        0xc strings.o
                0x00122cd8                s0010

.rodata.s0024   0x00122ce4       0x10
 .rodata.s0024  0x00122ce4       0x10 strings.o
                0x00122ce4                s0024

.rodata.s0064   0x00122cf4       0x14
 .rodata.s0064  0x00122cf4       0x14 strings.o
                0x00122cf4                s0064

.rodata.s0150   0x00122d08       0x14
 .rodata.s0150  0x00122d08       0x14 strings.o
                0x00122d08                s0150

.rodata.s0151   0x00122d1c       0x18
 .rodata.s0151  0x00122d1c       0x18 strings.o
                0x00122d1c                s0151

.rodata.s0152   0x00122d34       0x10
 .rodata.s0152  0x00122d34       0x10 strings.o
                0x00122d34                s0152

.rodata.s0153   0x00122d44        0x4
 .rodata.s0153  0x00122d44        0x4 strings.o
                0x00122d44                s0153

.rodata.s0154   0x00122d48       0x1c
 .rodata.s0154  0x00122d48       0x1c strings.o
                0x00122d48                s0154

.rodata.s0155   0x00122d64        0xc
 .rodata.s0155  0x00122d64        0xc strings.o
                0x00122d64                s0155

.rodata.s0156   0x00122d70        0x8
 .rodata.s0156  0x00122d70        0x8 strings.o
                0x00122d70                s0156

.rodata.s0157   0x00122d78        0xc
 .rodata.s0157  0x00122d78        0xc strings.o
                0x00122d78                s0157

.rodata.s0158   0x00122d84       0x14
 .rodata.s0158  0x00122d84       0x14 strings.o
                0x00122d84                s0158

.rodata.s0159   0x00122d98        0x8
 .rodata.s0159  0x00122d98        0x8 strings.o
                0x00122d98                s0159

.rodata.s0030   0x00122da0       0x10
 .rodata.s0030  0x00122da0       0x10 strings.o
                0x00122da0                s0030

.rodata.s0011   0x00122db0        0xc
 .rodata.s0011  0x00122db0        0xc strings.o
                0x00122db0                s0011

.rodata.s0012   0x00122dbc        0xc
 .rodata.s0012  0x00122dbc        0xc strings.o
                0x00122dbc                s0012

.rodata.s0013   0x00122dc8       0x10
 .rodata.s0013  0x00122dc8       0x10 strings.o
                0x00122dc8                s0013

.rodata.s0014   0x00122dd8        0xc
 .rodata.s0014  0x00122dd8        0xc strings.o
                0x00122dd8                s0014

.rodata.s0015   0x00122de4       0x10
 .rodata.s0015  0x00122de4       0x10 strings.o
                0x00122de4                s0015

.rodata.s0033   0x00122df4        0x8
 .rodata.s0033  0x00122df4        0x8 strings.o
                0x00122df4                s0033

.rodata.s0017   0x00122dfc        0x4
 .rodata.s0017  0x00122dfc        0x4 strings.o
                0x00122dfc                s0017

.rodata.s0018   0x00122e00        0x8
 .rodata.s0018  0x00122e00        0x8 strings.o
                0x00122e00                s0018

.rodata.s0019   0x00122e08        0x8
 .rodata.s0019  0x00122e08        0x8 strings.o
                0x00122e08                s0019

.rodata.s0050   0x00122e10       0x14
 .rodata.s0050  0x00122e10       0x14 strings.o
                0x00122e10                s0050

.rodata.s0051   0x00122e24        0x4
 .rodata.s0051  0x00122e24        0x4 strings.o
                0x00122e24                s0051

.rodata.s0052   0x00122e28        0x8
 .rodata.s0052  0x00122e28        0x8 strings.o
                0x00122e28                s0052

.rodata.s0053   0x00122e30       0x14
 .rodata.s0053  0x00122e30       0x14 strings.o
                0x00122e30                s0053

.rel.dyn        0x00122e44        0x0
 .rel.iplt      0x00000000        0x0 Cstartup.o

.ARM.exidx      0x00122e44        0x0
                0x00122e44                __exidx_start = .
 *(.ARM.exidx* .gnu.linkonce.armexidx.*)
                0x00122e44                __exidx_end = .
                0x00122e44                . = ALIGN (0x4)
                0x00122e44                _etext = .
                0x00122e44                PROVIDE (etext, .)

.data           0x00200000      0x944 load address 0x00122e44
                0x00200000                _data = .
 *(.vectRAM)
 .vectRAM       0x00200000       0x5c Cstartup.o
 *(.data)
 .data          0x0020005c       0x28 c:/gnuarm-471_eabi/bin/../lib/gcc/arm-none-eabi/4.7.1/../../../../arm-none-eabi/lib/thumb\libg.a(lib_a-strtod.o)
 .data          0x00200084        0x4 c:/gnuarm-471_eabi/bin/../lib/gcc/arm-none-eabi/4.7.1/../../../../arm-none-eabi/lib/thumb\libg.a(lib_a-ctype_.o)
                0x00200084                __ctype_ptr__
 .data          0x00200088      0x430 c:/gnuarm-471_eabi/bin/../lib/gcc/arm-none-eabi/4.7.1/../../../../arm-none-eabi/lib/thumb\libg.a(lib_a-impure.o)
                0x00200088                _impure_ptr
 .data          0x002004b8       0x7c c:/gnuarm-471_eabi/bin/../lib/gcc/arm-none-eabi/4.7.1/../../../../arm-none-eabi/lib/thumb\libg.a(lib_a-locale.o)
                0x002004d8                __mb_cur_max
 .data          0x00200534      0x410 c:/gnuarm-471_eabi/bin/../lib/gcc/arm-none-eabi/4.7.1/../../../../arm-none-eabi/lib/thumb\libg.a(lib_a-mallocr.o)
                0x00200534                __malloc_av_
                0x0020093c                __malloc_sbrk_base
                0x00200940                __malloc_trim_threshold
 *(.ramsection)

.igot.plt       0x00200944        0x0 load address 0x00123788
 .igot.plt      0x00000000        0x0 Cstartup.o

.data.ulCriticalNesting
                0x00200944        0x4 load address 0x00123788
 .data.ulCriticalNesting
                0x00200944        0x4 portISR.o
                0x00200944                ulCriticalNesting

.data.xFreeBytesRemaining
                0x00200948        0x4 load address 0x0012378c
 .data.xFreeBytesRemaining
                0x00200948        0x4 heap_2.o

.data.RollerTimer
                0x0020094c        0x1 load address 0x00123790
 .data.RollerTimer
                0x0020094c        0x1 functions.o
                0x0020094c                RollerTimer

.data.uxPreviousTask
                0x00200950        0x4 load address 0x00123794
 .data.uxPreviousTask
                0x00200950        0x4 tasks.o
                0x00200954                . = ALIGN (0x4)
                0x00200954                _edata = .
                0x00200954                PROVIDE (edata, .)

.bss            0x00200954     0x1810 load address 0x00123798
                0x00200954                __bss_start = .
                0x00200954                __bss_start__ = .
 *(.bss)
 .bss           0x00200954       0x34 c:/gnuarm-471_eabi/bin/../lib/gcc/arm-none-eabi/4.7.1/../../../../arm-none-eabi/lib/thumb\libg.a(lib_a-mallocr.o)
                0x00200954                __malloc_top_pad
                0x00200958                __malloc_current_mallinfo
                0x00200980                __malloc_max_sbrked_mem
                0x00200984                __malloc_max_total_mem
 *(COMMON)
 COMMON         0x00200988        0xc Cstartup_SAM7.o
                0x00200988                TWItaskhandle
                0x0020098c                POWERtaskhandle
                0x00200990                SetTime
 COMMON         0x00200994     0x16be functions.o
                0x00200994                SeqOpOn
                0x00200998                windowdepth
                0x00200999                ChamberOpenDelayTime
                0x0020099c                DiaFormation2Volts
                0x002009a0                DiaPreWarnVolts
                0x002009a4                Kniv1_IPClosed
                0x002009a8                BaleShapeVolts
                0x002009ac                NetPulsesPerLayer
                0x002009b0                OP8OnCount
                0x002009b4                DensityBaleVolts
                0x002009b8                NetPulseFrequency
                0x002009bc                leaf
                0x002009c0                SupplyVolts
                0x002009c4                PowerSwitchedOff
                0x002009c6                f6count
                0x002009c8                valuechanged
                0x002009ca                TargetNetPulses
                0x002009cc                startup
                0x002009d0                DiaTargetExtDisplayPercent
                0x002009d4                savecal
                0x002009d5                OP8OnDelayTime
                0x002009d6                BaleKickerStatus
                0x002009d8                BeakEngagePulseCount
                0x002009dc                EOC7_interrupt_count
                0x002009e0                target_bale_dia_reached_cont_beep
                0x002009e4                NetPulseCount
                0x002009e8                KnifePresVolts
                0x002009ec                AutoMan
                0x002009ed                OP8OffDelayTime
                0x002009f0                DensityFormation2Volts
                0x002009f4                TC1_millisec_count
                0x002009f8                ChamberOpenBeepDelay
                0x002009f9                escape
                0x002009fa                DelayTime
                0x002009fc                cal_speed_pulses
                0x00200a00                KeyOpOn
                0x00200a04                TC1_interrupt_count
                0x00200a08                DiaMaxVolts
                0x00200a0c                NetWarningOn
                0x00200a0d                DensityControlFunctionActive
                0x00200a10                KnifePresVoltsTotAccumMultSamples
                0x00200a14                DensityFormationVolts
                0x00200a18                NetMetresPulseCount
                0x00200a1c                selection
                0x00200a20                tl_target_count
                0x00200a22                OP5TurnedOnAfterBeakEngagePulsesEnabled
                0x00200a23                offtime
                0x00200a24                number
                0x00200a34                BaleDiaVolts
                0x00200a38                RunFactorStatus
                0x00200a3c                NetPulseCountAtLastCheck
                0x00200a40                RollEngageTurnedOnInManMode
                0x00200a41                looptime
                0x00200a42                RollEngageTurnedOn
                0x00200a43                OP7OffDelayTime
                0x00200a44                ChamberStatus
                0x00200a48                buzz_length
                0x00200a4c                swrel
                0x00200a4d                NetWarningDisabledWhileIP3OpenInAutoMode
                0x00200a4e                nextwindow
                0x00200a50                DiaCoreVolts
                0x00200a54                ContinueOnKeyRelease
                0x00200a58                DiaMinVolts
                0x00200a5c                OP2OnDelayTime
                0x00200a5d                reverttime
                0x00200a5e                end_chamber_open_delay_cont_beep
                0x00200a60                buffer
                0x002014e0                cont_beep
                0x002014e1                ChamberClosedDelayTime
                0x002014e2                IP4PulsesStoppedCount
                0x002014e3                newf6
                0x002014e4                adm
                0x00201ee4                DiaFormationVolts
                0x00201ee8                NetPulseCheckingEnabled
                0x00201ee9                OP2OffDelayTime
                0x00201eea                ChoppingKnives1WarningOn
                0x00201eec                DiaMinExtDisplayPercent
                0x00201ef0                NetPulseCountPrev
                0x00201ef4                f6time
                0x00201ef8                SavecalDelayWithinMenus
                0x00201efc                NewNetPulses
                0x00201f00                BaleShapeVoltsTotAccumMultSamples
                0x00201f04                AllTime
                0x00201f08                key
                0x00201f0c                StartAutoNet
                0x00201f10                PreviousWindow
                0x00201f90                DensityPresVolts
                0x00201f94                DisableChoppingKnivesWarnings
                0x00201f95                SavecalDelayOnMainDisplay
                0x00201f96                start_chamber_open_delay_cont_beep
                0x00201f98                ClockRam
                0x00201fa8                f0count
                0x00201fac                f0time
                0x00201fb0                Stage
                0x00201fb4                DiaTargetVolts
                0x00201fb8                DensityPresVoltsTotAccumMultSamples
                0x00201fbc                mcm
                0x00202004                BalerFullDelayTime
                0x00202008                DiaEngageVolts
                0x0020200c                off_length
                0x00202010                SavedRollEngageTurnedOn
                0x00202014                tl_confimation_delay
                0x00202018                DensityCoreVolts
                0x0020201c                deftime
                0x0020201d                DensityPressureTooHigh
                0x0020201e                SavedOP5TurnedOnAfterBeakEngagePulsesEnabled
                0x00202020                KeyOpOff
                0x00202024                SeqOpOff
                0x00202028                editing
                0x0020202c                NetMetresAppliedForCount
                0x00202030                window
                0x00202034                BaleDiameterStatusInManMode
                0x00202035                SequenceInProgress
                0x00202036                NettingStartBeepsDisabledWhileIP3OpenInAutoMode
                0x00202037                NetWarningDelayTime
                0x00202038                BaleDiaVoltsTotAccumMultSamples
                0x0020203c                BaleDiaExtDisplayPercent
                0x00202040                DrivingArrowBeepsDisabled
                0x00202041                BeepDelay
                0x00202042                buzz_count
                0x00202043                pre_warning_cont_beep
                0x00202044                knivesdelay
                0x00202048                TC1_count0
                0x0020204c                ptText
                0x00202050                stagecomp
                0x00202051                half_second
 COMMON         0x00202052        0x9 screens.o
                0x00202052                lastoutput
                0x00202053                SecondScreen
                0x00202054                keytime
                0x00202055                nextoutput
                0x00202056                KnifePresWasHigh
                0x00202057                OKWarnBox
                0x00202058                MWarn
                0x00202059                SelectedBaleStore
                0x0020205a                Screen100Page
 *fill*         0x0020205b        0x1 00
 COMMON         0x0020205c        0x8 serial.o
                0x0020205c                TxCOM0
                0x00202060                RxCOM0
 COMMON         0x00202064      0x100 c:/gnuarm-471_eabi/bin/../lib/gcc/arm-none-eabi/4.7.1/../../../../arm-none-eabi/lib/thumb\libg.a(lib_a-gdtoa-gethex.o)
                0x00202064                __hexdig

.bss.heap_ptr   0x00202164        0x4 load address 0x00124fa8
 .bss.heap_ptr  0x00202164        0x4 syscalls.o

.bss.BaleDiaVoltsAccumMultSamples.8078
                0x00202168        0x4 load address 0x00124fac
 .bss.BaleDiaVoltsAccumMultSamples.8078
                0x00202168        0x4 interrupts.o

.bss.count.8031
                0x0020216c        0x2 load address 0x00124fb0
 .bss.count.8031
                0x0020216c        0x2 interrupts.o

.bss.tlast.8020
                0x00202170        0x4 load address 0x00124fb4
 .bss.tlast.8020
                0x00202170        0x4 interrupts.o

.bss.time.8030  0x00202174        0x2 load address 0x00124fb8
 .bss.time.8030
                0x00202174        0x2 interrupts.o

.bss.tlast.8025
                0x00202178        0x4 load address 0x00124fbc
 .bss.tlast.8025
                0x00202178        0x4 interrupts.o

.bss.fnow.8006  0x0020217c        0x1 load address 0x00124fc0
 .bss.fnow.8006
                0x0020217c        0x1 interrupts.o

.bss.stime.8032
                0x00202180        0x4 load address 0x00124fc4
 .bss.stime.8032
                0x00202180        0x4 interrupts.o

.bss.tlast.8033
                0x00202184        0x4 load address 0x00124fc8
 .bss.tlast.8033
                0x00202184        0x4 interrupts.o

.bss.SampleCount.8077
                0x00202188        0x1 load address 0x00124fcc
 .bss.SampleCount.8077
                0x00202188        0x1 interrupts.o

.bss.stime.8004
                0x0020218c        0x4 load address 0x00124fd0
 .bss.stime.8004
                0x0020218c        0x4 interrupts.o

.bss.count.8003
                0x00202190        0x2 load address 0x00124fd4
 .bss.count.8003
                0x00202190        0x2 interrupts.o

.bss.fnow.8034  0x00202192        0x1 load address 0x00124fd6
 .bss.fnow.8034
                0x00202192        0x1 interrupts.o

.bss.time.8002  0x00202194        0x2 load address 0x00124fd8
 .bss.time.8002
                0x00202194        0x2 interrupts.o

.bss.DensityPresVoltsAccumMultSamples.8079
                0x00202198        0x4 load address 0x00124fdc
 .bss.DensityPresVoltsAccumMultSamples.8079
                0x00202198        0x4 interrupts.o

.bss.Vcount.8076
                0x0020219c        0x1 load address 0x00124fe0
 .bss.Vcount.8076
                0x0020219c        0x1 interrupts.o

.bss.tlast.8005
                0x002021a0        0x4 load address 0x00124fe4
 .bss.tlast.8005
                0x002021a0        0x4 interrupts.o

.bss.BaleShapeVoltsAccumMultSamples.8080
                0x002021a4        0x4 load address 0x00124fe8
 .bss.BaleShapeVoltsAccumMultSamples.8080
                0x002021a4        0x4 interrupts.o

.bss.KnifePresVoltsAccumMultSamples.8081
                0x002021a8        0x4 load address 0x00124fec
 .bss.KnifePresVoltsAccumMultSamples.8081
                0x002021a8        0x4 interrupts.o

.bss.xHeapHasBeenInitialised.4804
                0x002021ac        0x4 load address 0x00124ff0
 .bss.xHeapHasBeenInitialised.4804
                0x002021ac        0x4 heap_2.o

.bss.xHeap      0x002021b0     0x4000 load address 0x00124ff8
 .bss.xHeap     0x002021b0     0x4000 heap_2.o

.bss.xStart     0x002061b0        0x8 load address 0x00128ff8
 .bss.xStart    0x002061b0        0x8 heap_2.o

.bss.xEnd       0x002061b8        0x8 load address 0x00129000
 .bss.xEnd      0x002061b8        0x8 heap_2.o

.bss.dutyLast.9531
                0x002061c0        0x8 load address 0x00129008
 .bss.dutyLast.9531
                0x002061c0        0x8 functions.o

.bss.BaleShapeVoltsRollAvSample.9647
                0x002061c8        0x4 load address 0x00129010
 .bss.BaleShapeVoltsRollAvSample.9647
                0x002061c8        0x4 functions.o

.bss.Kniv1_IPOpenTime.9600
                0x002061cc        0x1 load address 0x00129014
 .bss.Kniv1_IPOpenTime.9600
                0x002061cc        0x1 functions.o

.bss.BaleDiaVoltsRollAvSample.9645
                0x002061d0        0x4 load address 0x00129018
 .bss.BaleDiaVoltsRollAvSample.9645
                0x002061d0        0x4 functions.o

.bss.status.9530
                0x002061d4        0x4 load address 0x0012901c
 .bss.status.9530
                0x002061d4        0x4 functions.o

.bss.LastNetPulseCount.9601
                0x002061d8        0x4 load address 0x00129020
 .bss.LastNetPulseCount.9601
                0x002061d8        0x4 functions.o

.bss.DensityPresVoltsRollAvSample.9646
                0x002061dc        0x4 load address 0x00129024
 .bss.DensityPresVoltsRollAvSample.9646
                0x002061dc        0x4 functions.o

.bss.KnifePresVoltsRollAvSample.9648
                0x002061e0        0x4 load address 0x00129028
 .bss.KnifePresVoltsRollAvSample.9648
                0x002061e0        0x4 functions.o

.bss.freqLast.9532
                0x002061e4       0x10 load address 0x0012902c
 .bss.freqLast.9532
                0x002061e4       0x10 functions.o

.bss.dstring.9436
                0x002061f4       0x20 load address 0x0012903c
 .bss.dstring.9436
                0x002061f4       0x20 display.o

.bss.len.9507   0x00206214        0x1 load address 0x0012905c
 .bss.len.9507  0x00206214        0x1 display.o

.bss.pos.9435   0x00206215        0x1 load address 0x0012905d
 .bss.pos.9435  0x00206215        0x1 display.o

.bss.sdata.9506
                0x00206218        0x4 load address 0x00129060
 .bss.sdata.9506
                0x00206218        0x4 display.o

.bss.NetOnKeyPressed.9330
                0x0020621c        0x1 load address 0x00129064
 .bss.NetOnKeyPressed.9330
                0x0020621c        0x1 screens.o

.bss.t_year.9674
                0x0020621e        0x2 load address 0x00129066
 .bss.t_year.9674
                0x0020621e        0x2 screens.o

.bss.t_month.9680
                0x00206220        0x1 load address 0x00129068
 .bss.t_month.9680
                0x00206220        0x1 screens.o

.bss.old_offtime.10017
                0x00206221        0x1 load address 0x00129069
 .bss.old_offtime.10017
                0x00206221        0x1 screens.o

.bss.page.9493  0x00206222        0x1 load address 0x0012906a
 .bss.page.9493
                0x00206222        0x1 screens.o

.bss.ArrowsCleared.9324
                0x00206223        0x1 load address 0x0012906b
 .bss.ArrowsCleared.9324
                0x00206223        0x1 screens.o

.bss.TempIntKPV.9331
                0x00206224        0x4 load address 0x0012906c
 .bss.TempIntKPV.9331
                0x00206224        0x4 screens.o

.bss.dig.9744   0x00206228        0x8 load address 0x00129070
 .bss.dig.9744  0x00206228        0x8 screens.o

.bss.TempFloatSV.9334
                0x00206230        0x4 load address 0x00129078
 .bss.TempFloatSV.9334
                0x00206230        0x4 screens.o

.bss.page.9910  0x00206234        0x1 load address 0x0012907c
 .bss.page.9910
                0x00206234        0x1 screens.o

.bss.FloorKeyPressed.9327
                0x00206235        0x1 load address 0x0012907d
 .bss.FloorKeyPressed.9327
                0x00206235        0x1 screens.o

.bss.CropFeedSel.9323
                0x00206236        0x1 load address 0x0012907e
 .bss.CropFeedSel.9323
                0x00206236        0x1 screens.o

.bss.swtim.9763
                0x00206237        0x1 load address 0x0012907f
 .bss.swtim.9763
                0x00206237        0x1 screens.o

.bss.t_hrs.9677
                0x00206238        0x1 load address 0x00129080
 .bss.t_hrs.9677
                0x00206238        0x1 screens.o

.bss.DrivingArrowsX3BeepDelay.9337
                0x00206239        0x1 load address 0x00129081
 .bss.DrivingArrowsX3BeepDelay.9337
                0x00206239        0x1 screens.o

.bss.BaleTotalFlashedOff.9339
                0x0020623a        0x1 load address 0x00129082
 .bss.BaleTotalFlashedOff.9339
                0x0020623a        0x1 screens.o

.bss.ResetLube.9325
                0x0020623b        0x1 load address 0x00129083
 .bss.ResetLube.9325
                0x0020623b        0x1 screens.o

.bss.FloorKeyPressedAndOutputTurnedOn.9329
                0x0020623c        0x1 load address 0x00129084
 .bss.FloorKeyPressedAndOutputTurnedOn.9329
                0x0020623c        0x1 screens.o

.bss.KnivKeyPressed.9326
                0x0020623d        0x1 load address 0x00129085
 .bss.KnivKeyPressed.9326
                0x0020623d        0x1 screens.o

.bss.TryingToSetBaleDiaBelowCore.9410
                0x0020623e        0x1 load address 0x00129086
 .bss.TryingToSetBaleDiaBelowCore.9410
                0x0020623e        0x1 screens.o

.bss.KnivKeyPressedAndOutputTurnedOn.9328
                0x0020623f        0x1 load address 0x00129087
 .bss.KnivKeyPressedAndOutputTurnedOn.9328
                0x0020623f        0x1 screens.o

.bss.DrivingArrowsX2BeepDelay.9336
                0x00206240        0x1 load address 0x00129088
 .bss.DrivingArrowsX2BeepDelay.9336
                0x00206240        0x1 screens.o

.bss.DrivingArrowsX4BeepDelay.9338
                0x00206241        0x1 load address 0x00129089
 .bss.DrivingArrowsX4BeepDelay.9338
                0x00206241        0x1 screens.o

.bss.TempIntDPV.9333
                0x00206244        0x4 load address 0x0012908c
 .bss.TempIntDPV.9333
                0x00206244        0x4 screens.o

.bss.TempIntTNM.9332
                0x00206248        0x4 load address 0x00129090
 .bss.TempIntTNM.9332
                0x00206248        0x4 screens.o

.bss.swtim.10004
                0x0020624c        0x1 load address 0x00129094
 .bss.swtim.10004
                0x0020624c        0x1 screens.o

.bss.swtim.9602
                0x0020624d        0x1 load address 0x00129095
 .bss.swtim.9602
                0x0020624d        0x1 screens.o

.bss.t_day.9679
                0x0020624e        0x1 load address 0x00129096
 .bss.t_day.9679
                0x0020624e        0x1 screens.o

.bss.ResetFactors.9968
                0x0020624f        0x1 load address 0x00129097
 .bss.ResetFactors.9968
                0x0020624f        0x1 screens.o

.bss.c.9998     0x00206250        0x1 load address 0x00129098
 .bss.c.9998    0x00206250        0x1 screens.o

.bss.page.9788  0x00206251        0x1 load address 0x00129099
 .bss.page.9788
                0x00206251        0x1 screens.o

.bss.page.9834  0x00206252        0x1 load address 0x0012909a
 .bss.page.9834
                0x00206252        0x1 screens.o

.bss.t_date.9678
                0x00206253        0x1 load address 0x0012909b
 .bss.t_date.9678
                0x00206253        0x1 screens.o

.bss.DrivingArrowsX1BeepDelay.9335
                0x00206254        0x1 load address 0x0012909c
 .bss.DrivingArrowsX1BeepDelay.9335
                0x00206254        0x1 screens.o

.bss.t_min.9676
                0x00206255        0x1 load address 0x0012909d
 .bss.t_min.9676
                0x00206255        0x1 screens.o

.bss.t_sec.9675
                0x00206256        0x1 load address 0x0012909e
 .bss.t_sec.9675
                0x00206256        0x1 screens.o

.bss.roll.9322  0x00206257        0x1 load address 0x0012909f
 .bss.roll.9322
                0x00206257        0x1 screens.o

.bss.uxTopReadyPriority
                0x00206258        0x4 load address 0x001290a0
 .bss.uxTopReadyPriority
                0x00206258        0x4 tasks.o

.bss.xTickCount
                0x0020625c        0x4 load address 0x001290a4
 .bss.xTickCount
                0x0020625c        0x4 tasks.o

.bss.pxReadyTasksLists
                0x00206260       0x64 load address 0x001290a8
 .bss.pxReadyTasksLists
                0x00206260       0x64 tasks.o

.bss.pxOverflowDelayedTaskList
                0x002062c4        0x4 load address 0x0012910c
 .bss.pxOverflowDelayedTaskList
                0x002062c4        0x4 tasks.o

.bss.xTracing   0x002062c8        0x4 load address 0x00129110
 .bss.xTracing  0x002062c8        0x4 tasks.o

.bss.pxDelayedTaskList
                0x002062cc        0x4 load address 0x00129114
 .bss.pxDelayedTaskList
                0x002062cc        0x4 tasks.o

.bss.xPendingReadyList
                0x002062d0       0x14 load address 0x00129118
 .bss.xPendingReadyList
                0x002062d0       0x14 tasks.o

.bss.xSchedulerRunning
                0x002062e4        0x4 load address 0x0012912c
 .bss.xSchedulerRunning
                0x002062e4        0x4 tasks.o

.bss.xMissedYield
                0x002062e8        0x4 load address 0x00129130
 .bss.xMissedYield
                0x002062e8        0x4 tasks.o

.bss.uxTaskNumber
                0x002062ec        0x4 load address 0x00129134
 .bss.uxTaskNumber
                0x002062ec        0x4 tasks.o

.bss.pcTraceBuffer
                0x002062f0        0x4 load address 0x00129138
 .bss.pcTraceBuffer
                0x002062f0        0x4 tasks.o

.bss.pxCurrentTCB
                0x002062f4        0x4 load address 0x0012913c
 .bss.pxCurrentTCB
                0x002062f4        0x4 tasks.o
                0x002062f4                pxCurrentTCB

.bss.pcStatusString
                0x002062f8       0x34 load address 0x00129140
 .bss.pcStatusString
                0x002062f8       0x34 tasks.o

.bss.xSuspendedTaskList
                0x0020632c       0x14 load address 0x00129174
 .bss.xSuspendedTaskList
                0x0020632c       0x14 tasks.o

.bss.uxCurrentNumberOfTasks
                0x00206340        0x4 load address 0x00129188
 .bss.uxCurrentNumberOfTasks
                0x00206340        0x4 tasks.o

.bss.xDelayedTaskList1
                0x00206344       0x14 load address 0x0012918c
 .bss.xDelayedTaskList1
                0x00206344       0x14 tasks.o

.bss.xDelayedTaskList2
                0x00206358       0x14 load address 0x001291a0
 .bss.xDelayedTaskList2
                0x00206358       0x14 tasks.o

.bss.uxSchedulerSuspended
                0x0020636c        0x4 load address 0x001291b4
 .bss.uxSchedulerSuspended
                0x0020636c        0x4 tasks.o

.bss.uxMissedTicks
                0x00206370        0x4 load address 0x001291b8
 .bss.uxMissedTicks
                0x00206370        0x4 tasks.o

.bss.pcTraceBufferEnd
                0x00206374        0x4 load address 0x001291bc
 .bss.pcTraceBufferEnd
                0x00206374        0x4 tasks.o

.bss.xNumOfOverflows
                0x00206378        0x4 load address 0x001291c0
 .bss.xNumOfOverflows
                0x00206378        0x4 tasks.o

.bss.uxTopUsedPriority
                0x0020637c        0x4 load address 0x001291c4
 .bss.uxTopUsedPriority
                0x0020637c        0x4 tasks.o

.bss.xPort      0x00206380        0x4 load address 0x001291c8
 .bss.xPort     0x00206380        0x4 comtest.o
                0x00206380                xPort
                0x00206384                . = ALIGN (0x4)
                0x00206384                __bss_end__ = .

.IRamNV         0x00206384      0x130 load address 0x001291cc
 *(.IRamNV)
 .IRamNV        0x00206384      0x130 functions.o
                0x00206384                pFac
                0x002064a4                pRun
                0x002064b4                . = ALIGN (0x4)
                0x002064b4                _end = .
                0x002064b4                PROVIDE (end, .)
                0x002064b4                . = ALIGN (0x4)

.int_data       0x00208000        0x0
 *(.internal_ram_top)
 .internal_ram_top
                0x00208000        0x0 Cstartup.o

.stab
 *(.stab)

.stabstr
 *(.stabstr)

.stab.excl
 *(.stab.excl)

.stab.exclstr
 *(.stab.exclstr)

.stab.index
 *(.stab.index)

.stab.indexstr
 *(.stab.indexstr)

.comment        0x00000000       0x11
 *(.comment)
 .comment       0x00000000       0x11 Cstartup_SAM7.o
                                 0x12 (size before relaxing)
 .comment       0x00000000       0x12 syscalls.o
 .comment       0x00000000       0x12 portISR.o
 .comment       0x00000000       0x12 interrupts.o
 .comment       0x00000000       0x12 main.o
 .comment       0x00000000       0x12 heap_2.o
 .comment       0x00000000       0x12 functions.o
 .comment       0x00000000       0x12 display.o
 .comment       0x00000000       0x12 screens.o
 .comment       0x00000000       0x12 tasks.o
 .comment       0x00000000       0x12 queue.o
 .comment       0x00000000       0x12 list.o
 .comment       0x00000000       0x12 port.o
 .comment       0x00000000       0x12 serial.o
 .comment       0x00000000       0x12 comtest.o
 .comment       0x00000000       0x12 TWI_task.o
 .comment       0x00000000       0x12 Operate.o
 .comment       0x00000000       0x12 Power.o
 .comment       0x00000000       0x12 bm_sym.o
 .comment       0x00000000       0x12 bm_num.o
 .comment       0x00000000       0x12 bm_f1all.o
 .comment       0x00000000       0x12 bm_f1eur.o
 .comment       0x00000000       0x12 bm_f1cyr.o
 .comment       0x00000000       0x12 strings.o
 .comment       0x00000000       0x12 c:/gnuarm-471_eabi/bin/../lib/gcc/arm-none-eabi/4.7.1/../../../../arm-none-eabi/lib/thumb\libg.a(lib_a-atoff.o)
 .comment       0x00000000       0x12 c:/gnuarm-471_eabi/bin/../lib/gcc/arm-none-eabi/4.7.1/../../../../arm-none-eabi/lib/thumb\libg.a(lib_a-atoi.o)
 .comment       0x00000000       0x12 c:/gnuarm-471_eabi/bin/../lib/gcc/arm-none-eabi/4.7.1/../../../../arm-none-eabi/lib/thumb\libg.a(lib_a-atol.o)
 .comment       0x00000000       0x12 c:/gnuarm-471_eabi/bin/../lib/gcc/arm-none-eabi/4.7.1/../../../../arm-none-eabi/lib/thumb\libg.a(lib_a-memcpy-stub.o)
 .comment       0x00000000       0x12 c:/gnuarm-471_eabi/bin/../lib/gcc/arm-none-eabi/4.7.1/../../../../arm-none-eabi/lib/thumb\libg.a(lib_a-memset.o)
 .comment       0x00000000       0x12 c:/gnuarm-471_eabi/bin/../lib/gcc/arm-none-eabi/4.7.1/../../../../arm-none-eabi/lib/thumb\libg.a(lib_a-sprintf.o)
 .comment       0x00000000       0x12 c:/gnuarm-471_eabi/bin/../lib/gcc/arm-none-eabi/4.7.1/../../../../arm-none-eabi/lib/thumb\libg.a(lib_a-strcat.o)
 .comment       0x00000000       0x12 c:/gnuarm-471_eabi/bin/../lib/gcc/arm-none-eabi/4.7.1/../../../../arm-none-eabi/lib/thumb\libg.a(lib_a-strcpy.o)
 .comment       0x00000000       0x12 c:/gnuarm-471_eabi/bin/../lib/gcc/arm-none-eabi/4.7.1/../../../../arm-none-eabi/lib/thumb\libg.a(lib_a-strlen.o)
 .comment       0x00000000       0x12 c:/gnuarm-471_eabi/bin/../lib/gcc/arm-none-eabi/4.7.1/../../../../arm-none-eabi/lib/thumb\libg.a(lib_a-strncpy.o)
 .comment       0x00000000       0x12 c:/gnuarm-471_eabi/bin/../lib/gcc/arm-none-eabi/4.7.1/../../../../arm-none-eabi/lib/thumb\libg.a(lib_a-strtod.o)
 .comment       0x00000000       0x12 c:/gnuarm-471_eabi/bin/../lib/gcc/arm-none-eabi/4.7.1/../../../../arm-none-eabi/lib/thumb\libg.a(lib_a-strtol.o)
 .comment       0x00000000       0x12 c:/gnuarm-471_eabi/bin/../lib/gcc/arm-none-eabi/4.7.1/../../../../arm-none-eabi/lib/thumb\libg.a(lib_a-svfprintf.o)
 .comment       0x00000000       0x12 c:/gnuarm-471_eabi/bin/../lib/gcc/arm-none-eabi/4.7.1/../../../../arm-none-eabi/lib/thumb\libg.a(lib_a-ctype_.o)
 .comment       0x00000000       0x12 c:/gnuarm-471_eabi/bin/../lib/gcc/arm-none-eabi/4.7.1/../../../../arm-none-eabi/lib/thumb\libg.a(lib_a-dtoa.o)
 .comment       0x00000000       0x12 c:/gnuarm-471_eabi/bin/../lib/gcc/arm-none-eabi/4.7.1/../../../../arm-none-eabi/lib/thumb\libg.a(lib_a-gdtoa-gethex.o)
 .comment       0x00000000       0x12 c:/gnuarm-471_eabi/bin/../lib/gcc/arm-none-eabi/4.7.1/../../../../arm-none-eabi/lib/thumb\libg.a(lib_a-gdtoa-hexnan.o)
 .comment       0x00000000       0x12 c:/gnuarm-471_eabi/bin/../lib/gcc/arm-none-eabi/4.7.1/../../../../arm-none-eabi/lib/thumb\libg.a(lib_a-impure.o)
 .comment       0x00000000       0x12 c:/gnuarm-471_eabi/bin/../lib/gcc/arm-none-eabi/4.7.1/../../../../arm-none-eabi/lib/thumb\libg.a(lib_a-locale.o)
 .comment       0x00000000       0x12 c:/gnuarm-471_eabi/bin/../lib/gcc/arm-none-eabi/4.7.1/../../../../arm-none-eabi/lib/thumb\libg.a(lib_a-mallocr.o)
 .comment       0x00000000       0x12 c:/gnuarm-471_eabi/bin/../lib/gcc/arm-none-eabi/4.7.1/../../../../arm-none-eabi/lib/thumb\libg.a(lib_a-memchr-stub.o)
 .comment       0x00000000       0x12 c:/gnuarm-471_eabi/bin/../lib/gcc/arm-none-eabi/4.7.1/../../../../arm-none-eabi/lib/thumb\libg.a(lib_a-mlock.o)
 .comment       0x00000000       0x12 c:/gnuarm-471_eabi/bin/../lib/gcc/arm-none-eabi/4.7.1/../../../../arm-none-eabi/lib/thumb\libg.a(lib_a-mprec.o)
 .comment       0x00000000       0x12 c:/gnuarm-471_eabi/bin/../lib/gcc/arm-none-eabi/4.7.1/../../../../arm-none-eabi/lib/thumb\libg.a(lib_a-s_fpclassify.o)
 .comment       0x00000000       0x12 c:/gnuarm-471_eabi/bin/../lib/gcc/arm-none-eabi/4.7.1/../../../../arm-none-eabi/lib/thumb\libg.a(lib_a-sf_nan.o)
 .comment       0x00000000       0x12 c:/gnuarm-471_eabi/bin/../lib/gcc/arm-none-eabi/4.7.1/../../../../arm-none-eabi/lib/thumb\libg.a(lib_a-strcmp.o)
 .comment       0x00000000       0x12 c:/gnuarm-471_eabi/bin/../lib/gcc/arm-none-eabi/4.7.1/../../../../arm-none-eabi/lib/thumb\libg.a(lib_a-strncmp.o)
 .comment       0x00000000       0x12 c:/gnuarm-471_eabi/bin/../lib/gcc/arm-none-eabi/4.7.1/../../../../arm-none-eabi/lib/thumb\libg.a(lib_a-svfiprintf.o)
 .comment       0x00000000       0x12 c:/gnuarm-471_eabi/bin/../lib/gcc/arm-none-eabi/4.7.1/../../../../arm-none-eabi/lib/thumb\libg.a(lib_a-callocr.o)
 .comment       0x00000000       0x12 c:/gnuarm-471_eabi/bin/../lib/gcc/arm-none-eabi/4.7.1/../../../../arm-none-eabi/lib/thumb\libg.a(lib_a-freer.o)
 .comment       0x00000000       0x12 c:/gnuarm-471_eabi/bin/../lib/gcc/arm-none-eabi/4.7.1/../../../../arm-none-eabi/lib/thumb\libg.a(lib_a-memmove.o)
 .comment       0x00000000       0x12 c:/gnuarm-471_eabi/bin/../lib/gcc/arm-none-eabi/4.7.1/../../../../arm-none-eabi/lib/thumb\libg.a(lib_a-reallocr.o)

.reset          0x00000000        0x0
 .reset         0x00000000        0x0 Cstartup.o

.ARM.attributes
                0x00000000       0x2d
 .ARM.attributes
                0x00000000       0x18 Cstartup.o
 .ARM.attributes
                0x00000018       0x32 Cstartup_SAM7.o
 .ARM.attributes
                0x0000004a       0x32 syscalls.o
 .ARM.attributes
                0x0000007c       0x32 portISR.o
 .ARM.attributes
                0x000000ae       0x32 interrupts.o
 .ARM.attributes
                0x000000e0       0x32 main.o
 .ARM.attributes
                0x00000112       0x32 heap_2.o
 .ARM.attributes
                0x00000144       0x32 functions.o
 .ARM.attributes
                0x00000176       0x32 display.o
 .ARM.attributes
                0x000001a8       0x32 screens.o
 .ARM.attributes
                0x000001da       0x32 tasks.o
 .ARM.attributes
                0x0000020c       0x32 queue.o
 .ARM.attributes
                0x0000023e       0x32 list.o
 .ARM.attributes
                0x00000270       0x32 port.o
 .ARM.attributes
                0x000002a2       0x32 serial.o
 .ARM.attributes
                0x000002d4       0x32 comtest.o
 .ARM.attributes
                0x00000306       0x32 TWI_task.o
 .ARM.attributes
                0x00000338       0x32 Operate.o
 .ARM.attributes
                0x0000036a       0x32 Power.o
 .ARM.attributes
                0x0000039c       0x32 bm_sym.o
 .ARM.attributes
                0x000003ce       0x32 bm_num.o
 .ARM.attributes
                0x00000400       0x32 bm_f1all.o
 .ARM.attributes
                0x00000432       0x32 bm_f1eur.o
 .ARM.attributes
                0x00000464       0x32 bm_f1cyr.o
 .ARM.attributes
                0x00000496       0x32 strings.o
 .ARM.attributes
                0x000004c8       0x1a c:/gnuarm-471_eabi/bin/../lib/gcc/arm-none-eabi/4.7.1/thumb\libgcc.a(_udivsi3.o)
 .ARM.attributes
                0x000004e2       0x1a c:/gnuarm-471_eabi/bin/../lib/gcc/arm-none-eabi/4.7.1/thumb\libgcc.a(_divsi3.o)
 .ARM.attributes
                0x000004fc       0x18 c:/gnuarm-471_eabi/bin/../lib/gcc/arm-none-eabi/4.7.1/thumb\libgcc.a(_dvmd_tls.o)
 .ARM.attributes
                0x00000514       0x1a c:/gnuarm-471_eabi/bin/../lib/gcc/arm-none-eabi/4.7.1/thumb\libgcc.a(_arm_addsubdf3.o)
 .ARM.attributes
                0x0000052e       0x1a c:/gnuarm-471_eabi/bin/../lib/gcc/arm-none-eabi/4.7.1/thumb\libgcc.a(_arm_muldivdf3.o)
 .ARM.attributes
                0x00000548       0x1a c:/gnuarm-471_eabi/bin/../lib/gcc/arm-none-eabi/4.7.1/thumb\libgcc.a(_arm_cmpdf2.o)
 .ARM.attributes
                0x00000562       0x1a c:/gnuarm-471_eabi/bin/../lib/gcc/arm-none-eabi/4.7.1/thumb\libgcc.a(_arm_fixunsdfsi.o)
 .ARM.attributes
                0x0000057c       0x1a c:/gnuarm-471_eabi/bin/../lib/gcc/arm-none-eabi/4.7.1/thumb\libgcc.a(_arm_truncdfsf2.o)
 .ARM.attributes
                0x00000596       0x1a c:/gnuarm-471_eabi/bin/../lib/gcc/arm-none-eabi/4.7.1/thumb\libgcc.a(_arm_addsubsf3.o)
 .ARM.attributes
                0x000005b0       0x1a c:/gnuarm-471_eabi/bin/../lib/gcc/arm-none-eabi/4.7.1/thumb\libgcc.a(_arm_muldivsf3.o)
 .ARM.attributes
                0x000005ca       0x1a c:/gnuarm-471_eabi/bin/../lib/gcc/arm-none-eabi/4.7.1/thumb\libgcc.a(_arm_cmpsf2.o)
 .ARM.attributes
                0x000005e4       0x1a c:/gnuarm-471_eabi/bin/../lib/gcc/arm-none-eabi/4.7.1/thumb\libgcc.a(_arm_fixunssfsi.o)
 .ARM.attributes
                0x000005fe       0x32 c:/gnuarm-471_eabi/bin/../lib/gcc/arm-none-eabi/4.7.1/../../../../arm-none-eabi/lib/thumb\libg.a(lib_a-atoff.o)
 .ARM.attributes
                0x00000630       0x32 c:/gnuarm-471_eabi/bin/../lib/gcc/arm-none-eabi/4.7.1/../../../../arm-none-eabi/lib/thumb\libg.a(lib_a-atoi.o)
 .ARM.attributes
                0x00000662       0x32 c:/gnuarm-471_eabi/bin/../lib/gcc/arm-none-eabi/4.7.1/../../../../arm-none-eabi/lib/thumb\libg.a(lib_a-atol.o)
 .ARM.attributes
                0x00000694       0x32 c:/gnuarm-471_eabi/bin/../lib/gcc/arm-none-eabi/4.7.1/../../../../arm-none-eabi/lib/thumb\libg.a(lib_a-memcpy-stub.o)
 .ARM.attributes
                0x000006c6       0x32 c:/gnuarm-471_eabi/bin/../lib/gcc/arm-none-eabi/4.7.1/../../../../arm-none-eabi/lib/thumb\libg.a(lib_a-memset.o)
 .ARM.attributes
                0x000006f8       0x32 c:/gnuarm-471_eabi/bin/../lib/gcc/arm-none-eabi/4.7.1/../../../../arm-none-eabi/lib/thumb\libg.a(lib_a-sprintf.o)
 .ARM.attributes
                0x0000072a       0x32 c:/gnuarm-471_eabi/bin/../lib/gcc/arm-none-eabi/4.7.1/../../../../arm-none-eabi/lib/thumb\libg.a(lib_a-strcat.o)
 .ARM.attributes
                0x0000075c       0x32 c:/gnuarm-471_eabi/bin/../lib/gcc/arm-none-eabi/4.7.1/../../../../arm-none-eabi/lib/thumb\libg.a(lib_a-strcpy.o)
 .ARM.attributes
                0x0000078e       0x32 c:/gnuarm-471_eabi/bin/../lib/gcc/arm-none-eabi/4.7.1/../../../../arm-none-eabi/lib/thumb\libg.a(lib_a-strlen.o)
 .ARM.attributes
                0x000007c0       0x32 c:/gnuarm-471_eabi/bin/../lib/gcc/arm-none-eabi/4.7.1/../../../../arm-none-eabi/lib/thumb\libg.a(lib_a-strncpy.o)
 .ARM.attributes
                0x000007f2       0x32 c:/gnuarm-471_eabi/bin/../lib/gcc/arm-none-eabi/4.7.1/../../../../arm-none-eabi/lib/thumb\libg.a(lib_a-strtod.o)
 .ARM.attributes
                0x00000824       0x32 c:/gnuarm-471_eabi/bin/../lib/gcc/arm-none-eabi/4.7.1/../../../../arm-none-eabi/lib/thumb\libg.a(lib_a-strtol.o)
 .ARM.attributes
                0x00000856       0x32 c:/gnuarm-471_eabi/bin/../lib/gcc/arm-none-eabi/4.7.1/../../../../arm-none-eabi/lib/thumb\libg.a(lib_a-svfprintf.o)
 .ARM.attributes
                0x00000888       0x32 c:/gnuarm-471_eabi/bin/../lib/gcc/arm-none-eabi/4.7.1/../../../../arm-none-eabi/lib/thumb\libg.a(lib_a-ctype_.o)
 .ARM.attributes
                0x000008ba       0x32 c:/gnuarm-471_eabi/bin/../lib/gcc/arm-none-eabi/4.7.1/../../../../arm-none-eabi/lib/thumb\libg.a(lib_a-dtoa.o)
 .ARM.attributes
                0x000008ec       0x32 c:/gnuarm-471_eabi/bin/../lib/gcc/arm-none-eabi/4.7.1/../../../../arm-none-eabi/lib/thumb\libg.a(lib_a-gdtoa-gethex.o)
 .ARM.attributes
                0x0000091e       0x32 c:/gnuarm-471_eabi/bin/../lib/gcc/arm-none-eabi/4.7.1/../../../../arm-none-eabi/lib/thumb\libg.a(lib_a-gdtoa-hexnan.o)
 .ARM.attributes
                0x00000950       0x32 c:/gnuarm-471_eabi/bin/../lib/gcc/arm-none-eabi/4.7.1/../../../../arm-none-eabi/lib/thumb\libg.a(lib_a-impure.o)
 .ARM.attributes
                0x00000982       0x32 c:/gnuarm-471_eabi/bin/../lib/gcc/arm-none-eabi/4.7.1/../../../../arm-none-eabi/lib/thumb\libg.a(lib_a-locale.o)
 .ARM.attributes
                0x000009b4       0x32 c:/gnuarm-471_eabi/bin/../lib/gcc/arm-none-eabi/4.7.1/../../../../arm-none-eabi/lib/thumb\libg.a(lib_a-mallocr.o)
 .ARM.attributes
                0x000009e6       0x32 c:/gnuarm-471_eabi/bin/../lib/gcc/arm-none-eabi/4.7.1/../../../../arm-none-eabi/lib/thumb\libg.a(lib_a-memchr-stub.o)
 .ARM.attributes
                0x00000a18       0x32 c:/gnuarm-471_eabi/bin/../lib/gcc/arm-none-eabi/4.7.1/../../../../arm-none-eabi/lib/thumb\libg.a(lib_a-mlock.o)
 .ARM.attributes
                0x00000a4a       0x32 c:/gnuarm-471_eabi/bin/../lib/gcc/arm-none-eabi/4.7.1/../../../../arm-none-eabi/lib/thumb\libg.a(lib_a-mprec.o)
 .ARM.attributes
                0x00000a7c       0x32 c:/gnuarm-471_eabi/bin/../lib/gcc/arm-none-eabi/4.7.1/../../../../arm-none-eabi/lib/thumb\libg.a(lib_a-s_fpclassify.o)
 .ARM.attributes
                0x00000aae       0x32 c:/gnuarm-471_eabi/bin/../lib/gcc/arm-none-eabi/4.7.1/../../../../arm-none-eabi/lib/thumb\libg.a(lib_a-sf_nan.o)
 .ARM.attributes
                0x00000ae0       0x32 c:/gnuarm-471_eabi/bin/../lib/gcc/arm-none-eabi/4.7.1/../../../../arm-none-eabi/lib/thumb\libg.a(lib_a-strcmp.o)
 .ARM.attributes
                0x00000b12       0x32 c:/gnuarm-471_eabi/bin/../lib/gcc/arm-none-eabi/4.7.1/../../../../arm-none-eabi/lib/thumb\libg.a(lib_a-strncmp.o)
 .ARM.attributes
                0x00000b44       0x32 c:/gnuarm-471_eabi/bin/../lib/gcc/arm-none-eabi/4.7.1/../../../../arm-none-eabi/lib/thumb\libg.a(lib_a-svfiprintf.o)
 .ARM.attributes
                0x00000b76       0x32 c:/gnuarm-471_eabi/bin/../lib/gcc/arm-none-eabi/4.7.1/../../../../arm-none-eabi/lib/thumb\libg.a(lib_a-callocr.o)
 .ARM.attributes
                0x00000ba8       0x32 c:/gnuarm-471_eabi/bin/../lib/gcc/arm-none-eabi/4.7.1/../../../../arm-none-eabi/lib/thumb\libg.a(lib_a-freer.o)
 .ARM.attributes
                0x00000bda       0x32 c:/gnuarm-471_eabi/bin/../lib/gcc/arm-none-eabi/4.7.1/../../../../arm-none-eabi/lib/thumb\libg.a(lib_a-memmove.o)
 .ARM.attributes
                0x00000c0c       0x32 c:/gnuarm-471_eabi/bin/../lib/gcc/arm-none-eabi/4.7.1/../../../../arm-none-eabi/lib/thumb\libg.a(lib_a-reallocr.o)
 .ARM.attributes
                0x00000c3e       0x1a c:/gnuarm-471_eabi/bin/../lib/gcc/arm-none-eabi/4.7.1/thumb\libgcc.a(_arm_fixdfsi.o)

.debug
 *(.debug)

.line
 *(.line)

.debug_srcinfo
 *(.debug_srcinfo)

.debug_sfnames
 *(.debug_sfnames)

.debug_aranges  0x00000000      0xd38
 *(.debug_aranges)
 .debug_aranges
                0x00000000       0x20 Cstartup_SAM7.o
 .debug_aranges
                0x00000020       0x50 syscalls.o
 .debug_aranges
                0x00000070       0x58 portISR.o
 .debug_aranges
                0x000000c8       0xc0 interrupts.o
 .debug_aranges
                0x00000188       0x20 main.o
 .debug_aranges
                0x000001a8       0x38 heap_2.o
 .debug_aranges
                0x000001e0       0xb0 functions.o
 .debug_aranges
                0x00000290       0xa0 display.o
 .debug_aranges
                0x00000330       0xe8 screens.o
 .debug_aranges
                0x00000418      0x100 tasks.o
 .debug_aranges
                0x00000518       0x80 queue.o
 .debug_aranges
                0x00000598       0x40 list.o
 .debug_aranges
                0x000005d8       0x30 port.o
 .debug_aranges
                0x00000608       0x48 serial.o
 .debug_aranges
                0x00000650       0x30 comtest.o
 .debug_aranges
                0x00000680       0x28 TWI_task.o
 .debug_aranges
                0x000006a8       0x28 Operate.o
 .debug_aranges
                0x000006d0       0x48 Power.o
 .debug_aranges
                0x00000718       0x18 bm_sym.o
 .debug_aranges
                0x00000730       0x18 bm_num.o
 .debug_aranges
                0x00000748       0x18 bm_f1all.o
 .debug_aranges
                0x00000760       0x18 bm_f1eur.o
 .debug_aranges
                0x00000778       0x18 bm_f1cyr.o
 .debug_aranges
                0x00000790       0x18 strings.o
 .debug_aranges
                0x000007a8       0x20 c:/gnuarm-471_eabi/bin/../lib/gcc/arm-none-eabi/4.7.1/thumb\libgcc.a(_udivsi3.o)
 .debug_aranges
                0x000007c8       0x20 c:/gnuarm-471_eabi/bin/../lib/gcc/arm-none-eabi/4.7.1/thumb\libgcc.a(_divsi3.o)
 .debug_aranges
                0x000007e8       0x20 c:/gnuarm-471_eabi/bin/../lib/gcc/arm-none-eabi/4.7.1/thumb\libgcc.a(_dvmd_tls.o)
 .debug_aranges
                0x00000808       0x20 c:/gnuarm-471_eabi/bin/../lib/gcc/arm-none-eabi/4.7.1/thumb\libgcc.a(_arm_addsubdf3.o)
 .debug_aranges
                0x00000828       0x20 c:/gnuarm-471_eabi/bin/../lib/gcc/arm-none-eabi/4.7.1/thumb\libgcc.a(_arm_muldivdf3.o)
 .debug_aranges
                0x00000848       0x20 c:/gnuarm-471_eabi/bin/../lib/gcc/arm-none-eabi/4.7.1/thumb\libgcc.a(_arm_cmpdf2.o)
 .debug_aranges
                0x00000868       0x20 c:/gnuarm-471_eabi/bin/../lib/gcc/arm-none-eabi/4.7.1/thumb\libgcc.a(_arm_fixunsdfsi.o)
 .debug_aranges
                0x00000888       0x20 c:/gnuarm-471_eabi/bin/../lib/gcc/arm-none-eabi/4.7.1/thumb\libgcc.a(_arm_truncdfsf2.o)
 .debug_aranges
                0x000008a8       0x20 c:/gnuarm-471_eabi/bin/../lib/gcc/arm-none-eabi/4.7.1/thumb\libgcc.a(_arm_addsubsf3.o)
 .debug_aranges
                0x000008c8       0x20 c:/gnuarm-471_eabi/bin/../lib/gcc/arm-none-eabi/4.7.1/thumb\libgcc.a(_arm_muldivsf3.o)
 .debug_aranges
                0x000008e8       0x20 c:/gnuarm-471_eabi/bin/../lib/gcc/arm-none-eabi/4.7.1/thumb\libgcc.a(_arm_cmpsf2.o)
 .debug_aranges
                0x00000908       0x20 c:/gnuarm-471_eabi/bin/../lib/gcc/arm-none-eabi/4.7.1/thumb\libgcc.a(_arm_fixunssfsi.o)
 .debug_aranges
                0x00000928       0x20 c:/gnuarm-471_eabi/bin/../lib/gcc/arm-none-eabi/4.7.1/../../../../arm-none-eabi/lib/thumb\libg.a(lib_a-atoff.o)
 .debug_aranges
                0x00000948       0x20 c:/gnuarm-471_eabi/bin/../lib/gcc/arm-none-eabi/4.7.1/../../../../arm-none-eabi/lib/thumb\libg.a(lib_a-atoi.o)
 .debug_aranges
                0x00000968       0x20 c:/gnuarm-471_eabi/bin/../lib/gcc/arm-none-eabi/4.7.1/../../../../arm-none-eabi/lib/thumb\libg.a(lib_a-atol.o)
 .debug_aranges
                0x00000988       0x20 c:/gnuarm-471_eabi/bin/../lib/gcc/arm-none-eabi/4.7.1/../../../../arm-none-eabi/lib/thumb\libg.a(lib_a-memcpy-stub.o)
 .debug_aranges
                0x000009a8       0x20 c:/gnuarm-471_eabi/bin/../lib/gcc/arm-none-eabi/4.7.1/../../../../arm-none-eabi/lib/thumb\libg.a(lib_a-memset.o)
 .debug_aranges
                0x000009c8       0x20 c:/gnuarm-471_eabi/bin/../lib/gcc/arm-none-eabi/4.7.1/../../../../arm-none-eabi/lib/thumb\libg.a(lib_a-sprintf.o)
 .debug_aranges
                0x000009e8       0x20 c:/gnuarm-471_eabi/bin/../lib/gcc/arm-none-eabi/4.7.1/../../../../arm-none-eabi/lib/thumb\libg.a(lib_a-strcat.o)
 .debug_aranges
                0x00000a08       0x20 c:/gnuarm-471_eabi/bin/../lib/gcc/arm-none-eabi/4.7.1/../../../../arm-none-eabi/lib/thumb\libg.a(lib_a-strcpy.o)
 .debug_aranges
                0x00000a28       0x20 c:/gnuarm-471_eabi/bin/../lib/gcc/arm-none-eabi/4.7.1/../../../../arm-none-eabi/lib/thumb\libg.a(lib_a-strlen.o)
 .debug_aranges
                0x00000a48       0x20 c:/gnuarm-471_eabi/bin/../lib/gcc/arm-none-eabi/4.7.1/../../../../arm-none-eabi/lib/thumb\libg.a(lib_a-strncpy.o)
 .debug_aranges
                0x00000a68       0x20 c:/gnuarm-471_eabi/bin/../lib/gcc/arm-none-eabi/4.7.1/../../../../arm-none-eabi/lib/thumb\libg.a(lib_a-strtod.o)
 .debug_aranges
                0x00000a88       0x20 c:/gnuarm-471_eabi/bin/../lib/gcc/arm-none-eabi/4.7.1/../../../../arm-none-eabi/lib/thumb\libg.a(lib_a-strtol.o)
 .debug_aranges
                0x00000aa8       0x20 c:/gnuarm-471_eabi/bin/../lib/gcc/arm-none-eabi/4.7.1/../../../../arm-none-eabi/lib/thumb\libg.a(lib_a-svfprintf.o)
 .debug_aranges
                0x00000ac8       0x18 c:/gnuarm-471_eabi/bin/../lib/gcc/arm-none-eabi/4.7.1/../../../../arm-none-eabi/lib/thumb\libg.a(lib_a-ctype_.o)
 .debug_aranges
                0x00000ae0       0x20 c:/gnuarm-471_eabi/bin/../lib/gcc/arm-none-eabi/4.7.1/../../../../arm-none-eabi/lib/thumb\libg.a(lib_a-dtoa.o)
 .debug_aranges
                0x00000b00       0x20 c:/gnuarm-471_eabi/bin/../lib/gcc/arm-none-eabi/4.7.1/../../../../arm-none-eabi/lib/thumb\libg.a(lib_a-gdtoa-gethex.o)
 .debug_aranges
                0x00000b20       0x20 c:/gnuarm-471_eabi/bin/../lib/gcc/arm-none-eabi/4.7.1/../../../../arm-none-eabi/lib/thumb\libg.a(lib_a-gdtoa-hexnan.o)
 .debug_aranges
                0x00000b40       0x18 c:/gnuarm-471_eabi/bin/../lib/gcc/arm-none-eabi/4.7.1/../../../../arm-none-eabi/lib/thumb\libg.a(lib_a-impure.o)
 .debug_aranges
                0x00000b58       0x20 c:/gnuarm-471_eabi/bin/../lib/gcc/arm-none-eabi/4.7.1/../../../../arm-none-eabi/lib/thumb\libg.a(lib_a-locale.o)
 .debug_aranges
                0x00000b78       0x20 c:/gnuarm-471_eabi/bin/../lib/gcc/arm-none-eabi/4.7.1/../../../../arm-none-eabi/lib/thumb\libg.a(lib_a-mallocr.o)
 .debug_aranges
                0x00000b98       0x20 c:/gnuarm-471_eabi/bin/../lib/gcc/arm-none-eabi/4.7.1/../../../../arm-none-eabi/lib/thumb\libg.a(lib_a-memchr-stub.o)
 .debug_aranges
                0x00000bb8       0x20 c:/gnuarm-471_eabi/bin/../lib/gcc/arm-none-eabi/4.7.1/../../../../arm-none-eabi/lib/thumb\libg.a(lib_a-mlock.o)
 .debug_aranges
                0x00000bd8       0x20 c:/gnuarm-471_eabi/bin/../lib/gcc/arm-none-eabi/4.7.1/../../../../arm-none-eabi/lib/thumb\libg.a(lib_a-mprec.o)
 .debug_aranges
                0x00000bf8       0x20 c:/gnuarm-471_eabi/bin/../lib/gcc/arm-none-eabi/4.7.1/../../../../arm-none-eabi/lib/thumb\libg.a(lib_a-s_fpclassify.o)
 .debug_aranges
                0x00000c18       0x20 c:/gnuarm-471_eabi/bin/../lib/gcc/arm-none-eabi/4.7.1/../../../../arm-none-eabi/lib/thumb\libg.a(lib_a-sf_nan.o)
 .debug_aranges
                0x00000c38       0x20 c:/gnuarm-471_eabi/bin/../lib/gcc/arm-none-eabi/4.7.1/../../../../arm-none-eabi/lib/thumb\libg.a(lib_a-strcmp.o)
 .debug_aranges
                0x00000c58       0x20 c:/gnuarm-471_eabi/bin/../lib/gcc/arm-none-eabi/4.7.1/../../../../arm-none-eabi/lib/thumb\libg.a(lib_a-strncmp.o)
 .debug_aranges
                0x00000c78       0x20 c:/gnuarm-471_eabi/bin/../lib/gcc/arm-none-eabi/4.7.1/../../../../arm-none-eabi/lib/thumb\libg.a(lib_a-svfiprintf.o)
 .debug_aranges
                0x00000c98       0x20 c:/gnuarm-471_eabi/bin/../lib/gcc/arm-none-eabi/4.7.1/../../../../arm-none-eabi/lib/thumb\libg.a(lib_a-callocr.o)
 .debug_aranges
                0x00000cb8       0x20 c:/gnuarm-471_eabi/bin/../lib/gcc/arm-none-eabi/4.7.1/../../../../arm-none-eabi/lib/thumb\libg.a(lib_a-freer.o)
 .debug_aranges
                0x00000cd8       0x20 c:/gnuarm-471_eabi/bin/../lib/gcc/arm-none-eabi/4.7.1/../../../../arm-none-eabi/lib/thumb\libg.a(lib_a-memmove.o)
 .debug_aranges
                0x00000cf8       0x20 c:/gnuarm-471_eabi/bin/../lib/gcc/arm-none-eabi/4.7.1/../../../../arm-none-eabi/lib/thumb\libg.a(lib_a-reallocr.o)
 .debug_aranges
                0x00000d18       0x20 c:/gnuarm-471_eabi/bin/../lib/gcc/arm-none-eabi/4.7.1/thumb\libgcc.a(_arm_fixdfsi.o)

.debug_pubnames
 *(.debug_pubnames)

.debug_info     0x00000000    0x34c69
 *(.debug_info .gnu.linkonce.wi.*)
 .debug_info    0x00000000      0x512 Cstartup_SAM7.o
 .debug_info    0x00000512     0x108f syscalls.o
 .debug_info    0x000015a1      0x759 portISR.o
 .debug_info    0x00001cfa     0x16a3 interrupts.o
 .debug_info    0x0000339d     0x149e main.o
 .debug_info    0x0000483b      0x312 heap_2.o
 .debug_info    0x00004b4d     0x28b8 functions.o
 .debug_info    0x00007405     0x2cc6 display.o
 .debug_info    0x0000a0cb     0xc9f1 screens.o
 .debug_info    0x00016abc     0x1668 tasks.o
 .debug_info    0x00018124      0xc83 queue.o
 .debug_info    0x00018da7      0x2b2 list.o
 .debug_info    0x00019059      0x4aa port.o
 .debug_info    0x00019503      0x823 serial.o
 .debug_info    0x00019d26      0x591 comtest.o
 .debug_info    0x0001a2b7      0x4ca TWI_task.o
 .debug_info    0x0001a781      0xb39 Operate.o
 .debug_info    0x0001b2ba     0x20a2 Power.o
 .debug_info    0x0001d35c     0x1530 bm_sym.o
 .debug_info    0x0001e88c      0xe7f bm_num.o
 .debug_info    0x0001f70b      0xae6 bm_f1all.o
 .debug_info    0x000201f1     0x1147 bm_f1eur.o
 .debug_info    0x00021338      0xf6f bm_f1cyr.o
 .debug_info    0x000222a7     0x1341 strings.o
 .debug_info    0x000235e8       0x98 c:/gnuarm-471_eabi/bin/../lib/gcc/arm-none-eabi/4.7.1/thumb\libgcc.a(_udivsi3.o)
 .debug_info    0x00023680       0x98 c:/gnuarm-471_eabi/bin/../lib/gcc/arm-none-eabi/4.7.1/thumb\libgcc.a(_divsi3.o)
 .debug_info    0x00023718       0x98 c:/gnuarm-471_eabi/bin/../lib/gcc/arm-none-eabi/4.7.1/thumb\libgcc.a(_dvmd_tls.o)
 .debug_info    0x000237b0       0x99 c:/gnuarm-471_eabi/bin/../lib/gcc/arm-none-eabi/4.7.1/thumb\libgcc.a(_arm_addsubdf3.o)
 .debug_info    0x00023849       0x99 c:/gnuarm-471_eabi/bin/../lib/gcc/arm-none-eabi/4.7.1/thumb\libgcc.a(_arm_muldivdf3.o)
 .debug_info    0x000238e2       0x99 c:/gnuarm-471_eabi/bin/../lib/gcc/arm-none-eabi/4.7.1/thumb\libgcc.a(_arm_cmpdf2.o)
 .debug_info    0x0002397b       0x99 c:/gnuarm-471_eabi/bin/../lib/gcc/arm-none-eabi/4.7.1/thumb\libgcc.a(_arm_fixunsdfsi.o)
 .debug_info    0x00023a14       0x99 c:/gnuarm-471_eabi/bin/../lib/gcc/arm-none-eabi/4.7.1/thumb\libgcc.a(_arm_truncdfsf2.o)
 .debug_info    0x00023aad       0x99 c:/gnuarm-471_eabi/bin/../lib/gcc/arm-none-eabi/4.7.1/thumb\libgcc.a(_arm_addsubsf3.o)
 .debug_info    0x00023b46       0x99 c:/gnuarm-471_eabi/bin/../lib/gcc/arm-none-eabi/4.7.1/thumb\libgcc.a(_arm_muldivsf3.o)
 .debug_info    0x00023bdf       0x99 c:/gnuarm-471_eabi/bin/../lib/gcc/arm-none-eabi/4.7.1/thumb\libgcc.a(_arm_cmpsf2.o)
 .debug_info    0x00023c78       0x99 c:/gnuarm-471_eabi/bin/../lib/gcc/arm-none-eabi/4.7.1/thumb\libgcc.a(_arm_fixunssfsi.o)
 .debug_info    0x00023d11       0xf7 c:/gnuarm-471_eabi/bin/../lib/gcc/arm-none-eabi/4.7.1/../../../../arm-none-eabi/lib/thumb\libg.a(lib_a-atoff.o)
 .debug_info    0x00023e08      0xa20 c:/gnuarm-471_eabi/bin/../lib/gcc/arm-none-eabi/4.7.1/../../../../arm-none-eabi/lib/thumb\libg.a(lib_a-atoi.o)
 .debug_info    0x00024828      0xa20 c:/gnuarm-471_eabi/bin/../lib/gcc/arm-none-eabi/4.7.1/../../../../arm-none-eabi/lib/thumb\libg.a(lib_a-atol.o)
 .debug_info    0x00025248      0x136 c:/gnuarm-471_eabi/bin/../lib/gcc/arm-none-eabi/4.7.1/../../../../arm-none-eabi/lib/thumb\libg.a(lib_a-memcpy-stub.o)
 .debug_info    0x0002537e      0x11d c:/gnuarm-471_eabi/bin/../lib/gcc/arm-none-eabi/4.7.1/../../../../arm-none-eabi/lib/thumb\libg.a(lib_a-memset.o)
 .debug_info    0x0002549b      0xacf c:/gnuarm-471_eabi/bin/../lib/gcc/arm-none-eabi/4.7.1/../../../../arm-none-eabi/lib/thumb\libg.a(lib_a-sprintf.o)
 .debug_info    0x00025f6a      0x118 c:/gnuarm-471_eabi/bin/../lib/gcc/arm-none-eabi/4.7.1/../../../../arm-none-eabi/lib/thumb\libg.a(lib_a-strcat.o)
 .debug_info    0x00026082       0xc1 c:/gnuarm-471_eabi/bin/../lib/gcc/arm-none-eabi/4.7.1/../../../../arm-none-eabi/lib/thumb\libg.a(lib_a-strcpy.o)
 .debug_info    0x00026143       0xd1 c:/gnuarm-471_eabi/bin/../lib/gcc/arm-none-eabi/4.7.1/../../../../arm-none-eabi/lib/thumb\libg.a(lib_a-strlen.o)
 .debug_info    0x00026214      0x12d c:/gnuarm-471_eabi/bin/../lib/gcc/arm-none-eabi/4.7.1/../../../../arm-none-eabi/lib/thumb\libg.a(lib_a-strncpy.o)
 .debug_info    0x00026341     0x1891 c:/gnuarm-471_eabi/bin/../lib/gcc/arm-none-eabi/4.7.1/../../../../arm-none-eabi/lib/thumb\libg.a(lib_a-strtod.o)
 .debug_info    0x00027bd2      0xa84 c:/gnuarm-471_eabi/bin/../lib/gcc/arm-none-eabi/4.7.1/../../../../arm-none-eabi/lib/thumb\libg.a(lib_a-strtol.o)
 .debug_info    0x00028656     0x1775 c:/gnuarm-471_eabi/bin/../lib/gcc/arm-none-eabi/4.7.1/../../../../arm-none-eabi/lib/thumb\libg.a(lib_a-svfprintf.o)
 .debug_info    0x00029dcb       0x71 c:/gnuarm-471_eabi/bin/../lib/gcc/arm-none-eabi/4.7.1/../../../../arm-none-eabi/lib/thumb\libg.a(lib_a-ctype_.o)
 .debug_info    0x00029e3c     0x144b c:/gnuarm-471_eabi/bin/../lib/gcc/arm-none-eabi/4.7.1/../../../../arm-none-eabi/lib/thumb\libg.a(lib_a-dtoa.o)
 .debug_info    0x0002b287     0x135a c:/gnuarm-471_eabi/bin/../lib/gcc/arm-none-eabi/4.7.1/../../../../arm-none-eabi/lib/thumb\libg.a(lib_a-gdtoa-gethex.o)
 .debug_info    0x0002c5e1      0x32c c:/gnuarm-471_eabi/bin/../lib/gcc/arm-none-eabi/4.7.1/../../../../arm-none-eabi/lib/thumb\libg.a(lib_a-gdtoa-hexnan.o)
 .debug_info    0x0002c90d      0x965 c:/gnuarm-471_eabi/bin/../lib/gcc/arm-none-eabi/4.7.1/../../../../arm-none-eabi/lib/thumb\libg.a(lib_a-impure.o)
 .debug_info    0x0002d272      0xd0c c:/gnuarm-471_eabi/bin/../lib/gcc/arm-none-eabi/4.7.1/../../../../arm-none-eabi/lib/thumb\libg.a(lib_a-locale.o)
 .debug_info    0x0002df7e      0xe72 c:/gnuarm-471_eabi/bin/../lib/gcc/arm-none-eabi/4.7.1/../../../../arm-none-eabi/lib/thumb\libg.a(lib_a-mallocr.o)
 .debug_info    0x0002edf0      0x130 c:/gnuarm-471_eabi/bin/../lib/gcc/arm-none-eabi/4.7.1/../../../../arm-none-eabi/lib/thumb\libg.a(lib_a-memchr-stub.o)
 .debug_info    0x0002ef20      0x989 c:/gnuarm-471_eabi/bin/../lib/gcc/arm-none-eabi/4.7.1/../../../../arm-none-eabi/lib/thumb\libg.a(lib_a-mlock.o)
 .debug_info    0x0002f8a9     0x1782 c:/gnuarm-471_eabi/bin/../lib/gcc/arm-none-eabi/4.7.1/../../../../arm-none-eabi/lib/thumb\libg.a(lib_a-mprec.o)
 .debug_info    0x0003102b      0x14b c:/gnuarm-471_eabi/bin/../lib/gcc/arm-none-eabi/4.7.1/../../../../arm-none-eabi/lib/thumb\libg.a(lib_a-s_fpclassify.o)
 .debug_info    0x00031176       0xd2 c:/gnuarm-471_eabi/bin/../lib/gcc/arm-none-eabi/4.7.1/../../../../arm-none-eabi/lib/thumb\libg.a(lib_a-sf_nan.o)
 .debug_info    0x00031248       0xb9 c:/gnuarm-471_eabi/bin/../lib/gcc/arm-none-eabi/4.7.1/../../../../arm-none-eabi/lib/thumb\libg.a(lib_a-strcmp.o)
 .debug_info    0x00031301       0xfa c:/gnuarm-471_eabi/bin/../lib/gcc/arm-none-eabi/4.7.1/../../../../arm-none-eabi/lib/thumb\libg.a(lib_a-strncmp.o)
 .debug_info    0x000313fb     0x111d c:/gnuarm-471_eabi/bin/../lib/gcc/arm-none-eabi/4.7.1/../../../../arm-none-eabi/lib/thumb\libg.a(lib_a-svfiprintf.o)
 .debug_info    0x00032518      0xac6 c:/gnuarm-471_eabi/bin/../lib/gcc/arm-none-eabi/4.7.1/../../../../arm-none-eabi/lib/thumb\libg.a(lib_a-callocr.o)
 .debug_info    0x00032fde      0xd0e c:/gnuarm-471_eabi/bin/../lib/gcc/arm-none-eabi/4.7.1/../../../../arm-none-eabi/lib/thumb\libg.a(lib_a-freer.o)
 .debug_info    0x00033cec      0x136 c:/gnuarm-471_eabi/bin/../lib/gcc/arm-none-eabi/4.7.1/../../../../arm-none-eabi/lib/thumb\libg.a(lib_a-memmove.o)
 .debug_info    0x00033e22      0xdae c:/gnuarm-471_eabi/bin/../lib/gcc/arm-none-eabi/4.7.1/../../../../arm-none-eabi/lib/thumb\libg.a(lib_a-reallocr.o)
 .debug_info    0x00034bd0       0x99 c:/gnuarm-471_eabi/bin/../lib/gcc/arm-none-eabi/4.7.1/thumb\libgcc.a(_arm_fixdfsi.o)

.debug_abbrev   0x00000000     0x616b
 *(.debug_abbrev)
 .debug_abbrev  0x00000000       0xf7 Cstartup_SAM7.o
 .debug_abbrev  0x000000f7      0x25c syscalls.o
 .debug_abbrev  0x00000353      0x1e1 portISR.o
 .debug_abbrev  0x00000534      0x29c interrupts.o
 .debug_abbrev  0x000007d0      0x246 main.o
 .debug_abbrev  0x00000a16      0x1b1 heap_2.o
 .debug_abbrev  0x00000bc7      0x36c functions.o
 .debug_abbrev  0x00000f33      0x457 display.o
 .debug_abbrev  0x0000138a      0x2ce screens.o
 .debug_abbrev  0x00001658      0x345 tasks.o
 .debug_abbrev  0x0000199d      0x27e queue.o
 .debug_abbrev  0x00001c1b       0xea list.o
 .debug_abbrev  0x00001d05      0x1e4 port.o
 .debug_abbrev  0x00001ee9      0x23e serial.o
 .debug_abbrev  0x00002127      0x1f9 comtest.o
 .debug_abbrev  0x00002320      0x1ae TWI_task.o
 .debug_abbrev  0x000024ce      0x1f5 Operate.o
 .debug_abbrev  0x000026c3      0x353 Power.o
 .debug_abbrev  0x00002a16       0x9b bm_sym.o
 .debug_abbrev  0x00002ab1       0xbf bm_num.o
 .debug_abbrev  0x00002b70       0xb0 bm_f1all.o
 .debug_abbrev  0x00002c20       0xb0 bm_f1eur.o
 .debug_abbrev  0x00002cd0       0xb0 bm_f1cyr.o
 .debug_abbrev  0x00002d80       0x81 strings.o
 .debug_abbrev  0x00002e01       0x14 c:/gnuarm-471_eabi/bin/../lib/gcc/arm-none-eabi/4.7.1/thumb\libgcc.a(_udivsi3.o)
 .debug_abbrev  0x00002e15       0x14 c:/gnuarm-471_eabi/bin/../lib/gcc/arm-none-eabi/4.7.1/thumb\libgcc.a(_divsi3.o)
 .debug_abbrev  0x00002e29       0x14 c:/gnuarm-471_eabi/bin/../lib/gcc/arm-none-eabi/4.7.1/thumb\libgcc.a(_dvmd_tls.o)
 .debug_abbrev  0x00002e3d       0x14 c:/gnuarm-471_eabi/bin/../lib/gcc/arm-none-eabi/4.7.1/thumb\libgcc.a(_arm_addsubdf3.o)
 .debug_abbrev  0x00002e51       0x14 c:/gnuarm-471_eabi/bin/../lib/gcc/arm-none-eabi/4.7.1/thumb\libgcc.a(_arm_muldivdf3.o)
 .debug_abbrev  0x00002e65       0x14 c:/gnuarm-471_eabi/bin/../lib/gcc/arm-none-eabi/4.7.1/thumb\libgcc.a(_arm_cmpdf2.o)
 .debug_abbrev  0x00002e79       0x14 c:/gnuarm-471_eabi/bin/../lib/gcc/arm-none-eabi/4.7.1/thumb\libgcc.a(_arm_fixunsdfsi.o)
 .debug_abbrev  0x00002e8d       0x14 c:/gnuarm-471_eabi/bin/../lib/gcc/arm-none-eabi/4.7.1/thumb\libgcc.a(_arm_truncdfsf2.o)
 .debug_abbrev  0x00002ea1       0x14 c:/gnuarm-471_eabi/bin/../lib/gcc/arm-none-eabi/4.7.1/thumb\libgcc.a(_arm_addsubsf3.o)
 .debug_abbrev  0x00002eb5       0x14 c:/gnuarm-471_eabi/bin/../lib/gcc/arm-none-eabi/4.7.1/thumb\libgcc.a(_arm_muldivsf3.o)
 .debug_abbrev  0x00002ec9       0x14 c:/gnuarm-471_eabi/bin/../lib/gcc/arm-none-eabi/4.7.1/thumb\libgcc.a(_arm_cmpsf2.o)
 .debug_abbrev  0x00002edd       0x14 c:/gnuarm-471_eabi/bin/../lib/gcc/arm-none-eabi/4.7.1/thumb\libgcc.a(_arm_fixunssfsi.o)
 .debug_abbrev  0x00002ef1       0x98 c:/gnuarm-471_eabi/bin/../lib/gcc/arm-none-eabi/4.7.1/../../../../arm-none-eabi/lib/thumb\libg.a(lib_a-atoff.o)
 .debug_abbrev  0x00002f89      0x1b0 c:/gnuarm-471_eabi/bin/../lib/gcc/arm-none-eabi/4.7.1/../../../../arm-none-eabi/lib/thumb\libg.a(lib_a-atoi.o)
 .debug_abbrev  0x00003139      0x1b0 c:/gnuarm-471_eabi/bin/../lib/gcc/arm-none-eabi/4.7.1/../../../../arm-none-eabi/lib/thumb\libg.a(lib_a-atol.o)
 .debug_abbrev  0x000032e9       0xab c:/gnuarm-471_eabi/bin/../lib/gcc/arm-none-eabi/4.7.1/../../../../arm-none-eabi/lib/thumb\libg.a(lib_a-memcpy-stub.o)
 .debug_abbrev  0x00003394       0xae c:/gnuarm-471_eabi/bin/../lib/gcc/arm-none-eabi/4.7.1/../../../../arm-none-eabi/lib/thumb\libg.a(lib_a-memset.o)
 .debug_abbrev  0x00003442      0x1fa c:/gnuarm-471_eabi/bin/../lib/gcc/arm-none-eabi/4.7.1/../../../../arm-none-eabi/lib/thumb\libg.a(lib_a-sprintf.o)
 .debug_abbrev  0x0000363c       0xb3 c:/gnuarm-471_eabi/bin/../lib/gcc/arm-none-eabi/4.7.1/../../../../arm-none-eabi/lib/thumb\libg.a(lib_a-strcat.o)
 .debug_abbrev  0x000036ef       0x72 c:/gnuarm-471_eabi/bin/../lib/gcc/arm-none-eabi/4.7.1/../../../../arm-none-eabi/lib/thumb\libg.a(lib_a-strcpy.o)
 .debug_abbrev  0x00003761       0x8c c:/gnuarm-471_eabi/bin/../lib/gcc/arm-none-eabi/4.7.1/../../../../arm-none-eabi/lib/thumb\libg.a(lib_a-strlen.o)
 .debug_abbrev  0x000037ed       0x9f c:/gnuarm-471_eabi/bin/../lib/gcc/arm-none-eabi/4.7.1/../../../../arm-none-eabi/lib/thumb\libg.a(lib_a-strncpy.o)
 .debug_abbrev  0x0000388c      0x3ae c:/gnuarm-471_eabi/bin/../lib/gcc/arm-none-eabi/4.7.1/../../../../arm-none-eabi/lib/thumb\libg.a(lib_a-strtod.o)
 .debug_abbrev  0x00003c3a      0x1f3 c:/gnuarm-471_eabi/bin/../lib/gcc/arm-none-eabi/4.7.1/../../../../arm-none-eabi/lib/thumb\libg.a(lib_a-strtol.o)
 .debug_abbrev  0x00003e2d      0x351 c:/gnuarm-471_eabi/bin/../lib/gcc/arm-none-eabi/4.7.1/../../../../arm-none-eabi/lib/thumb\libg.a(lib_a-svfprintf.o)
 .debug_abbrev  0x0000417e       0x4e c:/gnuarm-471_eabi/bin/../lib/gcc/arm-none-eabi/4.7.1/../../../../arm-none-eabi/lib/thumb\libg.a(lib_a-ctype_.o)
 .debug_abbrev  0x000041cc      0x2a2 c:/gnuarm-471_eabi/bin/../lib/gcc/arm-none-eabi/4.7.1/../../../../arm-none-eabi/lib/thumb\libg.a(lib_a-dtoa.o)
 .debug_abbrev  0x0000446e      0x382 c:/gnuarm-471_eabi/bin/../lib/gcc/arm-none-eabi/4.7.1/../../../../arm-none-eabi/lib/thumb\libg.a(lib_a-gdtoa-gethex.o)
 .debug_abbrev  0x000047f0      0x163 c:/gnuarm-471_eabi/bin/../lib/gcc/arm-none-eabi/4.7.1/../../../../arm-none-eabi/lib/thumb\libg.a(lib_a-gdtoa-hexnan.o)
 .debug_abbrev  0x00004953      0x162 c:/gnuarm-471_eabi/bin/../lib/gcc/arm-none-eabi/4.7.1/../../../../arm-none-eabi/lib/thumb\libg.a(lib_a-impure.o)
 .debug_abbrev  0x00004ab5      0x277 c:/gnuarm-471_eabi/bin/../lib/gcc/arm-none-eabi/4.7.1/../../../../arm-none-eabi/lib/thumb\libg.a(lib_a-locale.o)
 .debug_abbrev  0x00004d2c      0x284 c:/gnuarm-471_eabi/bin/../lib/gcc/arm-none-eabi/4.7.1/../../../../arm-none-eabi/lib/thumb\libg.a(lib_a-mallocr.o)
 .debug_abbrev  0x00004fb0       0xab c:/gnuarm-471_eabi/bin/../lib/gcc/arm-none-eabi/4.7.1/../../../../arm-none-eabi/lib/thumb\libg.a(lib_a-memchr-stub.o)
 .debug_abbrev  0x0000505b      0x17c c:/gnuarm-471_eabi/bin/../lib/gcc/arm-none-eabi/4.7.1/../../../../arm-none-eabi/lib/thumb\libg.a(lib_a-mlock.o)
 .debug_abbrev  0x000051d7      0x35c c:/gnuarm-471_eabi/bin/../lib/gcc/arm-none-eabi/4.7.1/../../../../arm-none-eabi/lib/thumb\libg.a(lib_a-mprec.o)
 .debug_abbrev  0x00005533       0xc8 c:/gnuarm-471_eabi/bin/../lib/gcc/arm-none-eabi/4.7.1/../../../../arm-none-eabi/lib/thumb\libg.a(lib_a-s_fpclassify.o)
 .debug_abbrev  0x000055fb       0x72 c:/gnuarm-471_eabi/bin/../lib/gcc/arm-none-eabi/4.7.1/../../../../arm-none-eabi/lib/thumb\libg.a(lib_a-sf_nan.o)
 .debug_abbrev  0x0000566d       0x72 c:/gnuarm-471_eabi/bin/../lib/gcc/arm-none-eabi/4.7.1/../../../../arm-none-eabi/lib/thumb\libg.a(lib_a-strcmp.o)
 .debug_abbrev  0x000056df       0x81 c:/gnuarm-471_eabi/bin/../lib/gcc/arm-none-eabi/4.7.1/../../../../arm-none-eabi/lib/thumb\libg.a(lib_a-strncmp.o)
 .debug_abbrev  0x00005760      0x2c9 c:/gnuarm-471_eabi/bin/../lib/gcc/arm-none-eabi/4.7.1/../../../../arm-none-eabi/lib/thumb\libg.a(lib_a-svfiprintf.o)
 .debug_abbrev  0x00005a29      0x204 c:/gnuarm-471_eabi/bin/../lib/gcc/arm-none-eabi/4.7.1/../../../../arm-none-eabi/lib/thumb\libg.a(lib_a-callocr.o)
 .debug_abbrev  0x00005c2d      0x24d c:/gnuarm-471_eabi/bin/../lib/gcc/arm-none-eabi/4.7.1/../../../../arm-none-eabi/lib/thumb\libg.a(lib_a-freer.o)
 .debug_abbrev  0x00005e7a       0xab c:/gnuarm-471_eabi/bin/../lib/gcc/arm-none-eabi/4.7.1/../../../../arm-none-eabi/lib/thumb\libg.a(lib_a-memmove.o)
 .debug_abbrev  0x00005f25      0x232 c:/gnuarm-471_eabi/bin/../lib/gcc/arm-none-eabi/4.7.1/../../../../arm-none-eabi/lib/thumb\libg.a(lib_a-reallocr.o)
 .debug_abbrev  0x00006157       0x14 c:/gnuarm-471_eabi/bin/../lib/gcc/arm-none-eabi/4.7.1/thumb\libgcc.a(_arm_fixdfsi.o)

.debug_line     0x00000000     0xb9e4
 *(.debug_line)
 .debug_line    0x00000000      0x19a Cstartup_SAM7.o
 .debug_line    0x0000019a      0x393 syscalls.o
 .debug_line    0x0000052d      0x1f8 portISR.o
 .debug_line    0x00000725      0x507 interrupts.o
 .debug_line    0x00000c2c      0x3bf main.o
 .debug_line    0x00000feb      0x2f4 heap_2.o
 .debug_line    0x000012df      0x936 functions.o
 .debug_line    0x00001c15      0xb62 display.o
 .debug_line    0x00002777     0x147f screens.o
 .debug_line    0x00003bf6      0x7b3 tasks.o
 .debug_line    0x000043a9      0x485 queue.o
 .debug_line    0x0000482e      0x2c5 list.o
 .debug_line    0x00004af3      0x304 port.o
 .debug_line    0x00004df7      0x34b serial.o
 .debug_line    0x00005142      0x354 comtest.o
 .debug_line    0x00005496      0x316 TWI_task.o
 .debug_line    0x000057ac      0x192 Operate.o
 .debug_line    0x0000593e      0x448 Power.o
 .debug_line    0x00005d86      0x148 bm_sym.o
 .debug_line    0x00005ece      0x148 bm_num.o
 .debug_line    0x00006016      0x14a bm_f1all.o
 .debug_line    0x00006160      0x14a bm_f1eur.o
 .debug_line    0x000062aa      0x14a bm_f1cyr.o
 .debug_line    0x000063f4      0x149 strings.o
 .debug_line    0x0000653d       0x91 c:/gnuarm-471_eabi/bin/../lib/gcc/arm-none-eabi/4.7.1/thumb\libgcc.a(_udivsi3.o)
 .debug_line    0x000065ce       0x9d c:/gnuarm-471_eabi/bin/../lib/gcc/arm-none-eabi/4.7.1/thumb\libgcc.a(_divsi3.o)
 .debug_line    0x0000666b       0x64 c:/gnuarm-471_eabi/bin/../lib/gcc/arm-none-eabi/4.7.1/thumb\libgcc.a(_dvmd_tls.o)
 .debug_line    0x000066cf      0x16b c:/gnuarm-471_eabi/bin/../lib/gcc/arm-none-eabi/4.7.1/thumb\libgcc.a(_arm_addsubdf3.o)
 .debug_line    0x0000683a      0x183 c:/gnuarm-471_eabi/bin/../lib/gcc/arm-none-eabi/4.7.1/thumb\libgcc.a(_arm_muldivdf3.o)
 .debug_line    0x000069bd       0xb1 c:/gnuarm-471_eabi/bin/../lib/gcc/arm-none-eabi/4.7.1/thumb\libgcc.a(_arm_cmpdf2.o)
 .debug_line    0x00006a6e       0x79 c:/gnuarm-471_eabi/bin/../lib/gcc/arm-none-eabi/4.7.1/thumb\libgcc.a(_arm_fixunsdfsi.o)
 .debug_line    0x00006ae7       0x8c c:/gnuarm-471_eabi/bin/../lib/gcc/arm-none-eabi/4.7.1/thumb\libgcc.a(_arm_truncdfsf2.o)
 .debug_line    0x00006b73      0x11c c:/gnuarm-471_eabi/bin/../lib/gcc/arm-none-eabi/4.7.1/thumb\libgcc.a(_arm_addsubsf3.o)
 .debug_line    0x00006c8f      0x126 c:/gnuarm-471_eabi/bin/../lib/gcc/arm-none-eabi/4.7.1/thumb\libgcc.a(_arm_muldivsf3.o)
 .debug_line    0x00006db5       0xa5 c:/gnuarm-471_eabi/bin/../lib/gcc/arm-none-eabi/4.7.1/thumb\libgcc.a(_arm_cmpsf2.o)
 .debug_line    0x00006e5a       0x79 c:/gnuarm-471_eabi/bin/../lib/gcc/arm-none-eabi/4.7.1/thumb\libgcc.a(_arm_fixunssfsi.o)
 .debug_line    0x00006ed3       0xb1 c:/gnuarm-471_eabi/bin/../lib/gcc/arm-none-eabi/4.7.1/../../../../arm-none-eabi/lib/thumb\libg.a(lib_a-atoff.o)
 .debug_line    0x00006f84      0x16e c:/gnuarm-471_eabi/bin/../lib/gcc/arm-none-eabi/4.7.1/../../../../arm-none-eabi/lib/thumb\libg.a(lib_a-atoi.o)
 .debug_line    0x000070f2      0x16d c:/gnuarm-471_eabi/bin/../lib/gcc/arm-none-eabi/4.7.1/../../../../arm-none-eabi/lib/thumb\libg.a(lib_a-atol.o)
 .debug_line    0x0000725f      0x18f c:/gnuarm-471_eabi/bin/../lib/gcc/arm-none-eabi/4.7.1/../../../../arm-none-eabi/lib/thumb\libg.a(lib_a-memcpy-stub.o)
 .debug_line    0x000073ee      0x162 c:/gnuarm-471_eabi/bin/../lib/gcc/arm-none-eabi/4.7.1/../../../../arm-none-eabi/lib/thumb\libg.a(lib_a-memset.o)
 .debug_line    0x00007550      0x1b3 c:/gnuarm-471_eabi/bin/../lib/gcc/arm-none-eabi/4.7.1/../../../../arm-none-eabi/lib/thumb\libg.a(lib_a-sprintf.o)
 .debug_line    0x00007703       0xc6 c:/gnuarm-471_eabi/bin/../lib/gcc/arm-none-eabi/4.7.1/../../../../arm-none-eabi/lib/thumb\libg.a(lib_a-strcat.o)
 .debug_line    0x000077c9       0xbb c:/gnuarm-471_eabi/bin/../lib/gcc/arm-none-eabi/4.7.1/../../../../arm-none-eabi/lib/thumb\libg.a(lib_a-strcpy.o)
 .debug_line    0x00007884      0x11c c:/gnuarm-471_eabi/bin/../lib/gcc/arm-none-eabi/4.7.1/../../../../arm-none-eabi/lib/thumb\libg.a(lib_a-strlen.o)
 .debug_line    0x000079a0      0x153 c:/gnuarm-471_eabi/bin/../lib/gcc/arm-none-eabi/4.7.1/../../../../arm-none-eabi/lib/thumb\libg.a(lib_a-strncpy.o)
 .debug_line    0x00007af3      0x665 c:/gnuarm-471_eabi/bin/../lib/gcc/arm-none-eabi/4.7.1/../../../../arm-none-eabi/lib/thumb\libg.a(lib_a-strtod.o)
 .debug_line    0x00008158      0x208 c:/gnuarm-471_eabi/bin/../lib/gcc/arm-none-eabi/4.7.1/../../../../arm-none-eabi/lib/thumb\libg.a(lib_a-strtol.o)
 .debug_line    0x00008360      0x8cf c:/gnuarm-471_eabi/bin/../lib/gcc/arm-none-eabi/4.7.1/../../../../arm-none-eabi/lib/thumb\libg.a(lib_a-svfprintf.o)
 .debug_line    0x00008c2f       0x63 c:/gnuarm-471_eabi/bin/../lib/gcc/arm-none-eabi/4.7.1/../../../../arm-none-eabi/lib/thumb\libg.a(lib_a-ctype_.o)
 .debug_line    0x00008c92      0x74e c:/gnuarm-471_eabi/bin/../lib/gcc/arm-none-eabi/4.7.1/../../../../arm-none-eabi/lib/thumb\libg.a(lib_a-dtoa.o)
 .debug_line    0x000093e0      0x3c6 c:/gnuarm-471_eabi/bin/../lib/gcc/arm-none-eabi/4.7.1/../../../../arm-none-eabi/lib/thumb\libg.a(lib_a-gdtoa-gethex.o)
 .debug_line    0x000097a6      0x14e c:/gnuarm-471_eabi/bin/../lib/gcc/arm-none-eabi/4.7.1/../../../../arm-none-eabi/lib/thumb\libg.a(lib_a-gdtoa-hexnan.o)
 .debug_line    0x000098f4      0x113 c:/gnuarm-471_eabi/bin/../lib/gcc/arm-none-eabi/4.7.1/../../../../arm-none-eabi/lib/thumb\libg.a(lib_a-impure.o)
 .debug_line    0x00009a07      0x1b7 c:/gnuarm-471_eabi/bin/../lib/gcc/arm-none-eabi/4.7.1/../../../../arm-none-eabi/lib/thumb\libg.a(lib_a-locale.o)
 .debug_line    0x00009bbe      0x398 c:/gnuarm-471_eabi/bin/../lib/gcc/arm-none-eabi/4.7.1/../../../../arm-none-eabi/lib/thumb\libg.a(lib_a-mallocr.o)
 .debug_line    0x00009f56      0x158 c:/gnuarm-471_eabi/bin/../lib/gcc/arm-none-eabi/4.7.1/../../../../arm-none-eabi/lib/thumb\libg.a(lib_a-memchr-stub.o)
 .debug_line    0x0000a0ae      0x125 c:/gnuarm-471_eabi/bin/../lib/gcc/arm-none-eabi/4.7.1/../../../../arm-none-eabi/lib/thumb\libg.a(lib_a-mlock.o)
 .debug_line    0x0000a1d3      0x5f9 c:/gnuarm-471_eabi/bin/../lib/gcc/arm-none-eabi/4.7.1/../../../../arm-none-eabi/lib/thumb\libg.a(lib_a-mprec.o)
 .debug_line    0x0000a7cc      0x142 c:/gnuarm-471_eabi/bin/../lib/gcc/arm-none-eabi/4.7.1/../../../../arm-none-eabi/lib/thumb\libg.a(lib_a-s_fpclassify.o)
 .debug_line    0x0000a90e       0xaf c:/gnuarm-471_eabi/bin/../lib/gcc/arm-none-eabi/4.7.1/../../../../arm-none-eabi/lib/thumb\libg.a(lib_a-sf_nan.o)
 .debug_line    0x0000a9bd       0xbb c:/gnuarm-471_eabi/bin/../lib/gcc/arm-none-eabi/4.7.1/../../../../arm-none-eabi/lib/thumb\libg.a(lib_a-strcmp.o)
 .debug_line    0x0000aa78      0x17a c:/gnuarm-471_eabi/bin/../lib/gcc/arm-none-eabi/4.7.1/../../../../arm-none-eabi/lib/thumb\libg.a(lib_a-strncmp.o)
 .debug_line    0x0000abf2      0x5a1 c:/gnuarm-471_eabi/bin/../lib/gcc/arm-none-eabi/4.7.1/../../../../arm-none-eabi/lib/thumb\libg.a(lib_a-svfiprintf.o)
 .debug_line    0x0000b193      0x154 c:/gnuarm-471_eabi/bin/../lib/gcc/arm-none-eabi/4.7.1/../../../../arm-none-eabi/lib/thumb\libg.a(lib_a-callocr.o)
 .debug_line    0x0000b2e7      0x23f c:/gnuarm-471_eabi/bin/../lib/gcc/arm-none-eabi/4.7.1/../../../../arm-none-eabi/lib/thumb\libg.a(lib_a-freer.o)
 .debug_line    0x0000b526      0x19f c:/gnuarm-471_eabi/bin/../lib/gcc/arm-none-eabi/4.7.1/../../../../arm-none-eabi/lib/thumb\libg.a(lib_a-memmove.o)
 .debug_line    0x0000b6c5      0x2a4 c:/gnuarm-471_eabi/bin/../lib/gcc/arm-none-eabi/4.7.1/../../../../arm-none-eabi/lib/thumb\libg.a(lib_a-reallocr.o)
 .debug_line    0x0000b969       0x7b c:/gnuarm-471_eabi/bin/../lib/gcc/arm-none-eabi/4.7.1/thumb\libgcc.a(_arm_fixdfsi.o)

.debug_frame    0x00000000     0x2074
 *(.debug_frame)
 .debug_frame   0x00000000       0x20 Cstartup_SAM7.o
 .debug_frame   0x00000020       0xbc syscalls.o
 .debug_frame   0x000000dc       0x9c portISR.o
 .debug_frame   0x00000178      0x1f4 interrupts.o
 .debug_frame   0x0000036c       0x44 main.o
 .debug_frame   0x000003b0       0x70 heap_2.o
 .debug_frame   0x00000420      0x26c functions.o
 .debug_frame   0x0000068c      0x2d4 display.o
 .debug_frame   0x00000960      0x4a0 screens.o
 .debug_frame   0x00000e00      0x360 tasks.o
 .debug_frame   0x00001160      0x1a4 queue.o
 .debug_frame   0x00001304       0x74 list.o
 .debug_frame   0x00001378       0x58 port.o
 .debug_frame   0x000013d0       0xc0 serial.o
 .debug_frame   0x00001490       0x74 comtest.o
 .debug_frame   0x00001504       0x54 TWI_task.o
 .debug_frame   0x00001558       0x58 Operate.o
 .debug_frame   0x000015b0       0xd4 Power.o
 .debug_frame   0x00001684       0x20 c:/gnuarm-471_eabi/bin/../lib/gcc/arm-none-eabi/4.7.1/thumb\libgcc.a(_udivsi3.o)
 .debug_frame   0x000016a4       0x20 c:/gnuarm-471_eabi/bin/../lib/gcc/arm-none-eabi/4.7.1/thumb\libgcc.a(_divsi3.o)
 .debug_frame   0x000016c4       0x28 c:/gnuarm-471_eabi/bin/../lib/gcc/arm-none-eabi/4.7.1/../../../../arm-none-eabi/lib/thumb\libg.a(lib_a-atoff.o)
 .debug_frame   0x000016ec       0x40 c:/gnuarm-471_eabi/bin/../lib/gcc/arm-none-eabi/4.7.1/../../../../arm-none-eabi/lib/thumb\libg.a(lib_a-atoi.o)
 .debug_frame   0x0000172c       0x40 c:/gnuarm-471_eabi/bin/../lib/gcc/arm-none-eabi/4.7.1/../../../../arm-none-eabi/lib/thumb\libg.a(lib_a-atol.o)
 .debug_frame   0x0000176c       0x30 c:/gnuarm-471_eabi/bin/../lib/gcc/arm-none-eabi/4.7.1/../../../../arm-none-eabi/lib/thumb\libg.a(lib_a-memcpy-stub.o)
 .debug_frame   0x0000179c       0x2c c:/gnuarm-471_eabi/bin/../lib/gcc/arm-none-eabi/4.7.1/../../../../arm-none-eabi/lib/thumb\libg.a(lib_a-memset.o)
 .debug_frame   0x000017c8       0x4c c:/gnuarm-471_eabi/bin/../lib/gcc/arm-none-eabi/4.7.1/../../../../arm-none-eabi/lib/thumb\libg.a(lib_a-sprintf.o)
 .debug_frame   0x00001814       0x30 c:/gnuarm-471_eabi/bin/../lib/gcc/arm-none-eabi/4.7.1/../../../../arm-none-eabi/lib/thumb\libg.a(lib_a-strcat.o)
 .debug_frame   0x00001844       0x20 c:/gnuarm-471_eabi/bin/../lib/gcc/arm-none-eabi/4.7.1/../../../../arm-none-eabi/lib/thumb\libg.a(lib_a-strcpy.o)
 .debug_frame   0x00001864       0x20 c:/gnuarm-471_eabi/bin/../lib/gcc/arm-none-eabi/4.7.1/../../../../arm-none-eabi/lib/thumb\libg.a(lib_a-strlen.o)
 .debug_frame   0x00001884       0x30 c:/gnuarm-471_eabi/bin/../lib/gcc/arm-none-eabi/4.7.1/../../../../arm-none-eabi/lib/thumb\libg.a(lib_a-strncpy.o)
 .debug_frame   0x000018b4       0x70 c:/gnuarm-471_eabi/bin/../lib/gcc/arm-none-eabi/4.7.1/../../../../arm-none-eabi/lib/thumb\libg.a(lib_a-strtod.o)
 .debug_frame   0x00001924       0x58 c:/gnuarm-471_eabi/bin/../lib/gcc/arm-none-eabi/4.7.1/../../../../arm-none-eabi/lib/thumb\libg.a(lib_a-strtol.o)
 .debug_frame   0x0000197c       0x3c c:/gnuarm-471_eabi/bin/../lib/gcc/arm-none-eabi/4.7.1/../../../../arm-none-eabi/lib/thumb\libg.a(lib_a-svfprintf.o)
 .debug_frame   0x000019b8       0x68 c:/gnuarm-471_eabi/bin/../lib/gcc/arm-none-eabi/4.7.1/../../../../arm-none-eabi/lib/thumb\libg.a(lib_a-dtoa.o)
 .debug_frame   0x00001a20       0x78 c:/gnuarm-471_eabi/bin/../lib/gcc/arm-none-eabi/4.7.1/../../../../arm-none-eabi/lib/thumb\libg.a(lib_a-gdtoa-gethex.o)
 .debug_frame   0x00001a98       0x3c c:/gnuarm-471_eabi/bin/../lib/gcc/arm-none-eabi/4.7.1/../../../../arm-none-eabi/lib/thumb\libg.a(lib_a-gdtoa-hexnan.o)
 .debug_frame   0x00001ad4       0xa4 c:/gnuarm-471_eabi/bin/../lib/gcc/arm-none-eabi/4.7.1/../../../../arm-none-eabi/lib/thumb\libg.a(lib_a-locale.o)
 .debug_frame   0x00001b78       0x3c c:/gnuarm-471_eabi/bin/../lib/gcc/arm-none-eabi/4.7.1/../../../../arm-none-eabi/lib/thumb\libg.a(lib_a-mallocr.o)
 .debug_frame   0x00001bb4       0x30 c:/gnuarm-471_eabi/bin/../lib/gcc/arm-none-eabi/4.7.1/../../../../arm-none-eabi/lib/thumb\libg.a(lib_a-memchr-stub.o)
 .debug_frame   0x00001be4       0x30 c:/gnuarm-471_eabi/bin/../lib/gcc/arm-none-eabi/4.7.1/../../../../arm-none-eabi/lib/thumb\libg.a(lib_a-mlock.o)
 .debug_frame   0x00001c14      0x27c c:/gnuarm-471_eabi/bin/../lib/gcc/arm-none-eabi/4.7.1/../../../../arm-none-eabi/lib/thumb\libg.a(lib_a-mprec.o)
 .debug_frame   0x00001e90       0x28 c:/gnuarm-471_eabi/bin/../lib/gcc/arm-none-eabi/4.7.1/../../../../arm-none-eabi/lib/thumb\libg.a(lib_a-s_fpclassify.o)
 .debug_frame   0x00001eb8       0x20 c:/gnuarm-471_eabi/bin/../lib/gcc/arm-none-eabi/4.7.1/../../../../arm-none-eabi/lib/thumb\libg.a(lib_a-sf_nan.o)
 .debug_frame   0x00001ed8       0x20 c:/gnuarm-471_eabi/bin/../lib/gcc/arm-none-eabi/4.7.1/../../../../arm-none-eabi/lib/thumb\libg.a(lib_a-strcmp.o)
 .debug_frame   0x00001ef8       0x2c c:/gnuarm-471_eabi/bin/../lib/gcc/arm-none-eabi/4.7.1/../../../../arm-none-eabi/lib/thumb\libg.a(lib_a-strncmp.o)
 .debug_frame   0x00001f24       0x68 c:/gnuarm-471_eabi/bin/../lib/gcc/arm-none-eabi/4.7.1/../../../../arm-none-eabi/lib/thumb\libg.a(lib_a-svfiprintf.o)
 .debug_frame   0x00001f8c       0x28 c:/gnuarm-471_eabi/bin/../lib/gcc/arm-none-eabi/4.7.1/../../../../arm-none-eabi/lib/thumb\libg.a(lib_a-callocr.o)
 .debug_frame   0x00001fb4       0x54 c:/gnuarm-471_eabi/bin/../lib/gcc/arm-none-eabi/4.7.1/../../../../arm-none-eabi/lib/thumb\libg.a(lib_a-freer.o)
 .debug_frame   0x00002008       0x30 c:/gnuarm-471_eabi/bin/../lib/gcc/arm-none-eabi/4.7.1/../../../../arm-none-eabi/lib/thumb\libg.a(lib_a-memmove.o)
 .debug_frame   0x00002038       0x3c c:/gnuarm-471_eabi/bin/../lib/gcc/arm-none-eabi/4.7.1/../../../../arm-none-eabi/lib/thumb\libg.a(lib_a-reallocr.o)

.debug_str      0x00000000    0x2adb4
 *(.debug_str)
 .debug_str     0x00000000    0x1c02d Cstartup_SAM7.o
                              0x1c11a (size before relaxing)
 .debug_str     0x0001c02d     0x2775 syscalls.o
                              0x1e77e (size before relaxing)
 .debug_str     0x0001e7a2      0x30a portISR.o
                              0x1c2ff (size before relaxing)
 .debug_str     0x0001eaac      0x9a5 interrupts.o
                              0x1e532 (size before relaxing)
 .debug_str     0x0001f451      0xb71 main.o
                              0x1eaba (size before relaxing)
 .debug_str     0x0001ffc2      0x4b5 heap_2.o
                               0x5f75 (size before relaxing)
 .debug_str     0x00020477     0x1f5c functions.o
                              0x20e27 (size before relaxing)
 .debug_str     0x000223d3      0x461 display.o
                              0x20010 (size before relaxing)
 .debug_str     0x00022834     0x4228 screens.o
                              0x24569 (size before relaxing)
 .debug_str     0x00026a5c      0xd6c tasks.o
                               0x786f (size before relaxing)
 .debug_str     0x000277c8      0x9ef queue.o
                               0x6ae0 (size before relaxing)
 .debug_str     0x000281b7       0x3d list.o
                               0x58c2 (size before relaxing)
 .debug_str     0x000281f4      0x2bc port.o
                              0x1dd98 (size before relaxing)
 .debug_str     0x000284b0       0xff serial.o
                              0x1dc56 (size before relaxing)
 .debug_str     0x000285af       0x37 comtest.o
                              0x1e8e6 (size before relaxing)
 .debug_str     0x000285e6       0x15 TWI_task.o
                              0x1da6e (size before relaxing)
 .debug_str     0x000285fb       0x17 Operate.o
                              0x1c7ab (size before relaxing)
 .debug_str     0x00028612      0x1ed Power.o
                              0x1ec00 (size before relaxing)
 .debug_str     0x000287ff       0xf9 bm_sym.o
                              0x1caaf (size before relaxing)
 .debug_str     0x000288f8      0x40f bm_num.o
                              0x1c365 (size before relaxing)
 .debug_str     0x00028d07      0x2c2 bm_f1all.o
                              0x1c27b (size before relaxing)
 .debug_str     0x00028fc9      0x303 bm_f1eur.o
                              0x1c565 (size before relaxing)
 .debug_str     0x000292cc      0x26b bm_f1cyr.o
                              0x1c4cd (size before relaxing)
 .debug_str     0x00029537      0x45f strings.o
                              0x1c3a3 (size before relaxing)
 .debug_str     0x00029996       0x88 c:/gnuarm-471_eabi/bin/../lib/gcc/arm-none-eabi/4.7.1/../../../../arm-none-eabi/lib/thumb\libg.a(lib_a-atoff.o)
                                0x139 (size before relaxing)
 .debug_str     0x00029a1e       0x53 c:/gnuarm-471_eabi/bin/../lib/gcc/arm-none-eabi/4.7.1/../../../../arm-none-eabi/lib/thumb\libg.a(lib_a-atoi.o)
                                0x4f2 (size before relaxing)
 .debug_str     0x00029a71       0x42 c:/gnuarm-471_eabi/bin/../lib/gcc/arm-none-eabi/4.7.1/../../../../arm-none-eabi/lib/thumb\libg.a(lib_a-atol.o)
                                0x4f2 (size before relaxing)
 .debug_str     0x00029ab3       0xc2 c:/gnuarm-471_eabi/bin/../lib/gcc/arm-none-eabi/4.7.1/../../../../arm-none-eabi/lib/thumb\libg.a(lib_a-memcpy-stub.o)
                                0x16e (size before relaxing)
 .debug_str     0x00029b75       0x96 c:/gnuarm-471_eabi/bin/../lib/gcc/arm-none-eabi/4.7.1/../../../../arm-none-eabi/lib/thumb\libg.a(lib_a-memset.o)
                                0x149 (size before relaxing)
 .debug_str     0x00029c0b       0xa5 c:/gnuarm-471_eabi/bin/../lib/gcc/arm-none-eabi/4.7.1/../../../../arm-none-eabi/lib/thumb\libg.a(lib_a-sprintf.o)
                                0x52c (size before relaxing)
 .debug_str     0x00029cb0       0x47 c:/gnuarm-471_eabi/bin/../lib/gcc/arm-none-eabi/4.7.1/../../../../arm-none-eabi/lib/thumb\libg.a(lib_a-strcat.o)
                                0x140 (size before relaxing)
 .debug_str     0x00029cf7       0x44 c:/gnuarm-471_eabi/bin/../lib/gcc/arm-none-eabi/4.7.1/../../../../arm-none-eabi/lib/thumb\libg.a(lib_a-strcpy.o)
                                0x13b (size before relaxing)
 .debug_str     0x00029d3b       0x4c c:/gnuarm-471_eabi/bin/../lib/gcc/arm-none-eabi/4.7.1/../../../../arm-none-eabi/lib/thumb\libg.a(lib_a-strlen.o)
                                0x14a (size before relaxing)
 .debug_str     0x00029d87       0x3d c:/gnuarm-471_eabi/bin/../lib/gcc/arm-none-eabi/4.7.1/../../../../arm-none-eabi/lib/thumb\libg.a(lib_a-strncpy.o)
                                0x15f (size before relaxing)
 .debug_str     0x00029dc4      0x38d c:/gnuarm-471_eabi/bin/../lib/gcc/arm-none-eabi/4.7.1/../../../../arm-none-eabi/lib/thumb\libg.a(lib_a-strtod.o)
                                0x903 (size before relaxing)
 .debug_str     0x0002a151       0x64 c:/gnuarm-471_eabi/bin/../lib/gcc/arm-none-eabi/4.7.1/../../../../arm-none-eabi/lib/thumb\libg.a(lib_a-strtol.o)
                                0x525 (size before relaxing)
 .debug_str     0x0002a1b5      0x18f c:/gnuarm-471_eabi/bin/../lib/gcc/arm-none-eabi/4.7.1/../../../../arm-none-eabi/lib/thumb\libg.a(lib_a-svfprintf.o)
                                0x874 (size before relaxing)
 .debug_str     0x0002a344       0x8f c:/gnuarm-471_eabi/bin/../lib/gcc/arm-none-eabi/4.7.1/../../../../arm-none-eabi/lib/thumb\libg.a(lib_a-ctype_.o)
                                 0xb7 (size before relaxing)
 .debug_str     0x0002a3d3       0xe6 c:/gnuarm-471_eabi/bin/../lib/gcc/arm-none-eabi/4.7.1/../../../../arm-none-eabi/lib/thumb\libg.a(lib_a-dtoa.o)
                                0x651 (size before relaxing)
 .debug_str     0x0002a4b9       0xef c:/gnuarm-471_eabi/bin/../lib/gcc/arm-none-eabi/4.7.1/../../../../arm-none-eabi/lib/thumb\libg.a(lib_a-gdtoa-gethex.o)
                                0x88a (size before relaxing)
 .debug_str     0x0002a5a8       0x4a c:/gnuarm-471_eabi/bin/../lib/gcc/arm-none-eabi/4.7.1/../../../../arm-none-eabi/lib/thumb\libg.a(lib_a-gdtoa-hexnan.o)
                                0x272 (size before relaxing)
 .debug_str     0x0002a5f2       0x93 c:/gnuarm-471_eabi/bin/../lib/gcc/arm-none-eabi/4.7.1/../../../../arm-none-eabi/lib/thumb\libg.a(lib_a-impure.o)
                                0x4ff (size before relaxing)
 .debug_str     0x0002a685      0x170 c:/gnuarm-471_eabi/bin/../lib/gcc/arm-none-eabi/4.7.1/../../../../arm-none-eabi/lib/thumb\libg.a(lib_a-locale.o)
                                0x75c (size before relaxing)
 .debug_str     0x0002a7f5      0x225 c:/gnuarm-471_eabi/bin/../lib/gcc/arm-none-eabi/4.7.1/../../../../arm-none-eabi/lib/thumb\libg.a(lib_a-mallocr.o)
                                0x70e (size before relaxing)
 .debug_str     0x0002aa1a       0x57 c:/gnuarm-471_eabi/bin/../lib/gcc/arm-none-eabi/4.7.1/../../../../arm-none-eabi/lib/thumb\libg.a(lib_a-memchr-stub.o)
                                0x161 (size before relaxing)
 .debug_str     0x0002aa71       0x50 c:/gnuarm-471_eabi/bin/../lib/gcc/arm-none-eabi/4.7.1/../../../../arm-none-eabi/lib/thumb\libg.a(lib_a-mlock.o)
                                0x508 (size before relaxing)
 .debug_str     0x0002aac1       0x7e c:/gnuarm-471_eabi/bin/../lib/gcc/arm-none-eabi/4.7.1/../../../../arm-none-eabi/lib/thumb\libg.a(lib_a-mprec.o)
                                0x60b (size before relaxing)
 .debug_str     0x0002ab3f       0xb1 c:/gnuarm-471_eabi/bin/../lib/gcc/arm-none-eabi/4.7.1/../../../../arm-none-eabi/lib/thumb\libg.a(lib_a-s_fpclassify.o)
                                0x187 (size before relaxing)
 .debug_str     0x0002abf0       0x3c c:/gnuarm-471_eabi/bin/../lib/gcc/arm-none-eabi/4.7.1/../../../../arm-none-eabi/lib/thumb\libg.a(lib_a-sf_nan.o)
                                0x14c (size before relaxing)
 .debug_str     0x0002ac2c       0x44 c:/gnuarm-471_eabi/bin/../lib/gcc/arm-none-eabi/4.7.1/../../../../arm-none-eabi/lib/thumb\libg.a(lib_a-strcmp.o)
                                0x13b (size before relaxing)
 .debug_str     0x0002ac70       0x3d c:/gnuarm-471_eabi/bin/../lib/gcc/arm-none-eabi/4.7.1/../../../../arm-none-eabi/lib/thumb\libg.a(lib_a-strncmp.o)
                                0x137 (size before relaxing)
 .debug_str     0x0002acad       0x30 c:/gnuarm-471_eabi/bin/../lib/gcc/arm-none-eabi/4.7.1/../../../../arm-none-eabi/lib/thumb\libg.a(lib_a-svfiprintf.o)
                                0x677 (size before relaxing)
 .debug_str     0x0002acdd        0xf c:/gnuarm-471_eabi/bin/../lib/gcc/arm-none-eabi/4.7.1/../../../../arm-none-eabi/lib/thumb\libg.a(lib_a-callocr.o)
                                0x538 (size before relaxing)
 .debug_str     0x0002acec       0x34 c:/gnuarm-471_eabi/bin/../lib/gcc/arm-none-eabi/4.7.1/../../../../arm-none-eabi/lib/thumb\libg.a(lib_a-freer.o)
                                0x658 (size before relaxing)
 .debug_str     0x0002ad20       0x46 c:/gnuarm-471_eabi/bin/../lib/gcc/arm-none-eabi/4.7.1/../../../../arm-none-eabi/lib/thumb\libg.a(lib_a-memmove.o)
                                0x168 (size before relaxing)
 .debug_str     0x0002ad66       0x4e c:/gnuarm-471_eabi/bin/../lib/gcc/arm-none-eabi/4.7.1/../../../../arm-none-eabi/lib/thumb\libg.a(lib_a-reallocr.o)
                                0x5e0 (size before relaxing)

.debug_loc      0x00000000    0x18ff1
 *(.debug_loc)
 .debug_loc     0x00000000       0x1f Cstartup_SAM7.o
 .debug_loc     0x0000001f      0x3b9 syscalls.o
 .debug_loc     0x000003d8       0x4c portISR.o
 .debug_loc     0x00000424      0x4dc interrupts.o
 .debug_loc     0x00000900       0x2c main.o
 .debug_loc     0x0000092c      0x24a heap_2.o
 .debug_loc     0x00000b76      0x77b functions.o
 .debug_loc     0x000012f1     0x22f2 display.o
 .debug_loc     0x000035e3     0x29e3 screens.o
 .debug_loc     0x00005fc6      0xe6d tasks.o
 .debug_loc     0x00006e33      0x7f2 queue.o
 .debug_loc     0x00007625       0xab list.o
 .debug_loc     0x000076d0      0x1eb port.o
 .debug_loc     0x000078bb      0x352 serial.o
 .debug_loc     0x00007c0d      0x13d comtest.o
 .debug_loc     0x00007d4a       0xba TWI_task.o
 .debug_loc     0x00007e04       0xb2 Operate.o
 .debug_loc     0x00007eb6      0x522 Power.o
 .debug_loc     0x000083d8       0x41 c:/gnuarm-471_eabi/bin/../lib/gcc/arm-none-eabi/4.7.1/../../../../arm-none-eabi/lib/thumb\libg.a(lib_a-atoff.o)
 .debug_loc     0x00008419       0xa3 c:/gnuarm-471_eabi/bin/../lib/gcc/arm-none-eabi/4.7.1/../../../../arm-none-eabi/lib/thumb\libg.a(lib_a-atoi.o)
 .debug_loc     0x000084bc       0xa3 c:/gnuarm-471_eabi/bin/../lib/gcc/arm-none-eabi/4.7.1/../../../../arm-none-eabi/lib/thumb\libg.a(lib_a-atol.o)
 .debug_loc     0x0000855f      0x23a c:/gnuarm-471_eabi/bin/../lib/gcc/arm-none-eabi/4.7.1/../../../../arm-none-eabi/lib/thumb\libg.a(lib_a-memcpy-stub.o)
 .debug_loc     0x00008799      0x17e c:/gnuarm-471_eabi/bin/../lib/gcc/arm-none-eabi/4.7.1/../../../../arm-none-eabi/lib/thumb\libg.a(lib_a-memset.o)
 .debug_loc     0x00008917      0x106 c:/gnuarm-471_eabi/bin/../lib/gcc/arm-none-eabi/4.7.1/../../../../arm-none-eabi/lib/thumb\libg.a(lib_a-sprintf.o)
 .debug_loc     0x00008a1d       0xd2 c:/gnuarm-471_eabi/bin/../lib/gcc/arm-none-eabi/4.7.1/../../../../arm-none-eabi/lib/thumb\libg.a(lib_a-strcat.o)
 .debug_loc     0x00008aef       0x21 c:/gnuarm-471_eabi/bin/../lib/gcc/arm-none-eabi/4.7.1/../../../../arm-none-eabi/lib/thumb\libg.a(lib_a-strcpy.o)
 .debug_loc     0x00008b10       0x21 c:/gnuarm-471_eabi/bin/../lib/gcc/arm-none-eabi/4.7.1/../../../../arm-none-eabi/lib/thumb\libg.a(lib_a-strlen.o)
 .debug_loc     0x00008b31      0x13c c:/gnuarm-471_eabi/bin/../lib/gcc/arm-none-eabi/4.7.1/../../../../arm-none-eabi/lib/thumb\libg.a(lib_a-strncpy.o)
 .debug_loc     0x00008c6d     0x2547 c:/gnuarm-471_eabi/bin/../lib/gcc/arm-none-eabi/4.7.1/../../../../arm-none-eabi/lib/thumb\libg.a(lib_a-strtod.o)
 .debug_loc     0x0000b1b4      0x3fa c:/gnuarm-471_eabi/bin/../lib/gcc/arm-none-eabi/4.7.1/../../../../arm-none-eabi/lib/thumb\libg.a(lib_a-strtol.o)
 .debug_loc     0x0000b5ae     0x31aa c:/gnuarm-471_eabi/bin/../lib/gcc/arm-none-eabi/4.7.1/../../../../arm-none-eabi/lib/thumb\libg.a(lib_a-svfprintf.o)
 .debug_loc     0x0000e758     0x2327 c:/gnuarm-471_eabi/bin/../lib/gcc/arm-none-eabi/4.7.1/../../../../arm-none-eabi/lib/thumb\libg.a(lib_a-dtoa.o)
 .debug_loc     0x00010a7f     0x130d c:/gnuarm-471_eabi/bin/../lib/gcc/arm-none-eabi/4.7.1/../../../../arm-none-eabi/lib/thumb\libg.a(lib_a-gdtoa-gethex.o)
 .debug_loc     0x00011d8c      0x617 c:/gnuarm-471_eabi/bin/../lib/gcc/arm-none-eabi/4.7.1/../../../../arm-none-eabi/lib/thumb\libg.a(lib_a-gdtoa-hexnan.o)
 .debug_loc     0x000123a3      0x127 c:/gnuarm-471_eabi/bin/../lib/gcc/arm-none-eabi/4.7.1/../../../../arm-none-eabi/lib/thumb\libg.a(lib_a-locale.o)
 .debug_loc     0x000124ca      0xe06 c:/gnuarm-471_eabi/bin/../lib/gcc/arm-none-eabi/4.7.1/../../../../arm-none-eabi/lib/thumb\libg.a(lib_a-mallocr.o)
 .debug_loc     0x000132d0      0x1aa c:/gnuarm-471_eabi/bin/../lib/gcc/arm-none-eabi/4.7.1/../../../../arm-none-eabi/lib/thumb\libg.a(lib_a-memchr-stub.o)
 .debug_loc     0x0001347a     0x1d73 c:/gnuarm-471_eabi/bin/../lib/gcc/arm-none-eabi/4.7.1/../../../../arm-none-eabi/lib/thumb\libg.a(lib_a-mprec.o)
 .debug_loc     0x000151ed       0xaf c:/gnuarm-471_eabi/bin/../lib/gcc/arm-none-eabi/4.7.1/../../../../arm-none-eabi/lib/thumb\libg.a(lib_a-s_fpclassify.o)
 .debug_loc     0x0001529c       0x21 c:/gnuarm-471_eabi/bin/../lib/gcc/arm-none-eabi/4.7.1/../../../../arm-none-eabi/lib/thumb\libg.a(lib_a-sf_nan.o)
 .debug_loc     0x000152bd       0x21 c:/gnuarm-471_eabi/bin/../lib/gcc/arm-none-eabi/4.7.1/../../../../arm-none-eabi/lib/thumb\libg.a(lib_a-strcmp.o)
 .debug_loc     0x000152de      0x1d9 c:/gnuarm-471_eabi/bin/../lib/gcc/arm-none-eabi/4.7.1/../../../../arm-none-eabi/lib/thumb\libg.a(lib_a-strncmp.o)
 .debug_loc     0x000154b7     0x185d c:/gnuarm-471_eabi/bin/../lib/gcc/arm-none-eabi/4.7.1/../../../../arm-none-eabi/lib/thumb\libg.a(lib_a-svfiprintf.o)
 .debug_loc     0x00016d14      0x246 c:/gnuarm-471_eabi/bin/../lib/gcc/arm-none-eabi/4.7.1/../../../../arm-none-eabi/lib/thumb\libg.a(lib_a-callocr.o)
 .debug_loc     0x00016f5a      0x685 c:/gnuarm-471_eabi/bin/../lib/gcc/arm-none-eabi/4.7.1/../../../../arm-none-eabi/lib/thumb\libg.a(lib_a-freer.o)
 .debug_loc     0x000175df      0x274 c:/gnuarm-471_eabi/bin/../lib/gcc/arm-none-eabi/4.7.1/../../../../arm-none-eabi/lib/thumb\libg.a(lib_a-memmove.o)
 .debug_loc     0x00017853     0x179e c:/gnuarm-471_eabi/bin/../lib/gcc/arm-none-eabi/4.7.1/../../../../arm-none-eabi/lib/thumb\libg.a(lib_a-reallocr.o)

.debug_macinfo
 *(.debug_macinfo)

.debug_weaknames
 *(.debug_weaknames)

.debug_funcnames
 *(.debug_funcnames)

.debug_typenames
 *(.debug_typenames)

.debug_varnames
 *(.debug_varnames)
OUTPUT(GW302XXX.out elf32-littlearm)

.debug_ranges   0x00000000      0xbd0
 .debug_ranges  0x00000000       0x10 Cstartup_SAM7.o
 .debug_ranges  0x00000010       0x40 syscalls.o
 .debug_ranges  0x00000050       0x48 portISR.o
 .debug_ranges  0x00000098       0xb0 interrupts.o
 .debug_ranges  0x00000148       0x10 main.o
 .debug_ranges  0x00000158       0x28 heap_2.o
 .debug_ranges  0x00000180       0xa0 functions.o
 .debug_ranges  0x00000220       0x90 display.o
 .debug_ranges  0x000002b0       0xd8 screens.o
 .debug_ranges  0x00000388      0x180 tasks.o
 .debug_ranges  0x00000508       0x70 queue.o
 .debug_ranges  0x00000578       0x30 list.o
 .debug_ranges  0x000005a8       0x20 port.o
 .debug_ranges  0x000005c8       0x38 serial.o
 .debug_ranges  0x00000600       0x20 comtest.o
 .debug_ranges  0x00000620       0x18 TWI_task.o
 .debug_ranges  0x00000638       0x18 Operate.o
 .debug_ranges  0x00000650       0x38 Power.o
 .debug_ranges  0x00000688       0xf0 c:/gnuarm-471_eabi/bin/../lib/gcc/arm-none-eabi/4.7.1/../../../../arm-none-eabi/lib/thumb\libg.a(lib_a-strtod.o)
 .debug_ranges  0x00000778      0x1a8 c:/gnuarm-471_eabi/bin/../lib/gcc/arm-none-eabi/4.7.1/../../../../arm-none-eabi/lib/thumb\libg.a(lib_a-svfprintf.o)
 .debug_ranges  0x00000920       0x40 c:/gnuarm-471_eabi/bin/../lib/gcc/arm-none-eabi/4.7.1/../../../../arm-none-eabi/lib/thumb\libg.a(lib_a-gdtoa-gethex.o)
 .debug_ranges  0x00000960       0x70 c:/gnuarm-471_eabi/bin/../lib/gcc/arm-none-eabi/4.7.1/../../../../arm-none-eabi/lib/thumb\libg.a(lib_a-mallocr.o)
 .debug_ranges  0x000009d0       0x48 c:/gnuarm-471_eabi/bin/../lib/gcc/arm-none-eabi/4.7.1/../../../../arm-none-eabi/lib/thumb\libg.a(lib_a-mprec.o)
 .debug_ranges  0x00000a18       0x40 c:/gnuarm-471_eabi/bin/../lib/gcc/arm-none-eabi/4.7.1/../../../../arm-none-eabi/lib/thumb\libg.a(lib_a-svfiprintf.o)
 .debug_ranges  0x00000a58       0x38 c:/gnuarm-471_eabi/bin/../lib/gcc/arm-none-eabi/4.7.1/../../../../arm-none-eabi/lib/thumb\libg.a(lib_a-callocr.o)
 .debug_ranges  0x00000a90      0x140 c:/gnuarm-471_eabi/bin/../lib/gcc/arm-none-eabi/4.7.1/../../../../arm-none-eabi/lib/thumb\libg.a(lib_a-reallocr.o)

.debug_macro    0x00000000     0x8c6c
 .debug_macro   0x00000000       0xcf Cstartup_SAM7.o
 .debug_macro   0x000000cf      0x7d2 Cstartup_SAM7.o
 .debug_macro   0x000008a1       0x29 Cstartup_SAM7.o
 .debug_macro   0x000008ca     0x34e5 Cstartup_SAM7.o
 .debug_macro   0x00003daf       0x80 Cstartup_SAM7.o
 .debug_macro   0x00003e2f      0x16c Cstartup_SAM7.o
 .debug_macro   0x00003f9b       0x46 Cstartup_SAM7.o
 .debug_macro   0x00003fe1       0xd0 Cstartup_SAM7.o
 .debug_macro   0x000040b1       0x98 Cstartup_SAM7.o
 .debug_macro   0x00004149       0x12 Cstartup_SAM7.o
 .debug_macro   0x0000415b       0x1e Cstartup_SAM7.o
 .debug_macro   0x00004179      0x193 Cstartup_SAM7.o
 .debug_macro   0x0000430c       0x42 Cstartup_SAM7.o
 .debug_macro   0x0000434e       0x56 Cstartup_SAM7.o
 .debug_macro   0x000043a4       0x6a Cstartup_SAM7.o
 .debug_macro   0x0000440e       0x62 Cstartup_SAM7.o
 .debug_macro   0x00004470      0x36f Cstartup_SAM7.o
 .debug_macro   0x000047df      0x7c1 Cstartup_SAM7.o
 .debug_macro   0x00004fa0      0x1e9 syscalls.o
 .debug_macro   0x00005189       0x2e syscalls.o
 .debug_macro   0x000051b7       0x94 syscalls.o
 .debug_macro   0x0000524b       0x10 syscalls.o
 .debug_macro   0x0000525b       0x35 syscalls.o
 .debug_macro   0x00005290       0x3a syscalls.o
 .debug_macro   0x000052ca       0x52 syscalls.o
 .debug_macro   0x0000531c       0x43 syscalls.o
 .debug_macro   0x0000535f      0x16d syscalls.o
 .debug_macro   0x000054cc       0x16 syscalls.o
 .debug_macro   0x000054e2       0x23 syscalls.o
 .debug_macro   0x00005505       0x22 syscalls.o
 .debug_macro   0x00005527       0x10 syscalls.o
 .debug_macro   0x00005537       0x10 syscalls.o
 .debug_macro   0x00005547       0x16 syscalls.o
 .debug_macro   0x0000555d       0x10 syscalls.o
 .debug_macro   0x0000556d       0x91 syscalls.o
 .debug_macro   0x000055fe       0x34 syscalls.o
 .debug_macro   0x00005632      0x120 syscalls.o
 .debug_macro   0x00005752       0xe1 portISR.o
 .debug_macro   0x00005833      0x1ab interrupts.o
 .debug_macro   0x000059de      0x19d main.o
 .debug_macro   0x00005b7b      0x7de main.o
 .debug_macro   0x00006359       0x10 main.o
 .debug_macro   0x00006369       0x10 main.o
 .debug_macro   0x00006379       0x16 main.o
 .debug_macro   0x0000638f      0x16d main.o
 .debug_macro   0x000064fc      0x147 heap_2.o
 .debug_macro   0x00006643      0x100 heap_2.o
 .debug_macro   0x00006743       0x19 heap_2.o
 .debug_macro   0x0000675c       0x29 heap_2.o
 .debug_macro   0x00006785       0x85 heap_2.o
 .debug_macro   0x0000680a      0x20a functions.o
 .debug_macro   0x00006a14       0xac functions.o
 .debug_macro   0x00006ac0       0x1c functions.o
 .debug_macro   0x00006adc       0x16 functions.o
 .debug_macro   0x00006af2      0x1da functions.o
 .debug_macro   0x00006ccc      0x210 display.o
 .debug_macro   0x00006edc      0x832 screens.o
 .debug_macro   0x0000770e       0xac screens.o
 .debug_macro   0x000077ba      0x205 tasks.o
 .debug_macro   0x000079bf       0x89 tasks.o
 .debug_macro   0x00007a48       0xf5 tasks.o
 .debug_macro   0x00007b3d       0x16 tasks.o
 .debug_macro   0x00007b53      0x1b8 queue.o
 .debug_macro   0x00007d0b       0x12 queue.o
 .debug_macro   0x00007d1d       0x49 queue.o
 .debug_macro   0x00007d66      0x119 list.o
 .debug_macro   0x00007e7f      0x1d2 port.o
 .debug_macro   0x00008051      0x181 serial.o
 .debug_macro   0x000081d2      0x1f7 comtest.o
 .debug_macro   0x000083c9      0x181 TWI_task.o
 .debug_macro   0x0000854a       0xcf Operate.o
 .debug_macro   0x00008619      0x179 Power.o
 .debug_macro   0x00008792       0xcf bm_sym.o
 .debug_macro   0x00008861       0xcf bm_num.o
 .debug_macro   0x00008930       0xcf bm_f1all.o
 .debug_macro   0x000089ff       0xcf bm_f1eur.o
 .debug_macro   0x00008ace       0xcf bm_f1cyr.o
 .debug_macro   0x00008b9d       0xcf strings.o

Cross Reference Table

Symbol                                            File
ADC0_irq_function                                 interrupts.o
ADC0_irq_handler                                  interrupts.o
                                                  main.o
AT91F_Data_Abort_handler                          interrupts.o
                                                  Cstartup.o
AT91F_Default_FIQ_handler                         interrupts.o
                                                  Cstartup_SAM7.o
AT91F_Default_IRQ_handler                         interrupts.o
                                                  Cstartup_SAM7.o
AT91F_LowLevelInit                                Cstartup_SAM7.o
                                                  Cstartup.o
AT91F_Prefetch_Abort_handler                      interrupts.o
                                                  Cstartup.o
AT91F_Reserved_handler                            interrupts.o
                                                  Cstartup.o
AT91F_Spurious_handler                            interrupts.o
                                                  Cstartup_SAM7.o
AT91F_Undefined_Instruction_handler               interrupts.o
                                                  Cstartup.o
AllSeqOpOff                                       functions.o
                                                  screens.o
AllTime                                           functions.o
                                                  interrupts.o
AutoMan                                           screens.o
                                                  functions.o
BAR                                               bm_sym.o
                                                  screens.o
BAR_UNIT                                          bm_sym.o
                                                  screens.o
BATTSLIM                                          bm_sym.o
                                                  screens.o
BRICK1                                            bm_sym.o
                                                  screens.o
BRIGHTN1                                          bm_sym.o
                                                  screens.o
BUTTON01                                          bm_sym.o
                                                  functions.o
BUTTON03                                          bm_sym.o
                                                  screens.o
BUTTON04                                          bm_sym.o
                                                  functions.o
Bale                                              bm_sym.o
                                                  screens.o
BaleDiaExtDisplayPercent                          screens.o
                                                  functions.o
BaleDiaVolts                                      screens.o
                                                  functions.o
BaleDiaVoltsTotAccumMultSamples                   Operate.o
                                                  functions.o
                                                  interrupts.o
BaleDiameterStatusInManMode                       functions.o
BaleKickerStatus                                  screens.o
                                                  functions.o
BaleShapeVolts                                    screens.o
                                                  functions.o
BaleShapeVoltsTotAccumMultSamples                 Operate.o
                                                  functions.o
                                                  interrupts.o
BalerCenter                                       bm_sym.o
                                                  screens.o
BalerFullDelayTime                                functions.o
BalerHitch                                        bm_sym.o
                                                  screens.o
Balerdoorclosed_withoutkicker                     bm_sym.o
                                                  screens.o
Balerdooropen_withoutkicker                       bm_sym.o
                                                  screens.o
Bar                                               functions.o
                                                  screens.o
BeakEngagePulseCount                              screens.o
                                                  functions.o
                                                  interrupts.o
BeepDelay                                         functions.o
CONTRST1                                          bm_sym.o
                                                  screens.o
CROPFEED                                          bm_sym.o
                                                  screens.o
CROSS                                             bm_sym.o
CS10B_0                                           bm_num.o
CS10B_1                                           bm_num.o
CS10B_2                                           bm_num.o
CS10B_3                                           bm_num.o
CS10B_4                                           bm_num.o
CS10B_5                                           bm_num.o
CS10B_6                                           bm_num.o
CS10B_7                                           bm_num.o
CS10B_8                                           bm_num.o
CS10B_9                                           bm_num.o
CS10B_dp                                          bm_num.o
CS10B_mi                                          bm_num.o
CS10B_pl                                          bm_num.o
CS10B_uk                                          bm_num.o
CS12B_0                                           bm_num.o
CS12B_1                                           bm_num.o
CS12B_2                                           bm_num.o
CS12B_3                                           bm_num.o
CS12B_4                                           bm_num.o
CS12B_5                                           bm_num.o
CS12B_6                                           bm_num.o
CS12B_7                                           bm_num.o
CS12B_8                                           bm_num.o
CS12B_9                                           bm_num.o
CS12B_dp                                          bm_num.o
CS12B_mi                                          bm_num.o
CS12B_pl                                          bm_num.o
CS12B_uk                                          bm_num.o
CalculateAnalogInputRollingAverages               functions.o
                                                  display.o
CalculateNetPulseFrequency                        functions.o
                                                  Operate.o
CalculateNetPulsesPerLayer                        functions.o
CalculateTargetNetPulses                          functions.o
ChamberClosedDelayTime                            functions.o
ChamberOpenBeepDelay                              functions.o
ChamberOpenDelayTime                              screens.o
                                                  functions.o
ChamberStatus                                     functions.o
CheckAlarms                                       functions.o
                                                  display.o
CheckSumIt                                        functions.o
                                                  Power.o
                                                  Operate.o
ChoppingKnives1WarningOn                          screens.o
                                                  functions.o
Clock                                             bm_sym.o
ClockDisplay                                      functions.o
                                                  screens.o
ClockRam                                          TWI_task.o
                                                  comtest.o
                                                  screens.o
                                                  functions.o
CmS26_0                                           bm_num.o
CmS26_1                                           bm_num.o
CmS26_2                                           bm_num.o
CmS26_3                                           bm_num.o
CmS26_4                                           bm_num.o
CmS26_5                                           bm_num.o
CmS26_6                                           bm_num.o
CmS26_7                                           bm_num.o
CmS26_8                                           bm_num.o
CmS26_9                                           bm_num.o
CmS26_dp                                          bm_num.o
CmS26_mi                                          bm_num.o
CmS26_pl                                          bm_num.o
CmS26_uk                                          bm_num.o
CmS28_0                                           bm_num.o
CmS28_1                                           bm_num.o
CmS28_2                                           bm_num.o
CmS28_3                                           bm_num.o
CmS28_4                                           bm_num.o
CmS28_5                                           bm_num.o
CmS28_6                                           bm_num.o
CmS28_7                                           bm_num.o
CmS28_8                                           bm_num.o
CmS28_9                                           bm_num.o
CmS28_dp                                          bm_num.o
CmS28_mi                                          bm_num.o
CmS28_pl                                          bm_num.o
CmS28_uk                                          bm_num.o
ComicSans26                                       bm_num.o
ComicSans28                                       bm_num.o
ComicSansBold10                                   bm_num.o
ComicSansBold12                                   bm_num.o
ContinueOnKeyRelease                              screens.o
                                                  functions.o
DAYSYM                                            bm_sym.o
                                                  screens.o
DENSITY                                           bm_sym.o
DIAMIND                                           bm_sym.o
                                                  screens.o
DIASCALE                                          bm_sym.o
                                                  screens.o
DIASCALE_FROM_ZERO                                bm_sym.o
DRIVING_ARROWS_NONE                               bm_sym.o
                                                  screens.o
DRIVING_ARROWS_X1_LEFT                            bm_sym.o
                                                  screens.o
DRIVING_ARROWS_X1_RIGHT                           bm_sym.o
                                                  screens.o
DRIVING_ARROWS_X2_LEFT                            bm_sym.o
                                                  screens.o
DRIVING_ARROWS_X2_RIGHT                           bm_sym.o
                                                  screens.o
DRIVING_ARROWS_X3_LEFT                            bm_sym.o
                                                  screens.o
DRIVING_ARROWS_X3_RIGHT                           bm_sym.o
                                                  screens.o
DRIVING_ARROWS_X4_LEFT                            bm_sym.o
                                                  screens.o
DRIVING_ARROWS_X4_RIGHT                           bm_sym.o
                                                  screens.o
DayofWeek                                         functions.o
DebugAbortMessage                                 interrupts.o
DebugMessage                                      interrupts.o
DelayTime                                         functions.o
DensityBaleVolts                                  functions.o
DensityControlFunctionActive                      functions.o
DensityCoreVolts                                  functions.o
DensityFormation2Volts                            functions.o
DensityFormationVolts                             functions.o
DensityPresVolts                                  screens.o
                                                  functions.o
DensityPresVoltsTotAccumMultSamples               Operate.o
                                                  functions.o
                                                  interrupts.o
DensityPressureTooHigh                            functions.o
DiaCoreVolts                                      functions.o
DiaEngageVolts                                    functions.o
DiaFormation2Volts                                functions.o
DiaFormationVolts                                 functions.o
DiaMaxVolts                                       screens.o
                                                  functions.o
DiaMinExtDisplayPercent                           screens.o
                                                  functions.o
DiaMinVolts                                       functions.o
DiaPreWarnVolts                                   functions.o
DiaTargetExtDisplayPercent                        screens.o
                                                  functions.o
DiaTargetVolts                                    functions.o
DisableChoppingKnivesWarnings                     screens.o
                                                  functions.o
DrivingArrowBeepsDisabled                         screens.o
                                                  functions.o
ENT                                               bm_sym.o
EOC7_interrupt_count                              comtest.o
                                                  functions.o
                                                  interrupts.o
F0_0                                              bm_num.o
F0_1                                              bm_num.o
F0_2                                              bm_num.o
F0_3                                              bm_num.o
F0_4                                              bm_num.o
F0_5                                              bm_num.o
F0_6                                              bm_num.o
F0_7                                              bm_num.o
F0_8                                              bm_num.o
F0_9                                              bm_num.o
F0_dp                                             bm_num.o
F0_mi                                             bm_num.o
F0_pl                                             bm_num.o
F0_uk                                             bm_num.o
F1_CLK                                            bm_f1all.o
                                                  bm_f1cyr.o
                                                  bm_f1eur.o
                                                  functions.o
F1_DEG                                            bm_f1all.o
                                                  bm_f1cyr.o
                                                  bm_f1eur.o
F1_ENT                                            bm_f1all.o
                                                  bm_f1cyr.o
                                                  bm_f1eur.o
F1_FILL                                           bm_f1all.o
                                                  bm_f1cyr.o
                                                  bm_f1eur.o
                                                  bm_num.o
F1_I120                                           bm_f1all.o
                                                  bm_f1cyr.o
                                                  bm_f1eur.o
F1_I121                                           bm_f1all.o
                                                  bm_f1cyr.o
                                                  bm_f1eur.o
F1_I122                                           bm_f1all.o
                                                  bm_f1cyr.o
                                                  bm_f1eur.o
F1_I123                                           bm_f1all.o
                                                  bm_f1cyr.o
                                                  bm_f1eur.o
F1_I124                                           bm_f1all.o
                                                  bm_f1cyr.o
                                                  bm_f1eur.o
F1_I125                                           bm_f1all.o
                                                  bm_f1cyr.o
                                                  bm_f1eur.o
F1_I126                                           bm_f1all.o
                                                  bm_f1cyr.o
                                                  bm_f1eur.o
F1_I127                                           bm_f1all.o
                                                  bm_f1cyr.o
                                                  bm_f1eur.o
F1_I128                                           bm_f1all.o
                                                  bm_f1cyr.o
                                                  bm_f1eur.o
F1_I129                                           bm_f1all.o
                                                  bm_f1cyr.o
                                                  bm_f1eur.o
F1_I12A                                           bm_f1all.o
                                                  bm_f1cyr.o
                                                  bm_f1eur.o
F1_I12B                                           bm_f1all.o
                                                  bm_f1cyr.o
                                                  bm_f1eur.o
                                                  bm_num.o
F1_I12C                                           bm_f1all.o
                                                  bm_f1cyr.o
                                                  bm_f1eur.o
F1_I12D                                           bm_f1all.o
                                                  bm_f1cyr.o
                                                  bm_f1eur.o
                                                  bm_num.o
F1_I12E                                           bm_f1all.o
                                                  bm_f1cyr.o
                                                  bm_f1eur.o
                                                  bm_num.o
F1_I12F                                           bm_f1all.o
                                                  bm_f1cyr.o
                                                  bm_f1eur.o
F1_I130                                           bm_f1all.o
                                                  bm_f1cyr.o
                                                  bm_f1eur.o
                                                  bm_num.o
F1_I131                                           bm_f1all.o
                                                  bm_f1cyr.o
                                                  bm_f1eur.o
                                                  bm_num.o
F1_I132                                           bm_f1all.o
                                                  bm_f1cyr.o
                                                  bm_f1eur.o
                                                  bm_num.o
F1_I133                                           bm_f1all.o
                                                  bm_f1cyr.o
                                                  bm_f1eur.o
                                                  bm_num.o
F1_I134                                           bm_f1all.o
                                                  bm_f1cyr.o
                                                  bm_f1eur.o
                                                  bm_num.o
F1_I135                                           bm_f1all.o
                                                  bm_f1cyr.o
                                                  bm_f1eur.o
                                                  bm_num.o
F1_I136                                           bm_f1all.o
                                                  bm_f1cyr.o
                                                  bm_f1eur.o
                                                  bm_num.o
F1_I137                                           bm_f1all.o
                                                  bm_f1cyr.o
                                                  bm_f1eur.o
                                                  bm_num.o
F1_I138                                           bm_f1all.o
                                                  bm_f1cyr.o
                                                  bm_f1eur.o
                                                  bm_num.o
F1_I139                                           bm_f1all.o
                                                  bm_f1cyr.o
                                                  bm_f1eur.o
                                                  bm_num.o
F1_I13A                                           bm_f1all.o
                                                  bm_f1cyr.o
                                                  bm_f1eur.o
F1_I13B                                           bm_f1all.o
                                                  bm_f1cyr.o
                                                  bm_f1eur.o
F1_I13C                                           bm_f1all.o
                                                  bm_f1cyr.o
                                                  bm_f1eur.o
F1_I13D                                           bm_f1all.o
                                                  bm_f1cyr.o
                                                  bm_f1eur.o
F1_I13E                                           bm_f1all.o
                                                  bm_f1cyr.o
                                                  bm_f1eur.o
F1_I13F                                           bm_f1all.o
                                                  bm_f1cyr.o
                                                  bm_f1eur.o
F1_I140                                           bm_f1all.o
                                                  bm_f1cyr.o
                                                  bm_f1eur.o
F1_I141                                           bm_f1all.o
                                                  bm_f1cyr.o
                                                  bm_f1eur.o
F1_I142                                           bm_f1all.o
                                                  bm_f1cyr.o
                                                  bm_f1eur.o
F1_I143                                           bm_f1all.o
                                                  bm_f1cyr.o
                                                  bm_f1eur.o
F1_I144                                           bm_f1all.o
                                                  bm_f1cyr.o
                                                  bm_f1eur.o
F1_I145                                           bm_f1all.o
                                                  bm_f1cyr.o
                                                  bm_f1eur.o
F1_I146                                           bm_f1all.o
                                                  bm_f1cyr.o
                                                  bm_f1eur.o
F1_I147                                           bm_f1all.o
                                                  bm_f1cyr.o
                                                  bm_f1eur.o
F1_I148                                           bm_f1all.o
                                                  bm_f1cyr.o
                                                  bm_f1eur.o
F1_I149                                           bm_f1all.o
                                                  bm_f1cyr.o
                                                  bm_f1eur.o
F1_I14A                                           bm_f1all.o
                                                  bm_f1cyr.o
                                                  bm_f1eur.o
F1_I14B                                           bm_f1all.o
                                                  bm_f1cyr.o
                                                  bm_f1eur.o
F1_I14C                                           bm_f1all.o
                                                  bm_f1cyr.o
                                                  bm_f1eur.o
F1_I14D                                           bm_f1all.o
                                                  bm_f1cyr.o
                                                  bm_f1eur.o
F1_I14E                                           bm_f1all.o
                                                  bm_f1cyr.o
                                                  bm_f1eur.o
F1_I14F                                           bm_f1all.o
                                                  bm_f1cyr.o
                                                  bm_f1eur.o
F1_I150                                           bm_f1all.o
                                                  bm_f1cyr.o
                                                  bm_f1eur.o
F1_I151                                           bm_f1all.o
                                                  bm_f1cyr.o
                                                  bm_f1eur.o
F1_I152                                           bm_f1all.o
                                                  bm_f1cyr.o
                                                  bm_f1eur.o
F1_I153                                           bm_f1all.o
                                                  bm_f1cyr.o
                                                  bm_f1eur.o
F1_I154                                           bm_f1all.o
                                                  bm_f1cyr.o
                                                  bm_f1eur.o
F1_I155                                           bm_f1all.o
                                                  bm_f1cyr.o
                                                  bm_f1eur.o
F1_I156                                           bm_f1all.o
                                                  bm_f1cyr.o
                                                  bm_f1eur.o
F1_I157                                           bm_f1all.o
                                                  bm_f1cyr.o
                                                  bm_f1eur.o
F1_I158                                           bm_f1all.o
                                                  bm_f1cyr.o
                                                  bm_f1eur.o
F1_I159                                           bm_f1all.o
                                                  bm_f1cyr.o
                                                  bm_f1eur.o
F1_I15A                                           bm_f1all.o
                                                  bm_f1cyr.o
                                                  bm_f1eur.o
F1_I15B                                           bm_f1all.o
                                                  bm_f1cyr.o
                                                  bm_f1eur.o
F1_I15C                                           bm_f1all.o
                                                  bm_f1cyr.o
                                                  bm_f1eur.o
F1_I15D                                           bm_f1all.o
                                                  bm_f1cyr.o
                                                  bm_f1eur.o
F1_I15E                                           bm_f1all.o
                                                  bm_f1cyr.o
                                                  bm_f1eur.o
F1_I15F                                           bm_f1all.o
                                                  bm_f1cyr.o
                                                  bm_f1eur.o
F1_I160                                           bm_f1all.o
                                                  bm_f1cyr.o
                                                  bm_f1eur.o
F1_I161                                           bm_f1all.o
                                                  bm_f1cyr.o
                                                  bm_f1eur.o
F1_I162                                           bm_f1all.o
                                                  bm_f1cyr.o
                                                  bm_f1eur.o
F1_I163                                           bm_f1all.o
                                                  bm_f1cyr.o
                                                  bm_f1eur.o
F1_I164                                           bm_f1all.o
                                                  bm_f1cyr.o
                                                  bm_f1eur.o
F1_I165                                           bm_f1all.o
                                                  bm_f1cyr.o
                                                  bm_f1eur.o
F1_I166                                           bm_f1all.o
                                                  bm_f1cyr.o
                                                  bm_f1eur.o
F1_I167                                           bm_f1all.o
                                                  bm_f1cyr.o
                                                  bm_f1eur.o
F1_I168                                           bm_f1all.o
                                                  bm_f1cyr.o
                                                  bm_f1eur.o
F1_I169                                           bm_f1all.o
                                                  bm_f1cyr.o
                                                  bm_f1eur.o
F1_I16A                                           bm_f1all.o
                                                  bm_f1cyr.o
                                                  bm_f1eur.o
F1_I16B                                           bm_f1all.o
                                                  bm_f1cyr.o
                                                  bm_f1eur.o
F1_I16C                                           bm_f1all.o
                                                  bm_f1cyr.o
                                                  bm_f1eur.o
F1_I16D                                           bm_f1all.o
                                                  bm_f1cyr.o
                                                  bm_f1eur.o
F1_I16E                                           bm_f1all.o
                                                  bm_f1cyr.o
                                                  bm_f1eur.o
F1_I16F                                           bm_f1all.o
                                                  bm_f1cyr.o
                                                  bm_f1eur.o
F1_I170                                           bm_f1all.o
                                                  bm_f1cyr.o
                                                  bm_f1eur.o
F1_I171                                           bm_f1all.o
                                                  bm_f1cyr.o
                                                  bm_f1eur.o
F1_I172                                           bm_f1all.o
                                                  bm_f1cyr.o
                                                  bm_f1eur.o
F1_I173                                           bm_f1all.o
                                                  bm_f1cyr.o
                                                  bm_f1eur.o
F1_I174                                           bm_f1all.o
                                                  bm_f1cyr.o
                                                  bm_f1eur.o
F1_I175                                           bm_f1all.o
                                                  bm_f1cyr.o
                                                  bm_f1eur.o
F1_I176                                           bm_f1all.o
                                                  bm_f1cyr.o
                                                  bm_f1eur.o
F1_I177                                           bm_f1all.o
                                                  bm_f1cyr.o
                                                  bm_f1eur.o
F1_I178                                           bm_f1all.o
                                                  bm_f1cyr.o
                                                  bm_f1eur.o
F1_I179                                           bm_f1all.o
                                                  bm_f1cyr.o
                                                  bm_f1eur.o
F1_I17A                                           bm_f1all.o
                                                  bm_f1cyr.o
                                                  bm_f1eur.o
F1_I17B                                           bm_f1all.o
                                                  bm_f1cyr.o
                                                  bm_f1eur.o
F1_I17C                                           bm_f1all.o
                                                  bm_f1cyr.o
                                                  bm_f1eur.o
F1_I17D                                           bm_f1all.o
                                                  bm_f1cyr.o
                                                  bm_f1eur.o
F1_I17E                                           bm_f1all.o
                                                  bm_f1cyr.o
                                                  bm_f1eur.o
F1_I1A1                                           bm_f1eur.o
F1_I1A2                                           bm_f1eur.o
F1_I1A3                                           bm_f1eur.o
F1_I1A4                                           bm_f1eur.o
F1_I1A5                                           bm_f1eur.o
F1_I1A6                                           bm_f1eur.o
F1_I1A7                                           bm_f1eur.o
F1_I1A8                                           bm_f1eur.o
F1_I1A9                                           bm_f1eur.o
F1_I1AA                                           bm_f1eur.o
F1_I1AB                                           bm_f1eur.o
F1_I1AC                                           bm_f1eur.o
F1_I1AD                                           bm_f1eur.o
F1_I1AE                                           bm_f1eur.o
F1_I1AF                                           bm_f1eur.o
F1_I1B0                                           bm_f1eur.o
F1_I1B1                                           bm_f1eur.o
F1_I1B2                                           bm_f1eur.o
F1_I1B3                                           bm_f1eur.o
F1_I1B4                                           bm_f1eur.o
F1_I1B5                                           bm_f1eur.o
F1_I1B6                                           bm_f1eur.o
F1_I1B7                                           bm_f1eur.o
F1_I1B8                                           bm_f1eur.o
F1_I1B9                                           bm_f1eur.o
F1_I1BA                                           bm_f1eur.o
F1_I1BB                                           bm_f1eur.o
F1_I1BC                                           bm_f1eur.o
F1_I1BD                                           bm_f1eur.o
F1_I1BE                                           bm_f1eur.o
F1_I1BF                                           bm_f1eur.o
F1_I1C0                                           bm_f1eur.o
F1_I1C1                                           bm_f1eur.o
F1_I1C2                                           bm_f1eur.o
F1_I1C3                                           bm_f1eur.o
F1_I1C4                                           bm_f1eur.o
F1_I1C5                                           bm_f1eur.o
F1_I1C6                                           bm_f1eur.o
F1_I1C7                                           bm_f1eur.o
F1_I1C8                                           bm_f1eur.o
F1_I1C9                                           bm_f1eur.o
F1_I1CA                                           bm_f1eur.o
F1_I1CB                                           bm_f1eur.o
F1_I1CC                                           bm_f1eur.o
F1_I1CD                                           bm_f1eur.o
F1_I1CE                                           bm_f1eur.o
F1_I1CF                                           bm_f1eur.o
F1_I1D0                                           bm_f1eur.o
F1_I1D1                                           bm_f1eur.o
F1_I1D2                                           bm_f1eur.o
F1_I1D3                                           bm_f1eur.o
F1_I1D4                                           bm_f1eur.o
F1_I1D5                                           bm_f1eur.o
F1_I1D6                                           bm_f1eur.o
F1_I1D7                                           bm_f1eur.o
F1_I1D8                                           bm_f1eur.o
F1_I1D9                                           bm_f1eur.o
F1_I1DA                                           bm_f1eur.o
F1_I1DB                                           bm_f1eur.o
F1_I1DC                                           bm_f1eur.o
F1_I1DD                                           bm_f1eur.o
F1_I1DE                                           bm_f1eur.o
F1_I1DF                                           bm_f1eur.o
F1_I1E0                                           bm_f1eur.o
F1_I1E1                                           bm_f1eur.o
F1_I1E2                                           bm_f1eur.o
F1_I1E3                                           bm_f1eur.o
F1_I1E4                                           bm_f1eur.o
F1_I1E5                                           bm_f1eur.o
F1_I1E6                                           bm_f1eur.o
F1_I1E7                                           bm_f1eur.o
F1_I1E8                                           bm_f1eur.o
F1_I1E9                                           bm_f1eur.o
F1_I1EA                                           bm_f1eur.o
F1_I1EB                                           bm_f1eur.o
F1_I1EC                                           bm_f1eur.o
F1_I1ED                                           bm_f1eur.o
F1_I1EE                                           bm_f1eur.o
F1_I1EF                                           bm_f1eur.o
F1_I1F0                                           bm_f1eur.o
F1_I1F1                                           bm_f1eur.o
F1_I1F2                                           bm_f1eur.o
F1_I1F3                                           bm_f1eur.o
F1_I1F4                                           bm_f1eur.o
F1_I1F5                                           bm_f1eur.o
F1_I1F6                                           bm_f1eur.o
F1_I1F7                                           bm_f1eur.o
F1_I1F8                                           bm_f1eur.o
F1_I1F9                                           bm_f1eur.o
F1_I1FA                                           bm_f1eur.o
F1_I1FB                                           bm_f1eur.o
F1_I1FC                                           bm_f1eur.o
F1_I1FD                                           bm_f1eur.o
F1_I1FE                                           bm_f1eur.o
F1_I1FF                                           bm_f1eur.o
F1_I5A1                                           bm_f1cyr.o
F1_I5A6                                           bm_f1cyr.o
F1_I5A8                                           bm_f1cyr.o
F1_I5A9                                           bm_f1cyr.o
F1_I5AA                                           bm_f1cyr.o
F1_I5AF                                           bm_f1cyr.o
F1_I5B0                                           bm_f1cyr.o
F1_I5B1                                           bm_f1cyr.o
F1_I5B2                                           bm_f1cyr.o
F1_I5B3                                           bm_f1cyr.o
F1_I5B4                                           bm_f1cyr.o
F1_I5B5                                           bm_f1cyr.o
F1_I5B6                                           bm_f1cyr.o
F1_I5B7                                           bm_f1cyr.o
F1_I5B8                                           bm_f1cyr.o
F1_I5B9                                           bm_f1cyr.o
F1_I5BA                                           bm_f1cyr.o
F1_I5BB                                           bm_f1cyr.o
F1_I5BC                                           bm_f1cyr.o
F1_I5BD                                           bm_f1cyr.o
F1_I5BE                                           bm_f1cyr.o
F1_I5BF                                           bm_f1cyr.o
F1_I5C0                                           bm_f1cyr.o
F1_I5C1                                           bm_f1cyr.o
F1_I5C2                                           bm_f1cyr.o
F1_I5C3                                           bm_f1cyr.o
F1_I5C4                                           bm_f1cyr.o
F1_I5C5                                           bm_f1cyr.o
F1_I5C6                                           bm_f1cyr.o
F1_I5C7                                           bm_f1cyr.o
F1_I5C8                                           bm_f1cyr.o
F1_I5C9                                           bm_f1cyr.o
F1_I5CA                                           bm_f1cyr.o
F1_I5CB                                           bm_f1cyr.o
F1_I5CC                                           bm_f1cyr.o
F1_I5CD                                           bm_f1cyr.o
F1_I5CE                                           bm_f1cyr.o
F1_I5CF                                           bm_f1cyr.o
F1_I5D0                                           bm_f1cyr.o
F1_I5D1                                           bm_f1cyr.o
F1_I5D2                                           bm_f1cyr.o
F1_I5D3                                           bm_f1cyr.o
F1_I5D4                                           bm_f1cyr.o
F1_I5D5                                           bm_f1cyr.o
F1_I5D6                                           bm_f1cyr.o
F1_I5D7                                           bm_f1cyr.o
F1_I5D8                                           bm_f1cyr.o
F1_I5D9                                           bm_f1cyr.o
F1_I5DA                                           bm_f1cyr.o
F1_I5DB                                           bm_f1cyr.o
F1_I5DC                                           bm_f1cyr.o
F1_I5DD                                           bm_f1cyr.o
F1_I5DE                                           bm_f1cyr.o
F1_I5DF                                           bm_f1cyr.o
F1_I5E0                                           bm_f1cyr.o
F1_I5E1                                           bm_f1cyr.o
F1_I5E2                                           bm_f1cyr.o
F1_I5E3                                           bm_f1cyr.o
F1_I5E4                                           bm_f1cyr.o
F1_I5E5                                           bm_f1cyr.o
F1_I5E6                                           bm_f1cyr.o
F1_I5E7                                           bm_f1cyr.o
F1_I5E8                                           bm_f1cyr.o
F1_I5E9                                           bm_f1cyr.o
F1_I5EA                                           bm_f1cyr.o
F1_I5EB                                           bm_f1cyr.o
F1_I5EC                                           bm_f1cyr.o
F1_I5ED                                           bm_f1cyr.o
F1_I5EE                                           bm_f1cyr.o
F1_I5EF                                           bm_f1cyr.o
F1_I5F1                                           bm_f1cyr.o
F1_I5F6                                           bm_f1cyr.o
F1_I5F8                                           bm_f1cyr.o
F1_I5F9                                           bm_f1cyr.o
F1_I5FA                                           bm_f1cyr.o
F1_I5FF                                           bm_f1cyr.o
F1_POINT                                          bm_f1all.o
                                                  bm_f1cyr.o
                                                  bm_f1eur.o
                                                  screens.o
F1_RDS                                            bm_f1all.o
                                                  bm_f1cyr.o
                                                  bm_f1eur.o
F2_0                                              bm_num.o
F2_1                                              bm_num.o
F2_2                                              bm_num.o
F2_3                                              bm_num.o
F2_4                                              bm_num.o
F2_5                                              bm_num.o
F2_6                                              bm_num.o
F2_7                                              bm_num.o
F2_8                                              bm_num.o
F2_9                                              bm_num.o
F2_dp                                             bm_num.o
F2_mi                                             bm_num.o
F2_pl                                             bm_num.o
F2_uk                                             bm_num.o
F3_0                                              bm_num.o
F3_1                                              bm_num.o
F3_2                                              bm_num.o
F3_3                                              bm_num.o
F3_4                                              bm_num.o
F3_5                                              bm_num.o
F3_6                                              bm_num.o
F3_7                                              bm_num.o
F3_8                                              bm_num.o
F3_9                                              bm_num.o
F3_dp                                             bm_num.o
F3_mi                                             bm_num.o
F3_pl                                             bm_num.o
F3_uk                                             bm_num.o
GRASS01                                           bm_sym.o
GRASS02                                           bm_sym.o
GRASS03                                           bm_sym.o
GRASS04                                           bm_sym.o
GRASS05                                           bm_sym.o
GRASS06                                           bm_sym.o
ICON_BALE_COUNT                                   bm_sym.o
                                                  screens.o
ICON_BALE_COUNT_MENU                              bm_sym.o
                                                  screens.o
ICON_BALE_COUNT_MENU_SELECTED                     bm_sym.o
                                                  screens.o
ICON_BALE_COUNT_RESET                             bm_sym.o
                                                  screens.o
ICON_BALE_DENSITY                                 bm_sym.o
                                                  screens.o
ICON_BALE_DENSITY_SELECTED                        bm_sym.o
                                                  screens.o
ICON_BALE_DIAMETER_SELECTED                       bm_sym.o
                                                  screens.o
ICON_BALE_INDICATOR                               bm_sym.o
                                                  screens.o
ICON_BALE_INDICATOR_BEEP                          bm_sym.o
                                                  screens.o
ICON_BALE_INDICATOR_OFF                           bm_sym.o
                                                  screens.o
ICON_BALE_INDICATOR_ON                            bm_sym.o
                                                  screens.o
ICON_BALE_INDICATOR_SELECTED                      bm_sym.o
                                                  screens.o
ICON_BALE_PROFILE_A                               bm_sym.o
                                                  screens.o
ICON_BALE_PROFILE_B                               bm_sym.o
                                                  screens.o
ICON_BALE_PROFILE_C                               bm_sym.o
                                                  screens.o
ICON_BALE_PROFILE_CORE_DIAMETER_BALE_DIAMETER     bm_sym.o
                                                  screens.o
ICON_BALE_PROFILE_D                               bm_sym.o
                                                  screens.o
ICON_BALE_PROFILE_E                               bm_sym.o
                                                  screens.o
ICON_BALE_PROFILE_SELECTED                        bm_sym.o
                                                  screens.o
ICON_BALE_SETUP_MENU                              bm_sym.o
                                                  screens.o
ICON_BALE_SETUP_MENU_SELECTED                     bm_sym.o
                                                  screens.o
ICON_BRIGHTNESS_AND_CONTRAST_MENU                 bm_sym.o
                                                  screens.o
ICON_BRIGHTNESS_AND_CONTRAST_MENU_SELECTED        bm_sym.o
                                                  screens.o
ICON_CLOCK_AT_TEN_TO_TWO                          bm_sym.o
                                                  screens.o
ICON_CORE_DENSITY                                 bm_sym.o
                                                  screens.o
ICON_CORE_DENSITY_SELECTED                        bm_sym.o
                                                  screens.o
ICON_CORE_DIAMETER_SELECTED                       bm_sym.o
                                                  screens.o
ICON_CURRENT_SELECTION_INDICATOR                  bm_sym.o
                                                  screens.o
ICON_DIAGNOSTICS_SCREENS                          bm_sym.o
ICON_DIAGNOSTICS_SCREENS_SELECTED                 bm_sym.o
                                                  screens.o
ICON_DIAMETER_CORRECTION                          bm_sym.o
                                                  screens.o
ICON_DIAMETER_CORRECTION_SELECTED                 bm_sym.o
                                                  screens.o
ICON_FILL_POT_ZERO                                bm_sym.o
                                                  screens.o
ICON_FILL_POT_ZERO_RESET                          bm_sym.o
                                                  screens.o
ICON_FILL_POT_ZERO_SELECTED                       bm_sym.o
                                                  screens.o
ICON_GRAND_TOTAL_BALES                            bm_sym.o
                                                  screens.o
ICON_LUBE_COUNT                                   bm_sym.o
                                                  screens.o
ICON_LUBE_COUNT_RESET                             bm_sym.o
                                                  screens.o
ICON_MACHINE_SETUP_MENU                           bm_sym.o
                                                  screens.o
ICON_MACHINE_SETUP_MENU_SELECTED                  bm_sym.o
                                                  screens.o
ICON_NET_DELAY                                    bm_sym.o
                                                  screens.o
ICON_NET_DELAY_SELECTED                           bm_sym.o
                                                  screens.o
ICON_NET_LAYERS                                   bm_sym.o
                                                  screens.o
ICON_NET_LAYERS_SELECTED                          bm_sym.o
                                                  screens.o
ICON_NET_METRES                                   bm_sym.o
                                                  screens.o
ICON_NET_METRES_RESET                             bm_sym.o
                                                  screens.o
ICON_NET_METRES_SELECTED                          bm_sym.o
                                                  screens.o
ICON_NET_TWINE_SELECTION_POINTER                  bm_sym.o
ICON_NET_TWINE_WITH_NET_HIGHLIGHTED               bm_sym.o
                                                  screens.o
ICON_NET_TWINE_WITH_TWINE_HIGHLIGHTED             bm_sym.o
                                                  screens.o
ICON_OPERATOR_SETUP_MENU                          bm_sym.o
                                                  screens.o
ICON_OPERATOR_SETUP_MENU_SELECTED                 bm_sym.o
                                                  screens.o
ICON_PRE_WARNING_BEEP                             bm_sym.o
                                                  screens.o
ICON_PRE_WARNING_BEEP_SELECTED                    bm_sym.o
                                                  screens.o
ICON_SCROLL_BAR_PAGE_1_OF_2                       bm_sym.o
                                                  screens.o
ICON_SCROLL_BAR_PAGE_2_OF_2                       bm_sym.o
                                                  screens.o
ICON_SELECTION_POINTER                            bm_sym.o
                                                  screens.o
ICON_TECHNICIAN_MENU                              bm_sym.o
                                                  screens.o
ICON_TECHNICIAN_MENU_SELECTED                     bm_sym.o
                                                  screens.o
ICON_TIME_AND_DATE_ADJUST_MENU                    bm_sym.o
                                                  screens.o
ICON_TIME_AND_DATE_ADJUST_MENU_SELECTED           bm_sym.o
                                                  screens.o
IP4PulsesStoppedCount                             functions.o
InitilizeDisplay                                  display.o
Inputs                                            functions.o
                                                  display.o
IntToString                                       interrupts.o
KICK                                              bm_sym.o
KICKER_DOWN                                       bm_sym.o
                                                  screens.o
KICKER_UP                                         bm_sym.o
                                                  screens.o
KNIFE                                             bm_sym.o
                                                  screens.o
KeyOpOff                                          screens.o
                                                  functions.o
KeyOpOn                                           screens.o
                                                  functions.o
KnifePresVolts                                    screens.o
                                                  functions.o
KnifePresVoltsTotAccumMultSamples                 Operate.o
                                                  functions.o
                                                  interrupts.o
KnifePresWasHigh                                  screens.o
Kniv1_IPClosed                                    screens.o
                                                  functions.o
LCkey                                             functions.o
                                                  display.o
LUBE_COUNT_RESET_PROMPT                           bm_sym.o
                                                  screens.o
Language00                                        strings.o
MODEAUTO                                          bm_sym.o
                                                  screens.o
MODEMAN                                           bm_sym.o
                                                  screens.o
MWarn                                             screens.o
                                                  functions.o
McHale_V6                                         bm_sym.o
                                                  screens.o
MonthofYear                                       functions.o
NCkey                                             functions.o
                                                  display.o
NETROLL_OUTLINE                                   bm_sym.o
NIGHTSYM                                          bm_sym.o
                                                  screens.o
NetMetresAppliedForCount                          Operate.o
                                                  screens.o
                                                  functions.o
NetMetresPulseCount                               Operate.o
                                                  screens.o
                                                  functions.o
                                                  interrupts.o
NetPulseCheckingEnabled                           functions.o
NetPulseCount                                     screens.o
                                                  functions.o
                                                  interrupts.o
NetPulseCountAtLastCheck                          functions.o
NetPulseCountPrev                                 screens.o
                                                  functions.o
NetPulseFrequency                                 functions.o
NetPulsesPerLayer                                 functions.o
NetWarningDelayTime                               functions.o
NetWarningDisabledWhileIP3OpenInAutoMode          functions.o
NetWarningOn                                      functions.o
NettingStartBeepsDisabledWhileIP3OpenInAutoMode   functions.o
NewNetPulses                                      screens.o
                                                  functions.o
OILCAN                                            bm_sym.o
                                                  screens.o
OKWarnBox                                         screens.o
                                                  functions.o
OP2OffDelayTime                                   functions.o
OP2OnDelayTime                                    functions.o
OP5TurnedOnAfterBeakEngagePulsesEnabled           functions.o
OP7OffDelayTime                                   functions.o
OP8OffDelayTime                                   functions.o
OP8OnCount                                        functions.o
OP8OnDelayTime                                    functions.o
PF_GW302_BaleDensity                              functions.o
                                                  screens.o
PF_GW302_BaleDiaSmoothingFactor                   functions.o
                                                  screens.o
PF_GW302_BaleDiameter                             functions.o
                                                  screens.o
PF_GW302_BaleIndicator                            functions.o
PF_GW302_BaleProfile                              functions.o
                                                  screens.o
PF_GW302_BaleShapeIndicator                       functions.o
PF_GW302_BaleShapeIndicatorZero                   functions.o
                                                  screens.o
PF_GW302_BaleShapeSmoothingFactor                 functions.o
                                                  screens.o
PF_GW302_BaleSizeFactor                           functions.o
                                                  screens.o
PF_GW302_BaleStore                                functions.o
                                                  screens.o
PF_GW302_BaleTotal                                functions.o
                                                  screens.o
PF_GW302_BeakEngage                               functions.o
                                                  screens.o
PF_GW302_ChoppingKnivesFitted                     functions.o
PF_GW302_CoreDensity                              functions.o
                                                  screens.o
PF_GW302_CoreDiameter                             functions.o
                                                  screens.o
PF_GW302_Density1                                 functions.o
                                                  screens.o
PF_GW302_Density10                                functions.o
                                                  screens.o
PF_GW302_Density2                                 functions.o
                                                  screens.o
PF_GW302_Density3                                 functions.o
                                                  screens.o
PF_GW302_Density4                                 functions.o
                                                  screens.o
PF_GW302_Density5                                 functions.o
                                                  screens.o
PF_GW302_Density6                                 functions.o
                                                  screens.o
PF_GW302_Density7                                 functions.o
                                                  screens.o
PF_GW302_Density8                                 functions.o
                                                  screens.o
PF_GW302_Density9                                 functions.o
                                                  screens.o
PF_GW302_DensityPresSmoothingFactor               functions.o
                                                  screens.o
PF_GW302_DiaCorrection                            functions.o
                                                  screens.o
PF_GW302_DiaPotZero                               functions.o
PF_GW302_DiameterCorrection                       functions.o
                                                  screens.o
PF_GW302_DiameterMax                              functions.o
                                                  screens.o
PF_GW302_DiameterMin                              functions.o
                                                  screens.o
PF_GW302_DiverterDelay                            functions.o
                                                  screens.o
PF_GW302_DoorClosed                               functions.o
                                                  screens.o
PF_GW302_EngageDiameter                           functions.o
                                                  screens.o
PF_GW302_FillPotIgnore                            functions.o
                                                  screens.o
PF_GW302_FillPotRange                             functions.o
                                                  screens.o
PF_GW302_Formation2Density                        functions.o
                                                  screens.o
PF_GW302_Formation2Diameter                       functions.o
                                                  screens.o
PF_GW302_FormationDensity                         functions.o
                                                  screens.o
PF_GW302_FormationDiameter                        functions.o
                                                  screens.o
PF_GW302_GrandBaleTotal                           functions.o
PF_GW302_KnifePresSmoothingFactor                 functions.o
                                                  screens.o
PF_GW302_KnifePresWarn                            functions.o
                                                  screens.o
PF_GW302_KnifePressure                            functions.o
                                                  screens.o
PF_GW302_LubeAlarm                                functions.o
                                                  screens.o
PF_GW302_MaxDiaPulsPerLay                         functions.o
                                                  screens.o
PF_GW302_MinDiaPulsPerLay                         functions.o
                                                  screens.o
PF_GW302_NetCutPulse                              functions.o
                                                  screens.o
PF_GW302_NetCutTime                               functions.o
                                                  screens.o
PF_GW302_NetDelay                                 functions.o
                                                  screens.o
PF_GW302_NetFactor                                functions.o
                                                  screens.o
PF_GW302_NetLayers                                functions.o
                                                  screens.o
PF_GW302_NetOn                                    functions.o
                                                  screens.o
PF_GW302_NetSpeed                                 functions.o
                                                  screens.o
PF_GW302_NetSystem                                functions.o
PF_GW302_NetTwineOption                           functions.o
                                                  screens.o
PF_GW302_NoNetPulse                               functions.o
                                                  screens.o
PF_GW302_PreNetPulse                              functions.o
                                                  screens.o
PF_GW302_PreWarningBeep                           functions.o
                                                  screens.o
PF_GW302_PresDeadband                             functions.o
                                                  screens.o
PF_GW302_PresSwDelay                              functions.o
                                                  screens.o
PF_GW302_RollerDelay                              functions.o
                                                  screens.o
PF_GW302_TotalNetMetres                           functions.o
                                                  screens.o
PF_GW302_TwineOption                              functions.o
PIOB_irq_function                                 interrupts.o
PIOB_irq_handler                                  interrupts.o
                                                  main.o
POWER                                             bm_sym.o
                                                  screens.o
POWERtaskhandle                                   strings.o
                                                  bm_f1cyr.o
                                                  bm_f1eur.o
                                                  bm_f1all.o
                                                  bm_num.o
                                                  bm_sym.o
                                                  Power.o
                                                  Operate.o
                                                  TWI_task.o
                                                  CAN_mcm.o
                                                  CANtest.o
                                                  comtest.o
                                                  serial.o
                                                  port.o
                                                  screens.o
                                                  display.o
                                                  functions.o
                                                  main.o
                                                  interrupts.o
                                                  portISR.o
                                                  syscalls.o
                                                  Cstartup_SAM7.o
PinOption                                         functions.o
                                                  screens.o
PowerSwitchedOff                                  Power.o
                                                  screens.o
                                                  functions.o
                                                  interrupts.o
PresetBaleDensity                                 functions.o
PresetBaleDiameter                                functions.o
PresetCoreDensity                                 functions.o
PresetCoreDiameter                                functions.o
PresetFormation2Density                           functions.o
PresetFormation2Diameter                          functions.o
PresetFormationDensity                            functions.o
PresetFormationDiameter                           functions.o
PresetNetLayers                                   functions.o
PreviousWindow                                    display.o
                                                  functions.o
RDS7x11                                           bm_num.o
RDS7x11_0                                         bm_num.o
RDS7x11_1                                         bm_num.o
RDS7x11_2                                         bm_num.o
RDS7x11_3                                         bm_num.o
RDS7x11_4                                         bm_num.o
RDS7x11_5                                         bm_num.o
RDS7x11_6                                         bm_num.o
RDS7x11_7                                         bm_num.o
RDS7x11_8                                         bm_num.o
RDS7x11_9                                         bm_num.o
RDS7x11_dp                                        bm_num.o
RDS7x11_mi                                        bm_num.o
RDS7x11_pl                                        bm_num.o
RDS7x11_uk                                        bm_num.o
RDSfnt0                                           bm_num.o
RDSfnt1                                           bm_num.o
                                                  screens.o
RDSfnt2                                           bm_num.o
RDSfnt3                                           bm_num.o
ROLL01                                            bm_sym.o
ROLL02                                            bm_sym.o
ROLL03                                            bm_sym.o
ROLL04                                            bm_sym.o
ROLL05                                            bm_sym.o
ROLL06                                            bm_sym.o
ROLL07                                            bm_sym.o
ROLL08                                            bm_sym.o
ROLLER                                            bm_sym.o
                                                  screens.o
ResetLubeCount                                    functions.o
                                                  screens.o
ResetSequenceFactors                              functions.o
                                                  screens.o
                                                  display.o
RollEngageTurnedOn                                functions.o
RollEngageTurnedOnInManMode                       screens.o
                                                  functions.o
RollerTimer                                       functions.o
RunFactorStatus                                   Power.o
                                                  functions.o
RxCOM0                                            serial.o
                                                  portISR.o
                                                  syscalls.o
SIDEDISPLAY_1                                     bm_sym.o
                                                  screens.o
SIDEDISPLAY_2                                     bm_sym.o
                                                  screens.o
SPEAKER                                           bm_sym.o
SPI0Setup                                         display.o
                                                  Power.o
SPI1FlashRead                                     Power.o
SPI1FlashWrite                                    Power.o
                                                  Operate.o
                                                  screens.o
                                                  functions.o
SPI1Setup                                         Power.o
                                                  main.o
SPI1TransferData                                  Power.o
SWCLOSED                                          bm_sym.o
                                                  functions.o
SWOPEN                                            bm_sym.o
                                                  functions.o
SavecalDelayOnMainDisplay                         Operate.o
                                                  screens.o
                                                  functions.o
SavecalDelayWithinMenus                           Operate.o
                                                  screens.o
                                                  functions.o
SavedOP5TurnedOnAfterBeakEngagePulsesEnabled      functions.o
SavedRollEngageTurnedOn                           functions.o
Screen100Page                                     screens.o
SecondScreen                                      screens.o
                                                  display.o
                                                  functions.o
SelectedBaleStore                                 screens.o
SendToDisplay                                     display.o
                                                  Power.o
                                                  screens.o
SeqOpOff                                          functions.o
SeqOpOn                                           functions.o
Sequence                                          functions.o
                                                  display.o
SequenceInProgress                                screens.o
                                                  functions.o
SetDefaultFactors                                 functions.o
                                                  Power.o
                                                  screens.o
SetDefaultTotals                                  functions.o
                                                  Power.o
                                                  screens.o
SetOutputPWM                                      functions.o
                                                  screens.o
                                                  display.o
                                                  main.o
SetStartupDefaults                                functions.o
                                                  Power.o
SetTime                                           strings.o
                                                  bm_f1cyr.o
                                                  bm_f1eur.o
                                                  bm_f1all.o
                                                  bm_num.o
                                                  bm_sym.o
                                                  Power.o
                                                  Operate.o
                                                  TWI_task.o
                                                  CAN_mcm.o
                                                  CANtest.o
                                                  comtest.o
                                                  serial.o
                                                  port.o
                                                  screens.o
                                                  display.o
                                                  functions.o
                                                  main.o
                                                  interrupts.o
                                                  portISR.o
                                                  syscalls.o
                                                  Cstartup_SAM7.o
Stage                                             screens.o
                                                  functions.o
StartAutoNet                                      screens.o
                                                  functions.o
Store                                             functions.o
                                                  screens.o
SupplyVolts                                       display.o
                                                  functions.o
SystemInterruptHandler                            portISR.o
TAB                                               bm_sym.o
                                                  screens.o
TABAUTOMAN                                        bm_sym.o
                                                  screens.o
TABCROSS                                          bm_sym.o
                                                  screens.o
TABCYCLE_ATOJ                                     bm_sym.o
                                                  screens.o
TABDIVERT                                         bm_sym.o
                                                  screens.o
TABENT                                            bm_sym.o
                                                  screens.o
TABESC                                            bm_sym.o
                                                  screens.o
TABKNFDIV                                         bm_sym.o
                                                  screens.o
TABKNFOFF                                         bm_sym.o
                                                  screens.o
TABKNFON                                          bm_sym.o
                                                  screens.o
TABLEFT                                           bm_sym.o
                                                  screens.o
TABMAN                                            bm_sym.o
                                                  screens.o
TABMINUS                                          bm_sym.o
                                                  screens.o
TABNAV00                                          bm_sym.o
                                                  screens.o
TABNAV01                                          bm_sym.o
                                                  screens.o
TABNAV_                                           bm_sym.o
                                                  screens.o
TABNAV_D                                          bm_sym.o
                                                  screens.o
TABNAV_DL                                         bm_sym.o
                                                  screens.o
TABNAV_DLR                                        bm_sym.o
                                                  screens.o
TABNAV_DR                                         bm_sym.o
                                                  screens.o
TABNAV_L                                          bm_sym.o
                                                  screens.o
TABNAV_LR                                         bm_sym.o
                                                  screens.o
TABNAV_MENU_DL                                    bm_sym.o
                                                  screens.o
TABNAV_R                                          bm_sym.o
TABNAV_U                                          bm_sym.o
                                                  screens.o
TABNAV_UD                                         bm_sym.o
                                                  screens.o
TABNAV_UDL                                        bm_sym.o
                                                  screens.o
TABNAV_UDLR                                       bm_sym.o
                                                  screens.o
TABNAV_UDR                                        bm_sym.o
                                                  screens.o
TABNAV_UL                                         bm_sym.o
                                                  screens.o
TABNAV_ULR                                        bm_sym.o
                                                  screens.o
TABNAV_UR                                         bm_sym.o
TABNET                                            bm_sym.o
                                                  screens.o
TABPLUS                                           bm_sym.o
                                                  screens.o
TABRESET                                          bm_sym.o
                                                  screens.o
TABRESET_LUBECOUNT                                bm_sym.o
                                                  screens.o
TABRIGHT                                          bm_sym.o
                                                  screens.o
TABTICK                                           bm_sym.o
                                                  screens.o
TAB_DENSITY_RELEASE                               bm_sym.o
                                                  screens.o
TAB_MAKE_SELECTION_CURRENT                        bm_sym.o
                                                  screens.o
TAB_NET_CUT                                       bm_sym.o
                                                  screens.o
TAB_PAGE                                          bm_sym.o
                                                  screens.o
TC0_irq_handler                                   interrupts.o
                                                  main.o
TC1_count0                                        functions.o
                                                  interrupts.o
TC1_interrupt_count                               comtest.o
                                                  functions.o
                                                  main.o
                                                  interrupts.o
TC1_irq_handler                                   interrupts.o
                                                  main.o
TC1_millisec_count                                functions.o
TC4_irq_handler                                   interrupts.o
                                                  main.o
TC5_irq_handler                                   interrupts.o
                                                  main.o
TC6_irq_handler                                   interrupts.o
                                                  main.o
TICK                                              bm_sym.o
TWItaskhandle                                     strings.o
                                                  bm_f1cyr.o
                                                  bm_f1eur.o
                                                  bm_f1all.o
                                                  bm_num.o
                                                  bm_sym.o
                                                  Power.o
                                                  Operate.o
                                                  TWI_task.o
                                                  CAN_mcm.o
                                                  CANtest.o
                                                  comtest.o
                                                  serial.o
                                                  port.o
                                                  screens.o
                                                  display.o
                                                  functions.o
                                                  main.o
                                                  interrupts.o
                                                  portISR.o
                                                  syscalls.o
                                                  Cstartup_SAM7.o
TargetNetPulses                                   functions.o
TextString                                        strings.o
                                                  functions.o
Tick                                              bm_sym.o
Top_Stack                                         Cstartup.o
TxCOM0                                            comtest.o
                                                  serial.o
                                                  portISR.o
                                                  syscalls.o
UCkey                                             functions.o
                                                  display.o
UNDERLINE_FOUR_DIGIT                              bm_sym.o
                                                  screens.o
UNDERLINE_TWO_DIGIT                               bm_sym.o
                                                  screens.o
UpdatingAndSavingTotalsToMemory                   functions.o
WARNINGBOX                                        bm_sym.o
WARNING_CHECKNET                                  bm_sym.o
                                                  screens.o
WARNING_CHOP_KNIV_POS                             bm_sym.o
                                                  screens.o
WARNING_DENSITY_PRESSURE_SCREEN_IMAGE             bm_sym.o
                                                  screens.o
WARNING_DROPFLOOR                                 bm_sym.o
                                                  screens.o
WARNING_KNIFEPRES                                 bm_sym.o
                                                  screens.o
WARNING_LOWBATT                                   bm_sym.o
                                                  screens.o
WriteDisplay                                      display.o
_Balloc                                           c:/gnuarm-471_eabi/bin/../lib/gcc/arm-none-eabi/4.7.1/../../../../arm-none-eabi/lib/thumb\libg.a(lib_a-mprec.o)
                                                  c:/gnuarm-471_eabi/bin/../lib/gcc/arm-none-eabi/4.7.1/../../../../arm-none-eabi/lib/thumb\libg.a(lib_a-gdtoa-gethex.o)
                                                  c:/gnuarm-471_eabi/bin/../lib/gcc/arm-none-eabi/4.7.1/../../../../arm-none-eabi/lib/thumb\libg.a(lib_a-dtoa.o)
                                                  c:/gnuarm-471_eabi/bin/../lib/gcc/arm-none-eabi/4.7.1/../../../../arm-none-eabi/lib/thumb\libg.a(lib_a-strtod.o)
_Bfree                                            c:/gnuarm-471_eabi/bin/../lib/gcc/arm-none-eabi/4.7.1/../../../../arm-none-eabi/lib/thumb\libg.a(lib_a-mprec.o)
                                                  c:/gnuarm-471_eabi/bin/../lib/gcc/arm-none-eabi/4.7.1/../../../../arm-none-eabi/lib/thumb\libg.a(lib_a-gdtoa-gethex.o)
                                                  c:/gnuarm-471_eabi/bin/../lib/gcc/arm-none-eabi/4.7.1/../../../../arm-none-eabi/lib/thumb\libg.a(lib_a-dtoa.o)
                                                  c:/gnuarm-471_eabi/bin/../lib/gcc/arm-none-eabi/4.7.1/../../../../arm-none-eabi/lib/thumb\libg.a(lib_a-strtod.o)
_PathLocale                                       c:/gnuarm-471_eabi/bin/../lib/gcc/arm-none-eabi/4.7.1/../../../../arm-none-eabi/lib/thumb\libg.a(lib_a-locale.o)
__adddf3                                          c:/gnuarm-471_eabi/bin/../lib/gcc/arm-none-eabi/4.7.1/thumb\libgcc.a(_arm_addsubdf3.o)
__addsf3                                          c:/gnuarm-471_eabi/bin/../lib/gcc/arm-none-eabi/4.7.1/thumb\libgcc.a(_arm_addsubsf3.o)
__aeabi_cdcmpeq                                   c:/gnuarm-471_eabi/bin/../lib/gcc/arm-none-eabi/4.7.1/thumb\libgcc.a(_arm_cmpdf2.o)
__aeabi_cdcmple                                   c:/gnuarm-471_eabi/bin/../lib/gcc/arm-none-eabi/4.7.1/thumb\libgcc.a(_arm_cmpdf2.o)
__aeabi_cdrcmple                                  c:/gnuarm-471_eabi/bin/../lib/gcc/arm-none-eabi/4.7.1/thumb\libgcc.a(_arm_cmpdf2.o)
__aeabi_cfcmpeq                                   c:/gnuarm-471_eabi/bin/../lib/gcc/arm-none-eabi/4.7.1/thumb\libgcc.a(_arm_cmpsf2.o)
__aeabi_cfcmple                                   c:/gnuarm-471_eabi/bin/../lib/gcc/arm-none-eabi/4.7.1/thumb\libgcc.a(_arm_cmpsf2.o)
__aeabi_cfrcmple                                  c:/gnuarm-471_eabi/bin/../lib/gcc/arm-none-eabi/4.7.1/thumb\libgcc.a(_arm_cmpsf2.o)
__aeabi_d2f                                       c:/gnuarm-471_eabi/bin/../lib/gcc/arm-none-eabi/4.7.1/thumb\libgcc.a(_arm_truncdfsf2.o)
                                                  c:/gnuarm-471_eabi/bin/../lib/gcc/arm-none-eabi/4.7.1/../../../../arm-none-eabi/lib/thumb\libg.a(lib_a-strtod.o)
                                                  Operate.o
                                                  screens.o
                                                  display.o
                                                  functions.o
__aeabi_d2iz                                      c:/gnuarm-471_eabi/bin/../lib/gcc/arm-none-eabi/4.7.1/thumb\libgcc.a(_arm_fixdfsi.o)
                                                  c:/gnuarm-471_eabi/bin/../lib/gcc/arm-none-eabi/4.7.1/../../../../arm-none-eabi/lib/thumb\libg.a(lib_a-dtoa.o)
                                                  c:/gnuarm-471_eabi/bin/../lib/gcc/arm-none-eabi/4.7.1/../../../../arm-none-eabi/lib/thumb\libg.a(lib_a-strtod.o)
__aeabi_d2uiz                                     c:/gnuarm-471_eabi/bin/../lib/gcc/arm-none-eabi/4.7.1/thumb\libgcc.a(_arm_fixunsdfsi.o)
                                                  c:/gnuarm-471_eabi/bin/../lib/gcc/arm-none-eabi/4.7.1/../../../../arm-none-eabi/lib/thumb\libg.a(lib_a-strtod.o)
                                                  screens.o
                                                  functions.o
__aeabi_dadd                                      c:/gnuarm-471_eabi/bin/../lib/gcc/arm-none-eabi/4.7.1/thumb\libgcc.a(_arm_addsubdf3.o)
                                                  c:/gnuarm-471_eabi/bin/../lib/gcc/arm-none-eabi/4.7.1/../../../../arm-none-eabi/lib/thumb\libg.a(lib_a-dtoa.o)
                                                  c:/gnuarm-471_eabi/bin/../lib/gcc/arm-none-eabi/4.7.1/../../../../arm-none-eabi/lib/thumb\libg.a(lib_a-strtod.o)
                                                  screens.o
                                                  display.o
                                                  functions.o
__aeabi_dcmpeq                                    c:/gnuarm-471_eabi/bin/../lib/gcc/arm-none-eabi/4.7.1/thumb\libgcc.a(_arm_cmpdf2.o)
                                                  c:/gnuarm-471_eabi/bin/../lib/gcc/arm-none-eabi/4.7.1/../../../../arm-none-eabi/lib/thumb\libg.a(lib_a-dtoa.o)
                                                  c:/gnuarm-471_eabi/bin/../lib/gcc/arm-none-eabi/4.7.1/../../../../arm-none-eabi/lib/thumb\libg.a(lib_a-svfprintf.o)
                                                  c:/gnuarm-471_eabi/bin/../lib/gcc/arm-none-eabi/4.7.1/../../../../arm-none-eabi/lib/thumb\libg.a(lib_a-strtod.o)
__aeabi_dcmpge                                    c:/gnuarm-471_eabi/bin/../lib/gcc/arm-none-eabi/4.7.1/thumb\libgcc.a(_arm_cmpdf2.o)
                                                  c:/gnuarm-471_eabi/bin/../lib/gcc/arm-none-eabi/4.7.1/../../../../arm-none-eabi/lib/thumb\libg.a(lib_a-dtoa.o)
                                                  screens.o
__aeabi_dcmpgt                                    c:/gnuarm-471_eabi/bin/../lib/gcc/arm-none-eabi/4.7.1/thumb\libgcc.a(_arm_cmpdf2.o)
                                                  c:/gnuarm-471_eabi/bin/../lib/gcc/arm-none-eabi/4.7.1/../../../../arm-none-eabi/lib/thumb\libg.a(lib_a-dtoa.o)
                                                  c:/gnuarm-471_eabi/bin/../lib/gcc/arm-none-eabi/4.7.1/../../../../arm-none-eabi/lib/thumb\libg.a(lib_a-strtod.o)
                                                  screens.o
                                                  functions.o
__aeabi_dcmple                                    c:/gnuarm-471_eabi/bin/../lib/gcc/arm-none-eabi/4.7.1/thumb\libgcc.a(_arm_cmpdf2.o)
                                                  c:/gnuarm-471_eabi/bin/../lib/gcc/arm-none-eabi/4.7.1/../../../../arm-none-eabi/lib/thumb\libg.a(lib_a-strtod.o)
                                                  screens.o
__aeabi_dcmplt                                    c:/gnuarm-471_eabi/bin/../lib/gcc/arm-none-eabi/4.7.1/thumb\libgcc.a(_arm_cmpdf2.o)
                                                  c:/gnuarm-471_eabi/bin/../lib/gcc/arm-none-eabi/4.7.1/../../../../arm-none-eabi/lib/thumb\libg.a(lib_a-dtoa.o)
                                                  c:/gnuarm-471_eabi/bin/../lib/gcc/arm-none-eabi/4.7.1/../../../../arm-none-eabi/lib/thumb\libg.a(lib_a-svfprintf.o)
                                                  c:/gnuarm-471_eabi/bin/../lib/gcc/arm-none-eabi/4.7.1/../../../../arm-none-eabi/lib/thumb\libg.a(lib_a-strtod.o)
                                                  screens.o
                                                  functions.o
__aeabi_ddiv                                      c:/gnuarm-471_eabi/bin/../lib/gcc/arm-none-eabi/4.7.1/thumb\libgcc.a(_arm_muldivdf3.o)
                                                  c:/gnuarm-471_eabi/bin/../lib/gcc/arm-none-eabi/4.7.1/../../../../arm-none-eabi/lib/thumb\libg.a(lib_a-mprec.o)
                                                  c:/gnuarm-471_eabi/bin/../lib/gcc/arm-none-eabi/4.7.1/../../../../arm-none-eabi/lib/thumb\libg.a(lib_a-dtoa.o)
                                                  c:/gnuarm-471_eabi/bin/../lib/gcc/arm-none-eabi/4.7.1/../../../../arm-none-eabi/lib/thumb\libg.a(lib_a-strtod.o)
                                                  functions.o
__aeabi_dmul                                      c:/gnuarm-471_eabi/bin/../lib/gcc/arm-none-eabi/4.7.1/thumb\libgcc.a(_arm_muldivdf3.o)
                                                  c:/gnuarm-471_eabi/bin/../lib/gcc/arm-none-eabi/4.7.1/../../../../arm-none-eabi/lib/thumb\libg.a(lib_a-mprec.o)
                                                  c:/gnuarm-471_eabi/bin/../lib/gcc/arm-none-eabi/4.7.1/../../../../arm-none-eabi/lib/thumb\libg.a(lib_a-dtoa.o)
                                                  c:/gnuarm-471_eabi/bin/../lib/gcc/arm-none-eabi/4.7.1/../../../../arm-none-eabi/lib/thumb\libg.a(lib_a-strtod.o)
                                                  Operate.o
                                                  screens.o
                                                  display.o
                                                  functions.o
__aeabi_drsub                                     c:/gnuarm-471_eabi/bin/../lib/gcc/arm-none-eabi/4.7.1/thumb\libgcc.a(_arm_addsubdf3.o)
__aeabi_dsub                                      c:/gnuarm-471_eabi/bin/../lib/gcc/arm-none-eabi/4.7.1/thumb\libgcc.a(_arm_addsubdf3.o)
                                                  c:/gnuarm-471_eabi/bin/../lib/gcc/arm-none-eabi/4.7.1/../../../../arm-none-eabi/lib/thumb\libg.a(lib_a-dtoa.o)
                                                  c:/gnuarm-471_eabi/bin/../lib/gcc/arm-none-eabi/4.7.1/../../../../arm-none-eabi/lib/thumb\libg.a(lib_a-strtod.o)
                                                  screens.o
                                                  functions.o
__aeabi_f2d                                       c:/gnuarm-471_eabi/bin/../lib/gcc/arm-none-eabi/4.7.1/thumb\libgcc.a(_arm_addsubdf3.o)
                                                  Operate.o
                                                  screens.o
                                                  display.o
                                                  functions.o
__aeabi_f2uiz                                     c:/gnuarm-471_eabi/bin/../lib/gcc/arm-none-eabi/4.7.1/thumb\libgcc.a(_arm_fixunssfsi.o)
                                                  screens.o
                                                  display.o
                                                  functions.o
__aeabi_fadd                                      c:/gnuarm-471_eabi/bin/../lib/gcc/arm-none-eabi/4.7.1/thumb\libgcc.a(_arm_addsubsf3.o)
                                                  screens.o
                                                  display.o
                                                  functions.o
__aeabi_fcmpeq                                    c:/gnuarm-471_eabi/bin/../lib/gcc/arm-none-eabi/4.7.1/thumb\libgcc.a(_arm_cmpsf2.o)
__aeabi_fcmpge                                    c:/gnuarm-471_eabi/bin/../lib/gcc/arm-none-eabi/4.7.1/thumb\libgcc.a(_arm_cmpsf2.o)
                                                  display.o
                                                  functions.o
__aeabi_fcmpgt                                    c:/gnuarm-471_eabi/bin/../lib/gcc/arm-none-eabi/4.7.1/thumb\libgcc.a(_arm_cmpsf2.o)
                                                  screens.o
                                                  display.o
                                                  functions.o
__aeabi_fcmple                                    c:/gnuarm-471_eabi/bin/../lib/gcc/arm-none-eabi/4.7.1/thumb\libgcc.a(_arm_cmpsf2.o)
                                                  screens.o
__aeabi_fcmplt                                    c:/gnuarm-471_eabi/bin/../lib/gcc/arm-none-eabi/4.7.1/thumb\libgcc.a(_arm_cmpsf2.o)
                                                  screens.o
                                                  display.o
                                                  functions.o
__aeabi_fdiv                                      c:/gnuarm-471_eabi/bin/../lib/gcc/arm-none-eabi/4.7.1/thumb\libgcc.a(_arm_muldivsf3.o)
                                                  screens.o
                                                  display.o
                                                  functions.o
__aeabi_fmul                                      c:/gnuarm-471_eabi/bin/../lib/gcc/arm-none-eabi/4.7.1/thumb\libgcc.a(_arm_muldivsf3.o)
                                                  display.o
                                                  functions.o
__aeabi_frsub                                     c:/gnuarm-471_eabi/bin/../lib/gcc/arm-none-eabi/4.7.1/thumb\libgcc.a(_arm_addsubsf3.o)
__aeabi_fsub                                      c:/gnuarm-471_eabi/bin/../lib/gcc/arm-none-eabi/4.7.1/thumb\libgcc.a(_arm_addsubsf3.o)
                                                  screens.o
                                                  display.o
                                                  functions.o
__aeabi_i2d                                       c:/gnuarm-471_eabi/bin/../lib/gcc/arm-none-eabi/4.7.1/thumb\libgcc.a(_arm_addsubdf3.o)
                                                  c:/gnuarm-471_eabi/bin/../lib/gcc/arm-none-eabi/4.7.1/../../../../arm-none-eabi/lib/thumb\libg.a(lib_a-dtoa.o)
                                                  c:/gnuarm-471_eabi/bin/../lib/gcc/arm-none-eabi/4.7.1/../../../../arm-none-eabi/lib/thumb\libg.a(lib_a-strtod.o)
__aeabi_i2f                                       c:/gnuarm-471_eabi/bin/../lib/gcc/arm-none-eabi/4.7.1/thumb\libgcc.a(_arm_addsubsf3.o)
                                                  screens.o
                                                  functions.o
__aeabi_idiv                                      c:/gnuarm-471_eabi/bin/../lib/gcc/arm-none-eabi/4.7.1/thumb\libgcc.a(_divsi3.o)
                                                  c:/gnuarm-471_eabi/bin/../lib/gcc/arm-none-eabi/4.7.1/../../../../arm-none-eabi/lib/thumb\libg.a(lib_a-mprec.o)
                                                  c:/gnuarm-471_eabi/bin/../lib/gcc/arm-none-eabi/4.7.1/../../../../arm-none-eabi/lib/thumb\libg.a(lib_a-svfprintf.o)
                                                  display.o
                                                  functions.o
__aeabi_idiv0                                     c:/gnuarm-471_eabi/bin/../lib/gcc/arm-none-eabi/4.7.1/thumb\libgcc.a(_dvmd_tls.o)
                                                  c:/gnuarm-471_eabi/bin/../lib/gcc/arm-none-eabi/4.7.1/thumb\libgcc.a(_divsi3.o)
                                                  c:/gnuarm-471_eabi/bin/../lib/gcc/arm-none-eabi/4.7.1/thumb\libgcc.a(_udivsi3.o)
__aeabi_idivmod                                   c:/gnuarm-471_eabi/bin/../lib/gcc/arm-none-eabi/4.7.1/thumb\libgcc.a(_divsi3.o)
                                                  c:/gnuarm-471_eabi/bin/../lib/gcc/arm-none-eabi/4.7.1/../../../../arm-none-eabi/lib/thumb\libg.a(lib_a-svfprintf.o)
__aeabi_l2d                                       c:/gnuarm-471_eabi/bin/../lib/gcc/arm-none-eabi/4.7.1/thumb\libgcc.a(_arm_addsubdf3.o)
__aeabi_l2f                                       c:/gnuarm-471_eabi/bin/../lib/gcc/arm-none-eabi/4.7.1/thumb\libgcc.a(_arm_addsubsf3.o)
__aeabi_ldiv0                                     c:/gnuarm-471_eabi/bin/../lib/gcc/arm-none-eabi/4.7.1/thumb\libgcc.a(_dvmd_tls.o)
__aeabi_ui2d                                      c:/gnuarm-471_eabi/bin/../lib/gcc/arm-none-eabi/4.7.1/thumb\libgcc.a(_arm_addsubdf3.o)
                                                  c:/gnuarm-471_eabi/bin/../lib/gcc/arm-none-eabi/4.7.1/../../../../arm-none-eabi/lib/thumb\libg.a(lib_a-dtoa.o)
                                                  c:/gnuarm-471_eabi/bin/../lib/gcc/arm-none-eabi/4.7.1/../../../../arm-none-eabi/lib/thumb\libg.a(lib_a-strtod.o)
__aeabi_ui2f                                      c:/gnuarm-471_eabi/bin/../lib/gcc/arm-none-eabi/4.7.1/thumb\libgcc.a(_arm_addsubsf3.o)
                                                  Operate.o
                                                  screens.o
                                                  display.o
                                                  functions.o
__aeabi_uidiv                                     c:/gnuarm-471_eabi/bin/../lib/gcc/arm-none-eabi/4.7.1/thumb\libgcc.a(_udivsi3.o)
                                                  c:/gnuarm-471_eabi/bin/../lib/gcc/arm-none-eabi/4.7.1/../../../../arm-none-eabi/lib/thumb\libg.a(lib_a-svfiprintf.o)
                                                  c:/gnuarm-471_eabi/bin/../lib/gcc/arm-none-eabi/4.7.1/../../../../arm-none-eabi/lib/thumb\libg.a(lib_a-dtoa.o)
                                                  c:/gnuarm-471_eabi/bin/../lib/gcc/arm-none-eabi/4.7.1/../../../../arm-none-eabi/lib/thumb\libg.a(lib_a-svfprintf.o)
                                                  c:/gnuarm-471_eabi/bin/../lib/gcc/arm-none-eabi/4.7.1/../../../../arm-none-eabi/lib/thumb\libg.a(lib_a-strtol.o)
                                                  serial.o
                                                  screens.o
                                                  display.o
                                                  functions.o
__aeabi_uidivmod                                  c:/gnuarm-471_eabi/bin/../lib/gcc/arm-none-eabi/4.7.1/thumb\libgcc.a(_udivsi3.o)
                                                  c:/gnuarm-471_eabi/bin/../lib/gcc/arm-none-eabi/4.7.1/../../../../arm-none-eabi/lib/thumb\libg.a(lib_a-svfiprintf.o)
                                                  c:/gnuarm-471_eabi/bin/../lib/gcc/arm-none-eabi/4.7.1/../../../../arm-none-eabi/lib/thumb\libg.a(lib_a-svfprintf.o)
                                                  c:/gnuarm-471_eabi/bin/../lib/gcc/arm-none-eabi/4.7.1/../../../../arm-none-eabi/lib/thumb\libg.a(lib_a-strtol.o)
                                                  comtest.o
                                                  screens.o
                                                  functions.o
__aeabi_ul2d                                      c:/gnuarm-471_eabi/bin/../lib/gcc/arm-none-eabi/4.7.1/thumb\libgcc.a(_arm_addsubdf3.o)
__aeabi_ul2f                                      c:/gnuarm-471_eabi/bin/../lib/gcc/arm-none-eabi/4.7.1/thumb\libgcc.a(_arm_addsubsf3.o)
__any_on                                          c:/gnuarm-471_eabi/bin/../lib/gcc/arm-none-eabi/4.7.1/../../../../arm-none-eabi/lib/thumb\libg.a(lib_a-mprec.o)
                                                  c:/gnuarm-471_eabi/bin/../lib/gcc/arm-none-eabi/4.7.1/../../../../arm-none-eabi/lib/thumb\libg.a(lib_a-gdtoa-gethex.o)
__b2d                                             c:/gnuarm-471_eabi/bin/../lib/gcc/arm-none-eabi/4.7.1/../../../../arm-none-eabi/lib/thumb\libg.a(lib_a-mprec.o)
__bss_end__                                       Cstartup.o
__bss_start__                                     Cstartup.o
__cmpdf2                                          c:/gnuarm-471_eabi/bin/../lib/gcc/arm-none-eabi/4.7.1/thumb\libgcc.a(_arm_cmpdf2.o)
__cmpsf2                                          c:/gnuarm-471_eabi/bin/../lib/gcc/arm-none-eabi/4.7.1/thumb\libgcc.a(_arm_cmpsf2.o)
__copybits                                        c:/gnuarm-471_eabi/bin/../lib/gcc/arm-none-eabi/4.7.1/../../../../arm-none-eabi/lib/thumb\libg.a(lib_a-mprec.o)
                                                  c:/gnuarm-471_eabi/bin/../lib/gcc/arm-none-eabi/4.7.1/../../../../arm-none-eabi/lib/thumb\libg.a(lib_a-strtod.o)
__ctype_ptr__                                     c:/gnuarm-471_eabi/bin/../lib/gcc/arm-none-eabi/4.7.1/../../../../arm-none-eabi/lib/thumb\libg.a(lib_a-ctype_.o)
                                                  c:/gnuarm-471_eabi/bin/../lib/gcc/arm-none-eabi/4.7.1/../../../../arm-none-eabi/lib/thumb\libg.a(lib_a-strtol.o)
__d2b                                             c:/gnuarm-471_eabi/bin/../lib/gcc/arm-none-eabi/4.7.1/../../../../arm-none-eabi/lib/thumb\libg.a(lib_a-mprec.o)
                                                  c:/gnuarm-471_eabi/bin/../lib/gcc/arm-none-eabi/4.7.1/../../../../arm-none-eabi/lib/thumb\libg.a(lib_a-dtoa.o)
                                                  c:/gnuarm-471_eabi/bin/../lib/gcc/arm-none-eabi/4.7.1/../../../../arm-none-eabi/lib/thumb\libg.a(lib_a-strtod.o)
__divdf3                                          c:/gnuarm-471_eabi/bin/../lib/gcc/arm-none-eabi/4.7.1/thumb\libgcc.a(_arm_muldivdf3.o)
__divsf3                                          c:/gnuarm-471_eabi/bin/../lib/gcc/arm-none-eabi/4.7.1/thumb\libgcc.a(_arm_muldivsf3.o)
__divsi3                                          c:/gnuarm-471_eabi/bin/../lib/gcc/arm-none-eabi/4.7.1/thumb\libgcc.a(_divsi3.o)
__eqdf2                                           c:/gnuarm-471_eabi/bin/../lib/gcc/arm-none-eabi/4.7.1/thumb\libgcc.a(_arm_cmpdf2.o)
__eqsf2                                           c:/gnuarm-471_eabi/bin/../lib/gcc/arm-none-eabi/4.7.1/thumb\libgcc.a(_arm_cmpsf2.o)
__extendsfdf2                                     c:/gnuarm-471_eabi/bin/../lib/gcc/arm-none-eabi/4.7.1/thumb\libgcc.a(_arm_addsubdf3.o)
__fixdfsi                                         c:/gnuarm-471_eabi/bin/../lib/gcc/arm-none-eabi/4.7.1/thumb\libgcc.a(_arm_fixdfsi.o)
__fixunsdfsi                                      c:/gnuarm-471_eabi/bin/../lib/gcc/arm-none-eabi/4.7.1/thumb\libgcc.a(_arm_fixunsdfsi.o)
__fixunssfsi                                      c:/gnuarm-471_eabi/bin/../lib/gcc/arm-none-eabi/4.7.1/thumb\libgcc.a(_arm_fixunssfsi.o)
__floatdidf                                       c:/gnuarm-471_eabi/bin/../lib/gcc/arm-none-eabi/4.7.1/thumb\libgcc.a(_arm_addsubdf3.o)
__floatdisf                                       c:/gnuarm-471_eabi/bin/../lib/gcc/arm-none-eabi/4.7.1/thumb\libgcc.a(_arm_addsubsf3.o)
__floatsidf                                       c:/gnuarm-471_eabi/bin/../lib/gcc/arm-none-eabi/4.7.1/thumb\libgcc.a(_arm_addsubdf3.o)
__floatsisf                                       c:/gnuarm-471_eabi/bin/../lib/gcc/arm-none-eabi/4.7.1/thumb\libgcc.a(_arm_addsubsf3.o)
__floatundidf                                     c:/gnuarm-471_eabi/bin/../lib/gcc/arm-none-eabi/4.7.1/thumb\libgcc.a(_arm_addsubdf3.o)
__floatundisf                                     c:/gnuarm-471_eabi/bin/../lib/gcc/arm-none-eabi/4.7.1/thumb\libgcc.a(_arm_addsubsf3.o)
__floatunsidf                                     c:/gnuarm-471_eabi/bin/../lib/gcc/arm-none-eabi/4.7.1/thumb\libgcc.a(_arm_addsubdf3.o)
__floatunsisf                                     c:/gnuarm-471_eabi/bin/../lib/gcc/arm-none-eabi/4.7.1/thumb\libgcc.a(_arm_addsubsf3.o)
__fpclassifyd                                     c:/gnuarm-471_eabi/bin/../lib/gcc/arm-none-eabi/4.7.1/../../../../arm-none-eabi/lib/thumb\libg.a(lib_a-s_fpclassify.o)
                                                  c:/gnuarm-471_eabi/bin/../lib/gcc/arm-none-eabi/4.7.1/../../../../arm-none-eabi/lib/thumb\libg.a(lib_a-svfprintf.o)
                                                  c:/gnuarm-471_eabi/bin/../lib/gcc/arm-none-eabi/4.7.1/../../../../arm-none-eabi/lib/thumb\libg.a(lib_a-strtod.o)
__gedf2                                           c:/gnuarm-471_eabi/bin/../lib/gcc/arm-none-eabi/4.7.1/thumb\libgcc.a(_arm_cmpdf2.o)
__gesf2                                           c:/gnuarm-471_eabi/bin/../lib/gcc/arm-none-eabi/4.7.1/thumb\libgcc.a(_arm_cmpsf2.o)
__gethex                                          c:/gnuarm-471_eabi/bin/../lib/gcc/arm-none-eabi/4.7.1/../../../../arm-none-eabi/lib/thumb\libg.a(lib_a-gdtoa-gethex.o)
                                                  c:/gnuarm-471_eabi/bin/../lib/gcc/arm-none-eabi/4.7.1/../../../../arm-none-eabi/lib/thumb\libg.a(lib_a-strtod.o)
__gtdf2                                           c:/gnuarm-471_eabi/bin/../lib/gcc/arm-none-eabi/4.7.1/thumb\libgcc.a(_arm_cmpdf2.o)
__gtsf2                                           c:/gnuarm-471_eabi/bin/../lib/gcc/arm-none-eabi/4.7.1/thumb\libgcc.a(_arm_cmpsf2.o)
__hexdig                                          c:/gnuarm-471_eabi/bin/../lib/gcc/arm-none-eabi/4.7.1/../../../../arm-none-eabi/lib/thumb\libg.a(lib_a-gdtoa-hexnan.o)
                                                  c:/gnuarm-471_eabi/bin/../lib/gcc/arm-none-eabi/4.7.1/../../../../arm-none-eabi/lib/thumb\libg.a(lib_a-gdtoa-gethex.o)
__hexdig_init                                     c:/gnuarm-471_eabi/bin/../lib/gcc/arm-none-eabi/4.7.1/../../../../arm-none-eabi/lib/thumb\libg.a(lib_a-gdtoa-gethex.o)
                                                  c:/gnuarm-471_eabi/bin/../lib/gcc/arm-none-eabi/4.7.1/../../../../arm-none-eabi/lib/thumb\libg.a(lib_a-gdtoa-hexnan.o)
__hexnan                                          c:/gnuarm-471_eabi/bin/../lib/gcc/arm-none-eabi/4.7.1/../../../../arm-none-eabi/lib/thumb\libg.a(lib_a-gdtoa-hexnan.o)
                                                  c:/gnuarm-471_eabi/bin/../lib/gcc/arm-none-eabi/4.7.1/../../../../arm-none-eabi/lib/thumb\libg.a(lib_a-strtod.o)
__hi0bits                                         c:/gnuarm-471_eabi/bin/../lib/gcc/arm-none-eabi/4.7.1/../../../../arm-none-eabi/lib/thumb\libg.a(lib_a-mprec.o)
                                                  c:/gnuarm-471_eabi/bin/../lib/gcc/arm-none-eabi/4.7.1/../../../../arm-none-eabi/lib/thumb\libg.a(lib_a-gdtoa-gethex.o)
                                                  c:/gnuarm-471_eabi/bin/../lib/gcc/arm-none-eabi/4.7.1/../../../../arm-none-eabi/lib/thumb\libg.a(lib_a-dtoa.o)
__i2b                                             c:/gnuarm-471_eabi/bin/../lib/gcc/arm-none-eabi/4.7.1/../../../../arm-none-eabi/lib/thumb\libg.a(lib_a-mprec.o)
                                                  c:/gnuarm-471_eabi/bin/../lib/gcc/arm-none-eabi/4.7.1/../../../../arm-none-eabi/lib/thumb\libg.a(lib_a-dtoa.o)
                                                  c:/gnuarm-471_eabi/bin/../lib/gcc/arm-none-eabi/4.7.1/../../../../arm-none-eabi/lib/thumb\libg.a(lib_a-strtod.o)
__ledf2                                           c:/gnuarm-471_eabi/bin/../lib/gcc/arm-none-eabi/4.7.1/thumb\libgcc.a(_arm_cmpdf2.o)
__lesf2                                           c:/gnuarm-471_eabi/bin/../lib/gcc/arm-none-eabi/4.7.1/thumb\libgcc.a(_arm_cmpsf2.o)
__lo0bits                                         c:/gnuarm-471_eabi/bin/../lib/gcc/arm-none-eabi/4.7.1/../../../../arm-none-eabi/lib/thumb\libg.a(lib_a-mprec.o)
__locale_charset                                  c:/gnuarm-471_eabi/bin/../lib/gcc/arm-none-eabi/4.7.1/../../../../arm-none-eabi/lib/thumb\libg.a(lib_a-locale.o)
__locale_cjk_lang                                 c:/gnuarm-471_eabi/bin/../lib/gcc/arm-none-eabi/4.7.1/../../../../arm-none-eabi/lib/thumb\libg.a(lib_a-locale.o)
__locale_mb_cur_max                               c:/gnuarm-471_eabi/bin/../lib/gcc/arm-none-eabi/4.7.1/../../../../arm-none-eabi/lib/thumb\libg.a(lib_a-locale.o)
__locale_msgcharset                               c:/gnuarm-471_eabi/bin/../lib/gcc/arm-none-eabi/4.7.1/../../../../arm-none-eabi/lib/thumb\libg.a(lib_a-locale.o)
__lshift                                          c:/gnuarm-471_eabi/bin/../lib/gcc/arm-none-eabi/4.7.1/../../../../arm-none-eabi/lib/thumb\libg.a(lib_a-mprec.o)
                                                  c:/gnuarm-471_eabi/bin/../lib/gcc/arm-none-eabi/4.7.1/../../../../arm-none-eabi/lib/thumb\libg.a(lib_a-gdtoa-gethex.o)
                                                  c:/gnuarm-471_eabi/bin/../lib/gcc/arm-none-eabi/4.7.1/../../../../arm-none-eabi/lib/thumb\libg.a(lib_a-dtoa.o)
                                                  c:/gnuarm-471_eabi/bin/../lib/gcc/arm-none-eabi/4.7.1/../../../../arm-none-eabi/lib/thumb\libg.a(lib_a-strtod.o)
__ltdf2                                           c:/gnuarm-471_eabi/bin/../lib/gcc/arm-none-eabi/4.7.1/thumb\libgcc.a(_arm_cmpdf2.o)
__ltsf2                                           c:/gnuarm-471_eabi/bin/../lib/gcc/arm-none-eabi/4.7.1/thumb\libgcc.a(_arm_cmpsf2.o)
__malloc_av_                                      c:/gnuarm-471_eabi/bin/../lib/gcc/arm-none-eabi/4.7.1/../../../../arm-none-eabi/lib/thumb\libg.a(lib_a-mallocr.o)
                                                  c:/gnuarm-471_eabi/bin/../lib/gcc/arm-none-eabi/4.7.1/../../../../arm-none-eabi/lib/thumb\libg.a(lib_a-reallocr.o)
                                                  c:/gnuarm-471_eabi/bin/../lib/gcc/arm-none-eabi/4.7.1/../../../../arm-none-eabi/lib/thumb\libg.a(lib_a-freer.o)
__malloc_current_mallinfo                         c:/gnuarm-471_eabi/bin/../lib/gcc/arm-none-eabi/4.7.1/../../../../arm-none-eabi/lib/thumb\libg.a(lib_a-mallocr.o)
                                                  c:/gnuarm-471_eabi/bin/../lib/gcc/arm-none-eabi/4.7.1/../../../../arm-none-eabi/lib/thumb\libg.a(lib_a-freer.o)
__malloc_lock                                     c:/gnuarm-471_eabi/bin/../lib/gcc/arm-none-eabi/4.7.1/../../../../arm-none-eabi/lib/thumb\libg.a(lib_a-mlock.o)
                                                  c:/gnuarm-471_eabi/bin/../lib/gcc/arm-none-eabi/4.7.1/../../../../arm-none-eabi/lib/thumb\libg.a(lib_a-reallocr.o)
                                                  c:/gnuarm-471_eabi/bin/../lib/gcc/arm-none-eabi/4.7.1/../../../../arm-none-eabi/lib/thumb\libg.a(lib_a-freer.o)
                                                  c:/gnuarm-471_eabi/bin/../lib/gcc/arm-none-eabi/4.7.1/../../../../arm-none-eabi/lib/thumb\libg.a(lib_a-mallocr.o)
__malloc_max_sbrked_mem                           c:/gnuarm-471_eabi/bin/../lib/gcc/arm-none-eabi/4.7.1/../../../../arm-none-eabi/lib/thumb\libg.a(lib_a-mallocr.o)
__malloc_max_total_mem                            c:/gnuarm-471_eabi/bin/../lib/gcc/arm-none-eabi/4.7.1/../../../../arm-none-eabi/lib/thumb\libg.a(lib_a-mallocr.o)
__malloc_sbrk_base                                c:/gnuarm-471_eabi/bin/../lib/gcc/arm-none-eabi/4.7.1/../../../../arm-none-eabi/lib/thumb\libg.a(lib_a-mallocr.o)
                                                  c:/gnuarm-471_eabi/bin/../lib/gcc/arm-none-eabi/4.7.1/../../../../arm-none-eabi/lib/thumb\libg.a(lib_a-freer.o)
__malloc_top_pad                                  c:/gnuarm-471_eabi/bin/../lib/gcc/arm-none-eabi/4.7.1/../../../../arm-none-eabi/lib/thumb\libg.a(lib_a-mallocr.o)
                                                  c:/gnuarm-471_eabi/bin/../lib/gcc/arm-none-eabi/4.7.1/../../../../arm-none-eabi/lib/thumb\libg.a(lib_a-freer.o)
__malloc_trim_threshold                           c:/gnuarm-471_eabi/bin/../lib/gcc/arm-none-eabi/4.7.1/../../../../arm-none-eabi/lib/thumb\libg.a(lib_a-mallocr.o)
                                                  c:/gnuarm-471_eabi/bin/../lib/gcc/arm-none-eabi/4.7.1/../../../../arm-none-eabi/lib/thumb\libg.a(lib_a-freer.o)
__malloc_unlock                                   c:/gnuarm-471_eabi/bin/../lib/gcc/arm-none-eabi/4.7.1/../../../../arm-none-eabi/lib/thumb\libg.a(lib_a-mlock.o)
                                                  c:/gnuarm-471_eabi/bin/../lib/gcc/arm-none-eabi/4.7.1/../../../../arm-none-eabi/lib/thumb\libg.a(lib_a-reallocr.o)
                                                  c:/gnuarm-471_eabi/bin/../lib/gcc/arm-none-eabi/4.7.1/../../../../arm-none-eabi/lib/thumb\libg.a(lib_a-freer.o)
                                                  c:/gnuarm-471_eabi/bin/../lib/gcc/arm-none-eabi/4.7.1/../../../../arm-none-eabi/lib/thumb\libg.a(lib_a-mallocr.o)
__mb_cur_max                                      c:/gnuarm-471_eabi/bin/../lib/gcc/arm-none-eabi/4.7.1/../../../../arm-none-eabi/lib/thumb\libg.a(lib_a-locale.o)
__mcmp                                            c:/gnuarm-471_eabi/bin/../lib/gcc/arm-none-eabi/4.7.1/../../../../arm-none-eabi/lib/thumb\libg.a(lib_a-mprec.o)
                                                  c:/gnuarm-471_eabi/bin/../lib/gcc/arm-none-eabi/4.7.1/../../../../arm-none-eabi/lib/thumb\libg.a(lib_a-dtoa.o)
                                                  c:/gnuarm-471_eabi/bin/../lib/gcc/arm-none-eabi/4.7.1/../../../../arm-none-eabi/lib/thumb\libg.a(lib_a-strtod.o)
__mdiff                                           c:/gnuarm-471_eabi/bin/../lib/gcc/arm-none-eabi/4.7.1/../../../../arm-none-eabi/lib/thumb\libg.a(lib_a-mprec.o)
                                                  c:/gnuarm-471_eabi/bin/../lib/gcc/arm-none-eabi/4.7.1/../../../../arm-none-eabi/lib/thumb\libg.a(lib_a-dtoa.o)
                                                  c:/gnuarm-471_eabi/bin/../lib/gcc/arm-none-eabi/4.7.1/../../../../arm-none-eabi/lib/thumb\libg.a(lib_a-strtod.o)
__mlocale_changed                                 c:/gnuarm-471_eabi/bin/../lib/gcc/arm-none-eabi/4.7.1/../../../../arm-none-eabi/lib/thumb\libg.a(lib_a-locale.o)
__mprec_bigtens                                   c:/gnuarm-471_eabi/bin/../lib/gcc/arm-none-eabi/4.7.1/../../../../arm-none-eabi/lib/thumb\libg.a(lib_a-mprec.o)
                                                  c:/gnuarm-471_eabi/bin/../lib/gcc/arm-none-eabi/4.7.1/../../../../arm-none-eabi/lib/thumb\libg.a(lib_a-dtoa.o)
                                                  c:/gnuarm-471_eabi/bin/../lib/gcc/arm-none-eabi/4.7.1/../../../../arm-none-eabi/lib/thumb\libg.a(lib_a-strtod.o)
__mprec_tens                                      c:/gnuarm-471_eabi/bin/../lib/gcc/arm-none-eabi/4.7.1/../../../../arm-none-eabi/lib/thumb\libg.a(lib_a-mprec.o)
                                                  c:/gnuarm-471_eabi/bin/../lib/gcc/arm-none-eabi/4.7.1/../../../../arm-none-eabi/lib/thumb\libg.a(lib_a-dtoa.o)
                                                  c:/gnuarm-471_eabi/bin/../lib/gcc/arm-none-eabi/4.7.1/../../../../arm-none-eabi/lib/thumb\libg.a(lib_a-strtod.o)
__mprec_tinytens                                  c:/gnuarm-471_eabi/bin/../lib/gcc/arm-none-eabi/4.7.1/../../../../arm-none-eabi/lib/thumb\libg.a(lib_a-mprec.o)
__muldf3                                          c:/gnuarm-471_eabi/bin/../lib/gcc/arm-none-eabi/4.7.1/thumb\libgcc.a(_arm_muldivdf3.o)
__mulsf3                                          c:/gnuarm-471_eabi/bin/../lib/gcc/arm-none-eabi/4.7.1/thumb\libgcc.a(_arm_muldivsf3.o)
__multadd                                         c:/gnuarm-471_eabi/bin/../lib/gcc/arm-none-eabi/4.7.1/../../../../arm-none-eabi/lib/thumb\libg.a(lib_a-mprec.o)
                                                  c:/gnuarm-471_eabi/bin/../lib/gcc/arm-none-eabi/4.7.1/../../../../arm-none-eabi/lib/thumb\libg.a(lib_a-dtoa.o)
__multiply                                        c:/gnuarm-471_eabi/bin/../lib/gcc/arm-none-eabi/4.7.1/../../../../arm-none-eabi/lib/thumb\libg.a(lib_a-mprec.o)
                                                  c:/gnuarm-471_eabi/bin/../lib/gcc/arm-none-eabi/4.7.1/../../../../arm-none-eabi/lib/thumb\libg.a(lib_a-dtoa.o)
                                                  c:/gnuarm-471_eabi/bin/../lib/gcc/arm-none-eabi/4.7.1/../../../../arm-none-eabi/lib/thumb\libg.a(lib_a-strtod.o)
__nedf2                                           c:/gnuarm-471_eabi/bin/../lib/gcc/arm-none-eabi/4.7.1/thumb\libgcc.a(_arm_cmpdf2.o)
__nesf2                                           c:/gnuarm-471_eabi/bin/../lib/gcc/arm-none-eabi/4.7.1/thumb\libgcc.a(_arm_cmpsf2.o)
__nlocale_changed                                 c:/gnuarm-471_eabi/bin/../lib/gcc/arm-none-eabi/4.7.1/../../../../arm-none-eabi/lib/thumb\libg.a(lib_a-locale.o)
__pow5mult                                        c:/gnuarm-471_eabi/bin/../lib/gcc/arm-none-eabi/4.7.1/../../../../arm-none-eabi/lib/thumb\libg.a(lib_a-mprec.o)
                                                  c:/gnuarm-471_eabi/bin/../lib/gcc/arm-none-eabi/4.7.1/../../../../arm-none-eabi/lib/thumb\libg.a(lib_a-dtoa.o)
                                                  c:/gnuarm-471_eabi/bin/../lib/gcc/arm-none-eabi/4.7.1/../../../../arm-none-eabi/lib/thumb\libg.a(lib_a-strtod.o)
__ratio                                           c:/gnuarm-471_eabi/bin/../lib/gcc/arm-none-eabi/4.7.1/../../../../arm-none-eabi/lib/thumb\libg.a(lib_a-mprec.o)
                                                  c:/gnuarm-471_eabi/bin/../lib/gcc/arm-none-eabi/4.7.1/../../../../arm-none-eabi/lib/thumb\libg.a(lib_a-strtod.o)
__s2b                                             c:/gnuarm-471_eabi/bin/../lib/gcc/arm-none-eabi/4.7.1/../../../../arm-none-eabi/lib/thumb\libg.a(lib_a-mprec.o)
                                                  c:/gnuarm-471_eabi/bin/../lib/gcc/arm-none-eabi/4.7.1/../../../../arm-none-eabi/lib/thumb\libg.a(lib_a-strtod.o)
__ssprint_r                                       c:/gnuarm-471_eabi/bin/../lib/gcc/arm-none-eabi/4.7.1/../../../../arm-none-eabi/lib/thumb\libg.a(lib_a-svfiprintf.o)
                                                  c:/gnuarm-471_eabi/bin/../lib/gcc/arm-none-eabi/4.7.1/../../../../arm-none-eabi/lib/thumb\libg.a(lib_a-svfprintf.o)
__subdf3                                          c:/gnuarm-471_eabi/bin/../lib/gcc/arm-none-eabi/4.7.1/thumb\libgcc.a(_arm_addsubdf3.o)
__subsf3                                          c:/gnuarm-471_eabi/bin/../lib/gcc/arm-none-eabi/4.7.1/thumb\libgcc.a(_arm_addsubsf3.o)
__truncdfsf2                                      c:/gnuarm-471_eabi/bin/../lib/gcc/arm-none-eabi/4.7.1/thumb\libgcc.a(_arm_truncdfsf2.o)
__udivsi3                                         c:/gnuarm-471_eabi/bin/../lib/gcc/arm-none-eabi/4.7.1/thumb\libgcc.a(_udivsi3.o)
__ulp                                             c:/gnuarm-471_eabi/bin/../lib/gcc/arm-none-eabi/4.7.1/../../../../arm-none-eabi/lib/thumb\libg.a(lib_a-mprec.o)
                                                  c:/gnuarm-471_eabi/bin/../lib/gcc/arm-none-eabi/4.7.1/../../../../arm-none-eabi/lib/thumb\libg.a(lib_a-strtod.o)
_atoi_r                                           c:/gnuarm-471_eabi/bin/../lib/gcc/arm-none-eabi/4.7.1/../../../../arm-none-eabi/lib/thumb\libg.a(lib_a-atoi.o)
_atol_r                                           c:/gnuarm-471_eabi/bin/../lib/gcc/arm-none-eabi/4.7.1/../../../../arm-none-eabi/lib/thumb\libg.a(lib_a-atol.o)
_calloc_r                                         c:/gnuarm-471_eabi/bin/../lib/gcc/arm-none-eabi/4.7.1/../../../../arm-none-eabi/lib/thumb\libg.a(lib_a-callocr.o)
                                                  c:/gnuarm-471_eabi/bin/../lib/gcc/arm-none-eabi/4.7.1/../../../../arm-none-eabi/lib/thumb\libg.a(lib_a-mprec.o)
_close_r                                          syscalls.o
_ctype_                                           c:/gnuarm-471_eabi/bin/../lib/gcc/arm-none-eabi/4.7.1/../../../../arm-none-eabi/lib/thumb\libg.a(lib_a-ctype_.o)
_data                                             Cstartup.o
_dtoa_r                                           c:/gnuarm-471_eabi/bin/../lib/gcc/arm-none-eabi/4.7.1/../../../../arm-none-eabi/lib/thumb\libg.a(lib_a-dtoa.o)
                                                  c:/gnuarm-471_eabi/bin/../lib/gcc/arm-none-eabi/4.7.1/../../../../arm-none-eabi/lib/thumb\libg.a(lib_a-svfprintf.o)
_edata                                            Cstartup.o
_etext                                            Cstartup.o
_free_r                                           c:/gnuarm-471_eabi/bin/../lib/gcc/arm-none-eabi/4.7.1/../../../../arm-none-eabi/lib/thumb\libg.a(lib_a-freer.o)
                                                  c:/gnuarm-471_eabi/bin/../lib/gcc/arm-none-eabi/4.7.1/../../../../arm-none-eabi/lib/thumb\libg.a(lib_a-reallocr.o)
                                                  c:/gnuarm-471_eabi/bin/../lib/gcc/arm-none-eabi/4.7.1/../../../../arm-none-eabi/lib/thumb\libg.a(lib_a-svfiprintf.o)
                                                  c:/gnuarm-471_eabi/bin/../lib/gcc/arm-none-eabi/4.7.1/../../../../arm-none-eabi/lib/thumb\libg.a(lib_a-mallocr.o)
_fstat_r                                          syscalls.o
_global_impure_ptr                                c:/gnuarm-471_eabi/bin/../lib/gcc/arm-none-eabi/4.7.1/../../../../arm-none-eabi/lib/thumb\libg.a(lib_a-impure.o)
_impure_ptr                                       c:/gnuarm-471_eabi/bin/../lib/gcc/arm-none-eabi/4.7.1/../../../../arm-none-eabi/lib/thumb\libg.a(lib_a-impure.o)
                                                  c:/gnuarm-471_eabi/bin/../lib/gcc/arm-none-eabi/4.7.1/../../../../arm-none-eabi/lib/thumb\libg.a(lib_a-locale.o)
                                                  c:/gnuarm-471_eabi/bin/../lib/gcc/arm-none-eabi/4.7.1/../../../../arm-none-eabi/lib/thumb\libg.a(lib_a-strtol.o)
                                                  c:/gnuarm-471_eabi/bin/../lib/gcc/arm-none-eabi/4.7.1/../../../../arm-none-eabi/lib/thumb\libg.a(lib_a-strtod.o)
                                                  c:/gnuarm-471_eabi/bin/../lib/gcc/arm-none-eabi/4.7.1/../../../../arm-none-eabi/lib/thumb\libg.a(lib_a-sprintf.o)
_localeconv_r                                     c:/gnuarm-471_eabi/bin/../lib/gcc/arm-none-eabi/4.7.1/../../../../arm-none-eabi/lib/thumb\libg.a(lib_a-locale.o)
                                                  c:/gnuarm-471_eabi/bin/../lib/gcc/arm-none-eabi/4.7.1/../../../../arm-none-eabi/lib/thumb\libg.a(lib_a-gdtoa-gethex.o)
                                                  c:/gnuarm-471_eabi/bin/../lib/gcc/arm-none-eabi/4.7.1/../../../../arm-none-eabi/lib/thumb\libg.a(lib_a-svfprintf.o)
                                                  c:/gnuarm-471_eabi/bin/../lib/gcc/arm-none-eabi/4.7.1/../../../../arm-none-eabi/lib/thumb\libg.a(lib_a-strtod.o)
_lseek_r                                          syscalls.o
_malloc_r                                         c:/gnuarm-471_eabi/bin/../lib/gcc/arm-none-eabi/4.7.1/../../../../arm-none-eabi/lib/thumb\libg.a(lib_a-mallocr.o)
                                                  c:/gnuarm-471_eabi/bin/../lib/gcc/arm-none-eabi/4.7.1/../../../../arm-none-eabi/lib/thumb\libg.a(lib_a-reallocr.o)
                                                  c:/gnuarm-471_eabi/bin/../lib/gcc/arm-none-eabi/4.7.1/../../../../arm-none-eabi/lib/thumb\libg.a(lib_a-callocr.o)
                                                  c:/gnuarm-471_eabi/bin/../lib/gcc/arm-none-eabi/4.7.1/../../../../arm-none-eabi/lib/thumb\libg.a(lib_a-svfiprintf.o)
                                                  c:/gnuarm-471_eabi/bin/../lib/gcc/arm-none-eabi/4.7.1/../../../../arm-none-eabi/lib/thumb\libg.a(lib_a-svfprintf.o)
_malloc_trim_r                                    c:/gnuarm-471_eabi/bin/../lib/gcc/arm-none-eabi/4.7.1/../../../../arm-none-eabi/lib/thumb\libg.a(lib_a-freer.o)
_mprec_log10                                      c:/gnuarm-471_eabi/bin/../lib/gcc/arm-none-eabi/4.7.1/../../../../arm-none-eabi/lib/thumb\libg.a(lib_a-mprec.o)
_read_r                                           syscalls.o
_realloc_r                                        c:/gnuarm-471_eabi/bin/../lib/gcc/arm-none-eabi/4.7.1/../../../../arm-none-eabi/lib/thumb\libg.a(lib_a-reallocr.o)
                                                  c:/gnuarm-471_eabi/bin/../lib/gcc/arm-none-eabi/4.7.1/../../../../arm-none-eabi/lib/thumb\libg.a(lib_a-svfiprintf.o)
_sbrk_r                                           syscalls.o
                                                  c:/gnuarm-471_eabi/bin/../lib/gcc/arm-none-eabi/4.7.1/../../../../arm-none-eabi/lib/thumb\libg.a(lib_a-freer.o)
                                                  c:/gnuarm-471_eabi/bin/../lib/gcc/arm-none-eabi/4.7.1/../../../../arm-none-eabi/lib/thumb\libg.a(lib_a-mallocr.o)
_setlocale_r                                      c:/gnuarm-471_eabi/bin/../lib/gcc/arm-none-eabi/4.7.1/../../../../arm-none-eabi/lib/thumb\libg.a(lib_a-locale.o)
_sprintf_r                                        c:/gnuarm-471_eabi/bin/../lib/gcc/arm-none-eabi/4.7.1/../../../../arm-none-eabi/lib/thumb\libg.a(lib_a-sprintf.o)
_startup                                          Cstartup.o
_strtod_r                                         c:/gnuarm-471_eabi/bin/../lib/gcc/arm-none-eabi/4.7.1/../../../../arm-none-eabi/lib/thumb\libg.a(lib_a-strtod.o)
_strtol_r                                         c:/gnuarm-471_eabi/bin/../lib/gcc/arm-none-eabi/4.7.1/../../../../arm-none-eabi/lib/thumb\libg.a(lib_a-strtol.o)
                                                  c:/gnuarm-471_eabi/bin/../lib/gcc/arm-none-eabi/4.7.1/../../../../arm-none-eabi/lib/thumb\libg.a(lib_a-atol.o)
                                                  c:/gnuarm-471_eabi/bin/../lib/gcc/arm-none-eabi/4.7.1/../../../../arm-none-eabi/lib/thumb\libg.a(lib_a-atoi.o)
_svfiprintf_r                                     c:/gnuarm-471_eabi/bin/../lib/gcc/arm-none-eabi/4.7.1/../../../../arm-none-eabi/lib/thumb\libg.a(lib_a-svfiprintf.o)
_svfprintf_r                                      c:/gnuarm-471_eabi/bin/../lib/gcc/arm-none-eabi/4.7.1/../../../../arm-none-eabi/lib/thumb\libg.a(lib_a-svfprintf.o)
                                                  c:/gnuarm-471_eabi/bin/../lib/gcc/arm-none-eabi/4.7.1/../../../../arm-none-eabi/lib/thumb\libg.a(lib_a-sprintf.o)
_write_r                                          syscalls.o
adm                                               Power.o
                                                  screens.o
                                                  display.o
                                                  functions.o
atoff                                             c:/gnuarm-471_eabi/bin/../lib/gcc/arm-none-eabi/4.7.1/../../../../arm-none-eabi/lib/thumb\libg.a(lib_a-atoff.o)
                                                  display.o
atoi                                              c:/gnuarm-471_eabi/bin/../lib/gcc/arm-none-eabi/4.7.1/../../../../arm-none-eabi/lib/thumb\libg.a(lib_a-atoi.o)
                                                  display.o
atol                                              c:/gnuarm-471_eabi/bin/../lib/gcc/arm-none-eabi/4.7.1/../../../../arm-none-eabi/lib/thumb\libg.a(lib_a-atol.o)
                                                  display.o
bcdtob                                            functions.o
                                                  screens.o
binHex                                            functions.o
                                                  interrupts.o
btobcd                                            functions.o
                                                  screens.o
buffer                                            Power.o
                                                  comtest.o
                                                  display.o
                                                  functions.o
                                                  interrupts.o
buzz_count                                        screens.o
                                                  functions.o
                                                  interrupts.o
buzz_length                                       screens.o
                                                  display.o
                                                  functions.o
                                                  interrupts.o
cal_speed_pulses                                  functions.o
circleMidpoint                                    display.o
circlePoints                                      display.o
clip_box                                          display.o
                                                  screens.o
cont_beep                                         display.o
                                                  functions.o
debug_message                                     interrupts.o
                                                  comtest.o
debug_message_wait                                interrupts.o
                                                  comtest.o
debug_serial_setup                                interrupts.o
deftime                                           screens.o
                                                  display.o
                                                  functions.o
display_f1_text                                   display.o
                                                  screens.o
                                                  functions.o
display_number                                    display.o
                                                  screens.o
draw_box                                          display.o
                                                  screens.o
                                                  functions.o
draw_frame                                        display.o
                                                  screens.o
draw_line                                         display.o
                                                  screens.o
editing                                           screens.o
                                                  display.o
                                                  functions.o
end                                               syscalls.o
end_chamber_open_delay_cont_beep                  functions.o
escape                                            screens.o
                                                  display.o
                                                  functions.o
exit                                              Cstartup.o
                                                  interrupts.o
f0count                                           functions.o
                                                  interrupts.o
f0time                                            functions.o
                                                  interrupts.o
f6count                                           functions.o
                                                  interrupts.o
f6time                                            functions.o
                                                  interrupts.o
fnt1                                              bm_f1all.o
                                                  display.o
fnt1_CYR                                          bm_f1cyr.o
                                                  bm_f1all.o
fnt1_EUR                                          bm_f1eur.o
                                                  bm_f1all.o
freeFlash                                         Cstartup.o
greatest                                          display.o
half_second                                       screens.o
                                                  display.o
                                                  functions.o
ip_status                                         functions.o
                                                  screens.o
isatty                                            syscalls.o
key                                               comtest.o
                                                  screens.o
                                                  display.o
                                                  functions.o
keytime                                           screens.o
knivesdelay                                       functions.o
lastoutput                                        screens.o
leaf                                              screens.o
                                                  display.o
                                                  functions.o
localeconv                                        c:/gnuarm-471_eabi/bin/../lib/gcc/arm-none-eabi/4.7.1/../../../../arm-none-eabi/lib/thumb\libg.a(lib_a-locale.o)
looptime                                          screens.o
                                                  display.o
                                                  functions.o
main                                              main.o
                                                  Cstartup.o
mainscreen                                        screens.o
                                                  display.o
mcm                                               functions.o
                                                  interrupts.o
memchr                                            c:/gnuarm-471_eabi/bin/../lib/gcc/arm-none-eabi/4.7.1/../../../../arm-none-eabi/lib/thumb\libg.a(lib_a-memchr-stub.o)
                                                  c:/gnuarm-471_eabi/bin/../lib/gcc/arm-none-eabi/4.7.1/../../../../arm-none-eabi/lib/thumb\libg.a(lib_a-svfiprintf.o)
                                                  c:/gnuarm-471_eabi/bin/../lib/gcc/arm-none-eabi/4.7.1/../../../../arm-none-eabi/lib/thumb\libg.a(lib_a-svfprintf.o)
memcpy                                            c:/gnuarm-471_eabi/bin/../lib/gcc/arm-none-eabi/4.7.1/../../../../arm-none-eabi/lib/thumb\libg.a(lib_a-memcpy-stub.o)
                                                  c:/gnuarm-471_eabi/bin/../lib/gcc/arm-none-eabi/4.7.1/../../../../arm-none-eabi/lib/thumb\libg.a(lib_a-svfiprintf.o)
                                                  c:/gnuarm-471_eabi/bin/../lib/gcc/arm-none-eabi/4.7.1/../../../../arm-none-eabi/lib/thumb\libg.a(lib_a-mprec.o)
                                                  c:/gnuarm-471_eabi/bin/../lib/gcc/arm-none-eabi/4.7.1/../../../../arm-none-eabi/lib/thumb\libg.a(lib_a-gdtoa-gethex.o)
                                                  c:/gnuarm-471_eabi/bin/../lib/gcc/arm-none-eabi/4.7.1/../../../../arm-none-eabi/lib/thumb\libg.a(lib_a-dtoa.o)
                                                  c:/gnuarm-471_eabi/bin/../lib/gcc/arm-none-eabi/4.7.1/../../../../arm-none-eabi/lib/thumb\libg.a(lib_a-strtod.o)
                                                  Power.o
                                                  queue.o
                                                  tasks.o
memmove                                           c:/gnuarm-471_eabi/bin/../lib/gcc/arm-none-eabi/4.7.1/../../../../arm-none-eabi/lib/thumb\libg.a(lib_a-memmove.o)
                                                  c:/gnuarm-471_eabi/bin/../lib/gcc/arm-none-eabi/4.7.1/../../../../arm-none-eabi/lib/thumb\libg.a(lib_a-reallocr.o)
                                                  c:/gnuarm-471_eabi/bin/../lib/gcc/arm-none-eabi/4.7.1/../../../../arm-none-eabi/lib/thumb\libg.a(lib_a-svfiprintf.o)
memset                                            c:/gnuarm-471_eabi/bin/../lib/gcc/arm-none-eabi/4.7.1/../../../../arm-none-eabi/lib/thumb\libg.a(lib_a-memset.o)
                                                  c:/gnuarm-471_eabi/bin/../lib/gcc/arm-none-eabi/4.7.1/../../../../arm-none-eabi/lib/thumb\libg.a(lib_a-callocr.o)
                                                  tasks.o
nanf                                              c:/gnuarm-471_eabi/bin/../lib/gcc/arm-none-eabi/4.7.1/../../../../arm-none-eabi/lib/thumb\libg.a(lib_a-sf_nan.o)
                                                  c:/gnuarm-471_eabi/bin/../lib/gcc/arm-none-eabi/4.7.1/../../../../arm-none-eabi/lib/thumb\libg.a(lib_a-strtod.o)
newf6                                             functions.o
                                                  interrupts.o
nextoutput                                        screens.o
nextwindow                                        display.o
                                                  functions.o
number                                            display.o
                                                  functions.o
off_length                                        functions.o
                                                  interrupts.o
offtime                                           screens.o
                                                  display.o
                                                  functions.o
op_status                                         functions.o
                                                  screens.o
pFac                                              functions.o
                                                  Power.o
                                                  Operate.o
                                                  screens.o
                                                  display.o
pRun                                              functions.o
                                                  Power.o
                                                  screens.o
                                                  display.o
pre_warning_cont_beep                             functions.o
ptText                                            screens.o
                                                  functions.o
pvPortMalloc                                      heap_2.o
                                                  Power.o
                                                  queue.o
                                                  tasks.o
pxCurrentTCB                                      tasks.o
                                                  interrupts.o
                                                  portISR.o
pxPortInitialiseStack                             port.o
                                                  tasks.o
reverttime                                        screens.o
                                                  display.o
                                                  functions.o
s0000                                             strings.o
s0001                                             strings.o
s0002                                             strings.o
s0003                                             strings.o
s0004                                             strings.o
s0005                                             strings.o
s0006                                             strings.o
s0007                                             strings.o
s0008                                             strings.o
s0009                                             strings.o
s0010                                             strings.o
s0011                                             strings.o
s0012                                             strings.o
s0013                                             strings.o
s0014                                             strings.o
s0015                                             strings.o
s0016                                             strings.o
s0017                                             strings.o
s0018                                             strings.o
s0019                                             strings.o
s0020                                             strings.o
s0021                                             strings.o
s0022                                             strings.o
s0023                                             strings.o
s0024                                             strings.o
s0025                                             strings.o
s0026                                             strings.o
s0027                                             strings.o
s0028                                             strings.o
s0029                                             strings.o
s0030                                             strings.o
s0031                                             strings.o
s0032                                             strings.o
s0033                                             strings.o
s0034                                             strings.o
s0035                                             strings.o
s0036                                             strings.o
s0037                                             strings.o
s0038                                             strings.o
s0039                                             strings.o
s0040                                             strings.o
s0041                                             strings.o
s0042                                             strings.o
s0043                                             strings.o
s0044                                             strings.o
s0045                                             strings.o
s0046                                             strings.o
s0047                                             strings.o
s0048                                             strings.o
s0049                                             strings.o
s0050                                             strings.o
s0051                                             strings.o
s0052                                             strings.o
s0053                                             strings.o
s0054                                             strings.o
s0055                                             strings.o
s0056                                             strings.o
s0057                                             strings.o
s0058                                             strings.o
s0059                                             strings.o
s0060                                             strings.o
s0061                                             strings.o
s0062                                             strings.o
s0063                                             strings.o
s0064                                             strings.o
s0065                                             strings.o
s0066                                             strings.o
s0067                                             strings.o
s0068                                             strings.o
s0069                                             strings.o
s0070                                             strings.o
s0071                                             strings.o
s0072                                             strings.o
s0073                                             strings.o
s0074                                             strings.o
s0075                                             strings.o
s0076                                             strings.o
s0077                                             strings.o
s0078                                             strings.o
s0079                                             strings.o
s0080                                             strings.o
s0081                                             strings.o
s0082                                             strings.o
s0083                                             strings.o
s0084                                             strings.o
s0085                                             strings.o
s0086                                             strings.o
s0087                                             strings.o
s0088                                             strings.o
s0089                                             strings.o
s0090                                             strings.o
s0091                                             strings.o
s0092                                             strings.o
s0093                                             strings.o
s0094                                             strings.o
s0095                                             strings.o
s0096                                             strings.o
s0097                                             strings.o
s0098                                             strings.o
s0099                                             strings.o
s0100                                             strings.o
s0101                                             strings.o
s0102                                             strings.o
s0103                                             strings.o
s0104                                             strings.o
s0105                                             strings.o
s0106                                             strings.o
s0107                                             strings.o
s0108                                             strings.o
s0109                                             strings.o
s0110                                             strings.o
s0111                                             strings.o
s0112                                             strings.o
s0113                                             strings.o
s0114                                             strings.o
s0115                                             strings.o
s0116                                             strings.o
s0117                                             strings.o
s0118                                             strings.o
s0119                                             strings.o
s0120                                             strings.o
s0121                                             strings.o
s0122                                             strings.o
s0123                                             strings.o
s0124                                             strings.o
s0125                                             strings.o
s0126                                             strings.o
s0127                                             strings.o
s0128                                             strings.o
s0129                                             strings.o
s0130                                             strings.o
s0131                                             strings.o
s0132                                             strings.o
s0133                                             strings.o
s0134                                             strings.o
s0135                                             strings.o
s0136                                             strings.o
s0137                                             strings.o
s0138                                             strings.o
s0139                                             strings.o
s0140                                             strings.o
s0141                                             strings.o
s0142                                             strings.o
s0143                                             strings.o
s0144                                             strings.o
s0145                                             strings.o
s0146                                             strings.o
s0147                                             strings.o
s0148                                             strings.o
s0149                                             strings.o
s0150                                             strings.o
s0151                                             strings.o
s0152                                             strings.o
s0153                                             strings.o
s0154                                             strings.o
s0155                                             strings.o
s0156                                             strings.o
s0157                                             strings.o
s0158                                             strings.o
s0159                                             strings.o
s0160                                             strings.o
s0161                                             strings.o
s0162                                             strings.o
s0163                                             strings.o
s0164                                             strings.o
s0165                                             strings.o
s0166                                             strings.o
s0167                                             strings.o
s0168                                             strings.o
s0169                                             strings.o
s0170                                             strings.o
s0171                                             strings.o
s0172                                             strings.o
s0173                                             strings.o
s0174                                             strings.o
s0175                                             strings.o
s0176                                             strings.o
s0177                                             strings.o
s0178                                             strings.o
s0179                                             strings.o
s0180                                             strings.o
s0181                                             strings.o
s0182                                             strings.o
savecal                                           Operate.o
                                                  screens.o
                                                  display.o
                                                  functions.o
screen00                                          screens.o
                                                  display.o
                                                  functions.o
screen100                                         screens.o
                                                  display.o
screen110                                         screens.o
                                                  display.o
screen111                                         screens.o
                                                  display.o
screen112                                         screens.o
                                                  display.o
screen113                                         screens.o
                                                  display.o
screen120                                         screens.o
                                                  display.o
screen121                                         screens.o
                                                  display.o
screen124                                         screens.o
                                                  display.o
screen125                                         screens.o
                                                  display.o
screen131                                         screens.o
                                                  display.o
screen132                                         screens.o
                                                  display.o
screen140                                         screens.o
                                                  display.o
screen141                                         screens.o
                                                  display.o
                                                  functions.o
screen142                                         screens.o
                                                  display.o
screen143                                         screens.o
                                                  display.o
screen144                                         screens.o
                                                  display.o
screen145                                         screens.o
                                                  display.o
screen146                                         screens.o
                                                  display.o
screen147                                         screens.o
                                                  display.o
                                                  functions.o
screen148                                         screens.o
                                                  display.o
screen150                                         screens.o
                                                  display.o
screen151                                         screens.o
                                                  display.o
screen152                                         screens.o
                                                  display.o
screen99                                          screens.o
                                                  display.o
selection                                         screens.o
                                                  display.o
                                                  functions.o
setPixel                                          display.o
setlocale                                         c:/gnuarm-471_eabi/bin/../lib/gcc/arm-none-eabi/4.7.1/../../../../arm-none-eabi/lib/thumb\libg.a(lib_a-locale.o)
sprintf                                           c:/gnuarm-471_eabi/bin/../lib/gcc/arm-none-eabi/4.7.1/../../../../arm-none-eabi/lib/thumb\libg.a(lib_a-sprintf.o)
                                                  comtest.o
                                                  tasks.o
                                                  screens.o
                                                  display.o
                                                  functions.o
stagecomp                                         screens.o
                                                  functions.o
start_chamber_open_delay_cont_beep                functions.o
startup                                           screens.o
                                                  display.o
                                                  functions.o
strcat                                            c:/gnuarm-471_eabi/bin/../lib/gcc/arm-none-eabi/4.7.1/../../../../arm-none-eabi/lib/thumb\libg.a(lib_a-strcat.o)
                                                  tasks.o
strcmp                                            c:/gnuarm-471_eabi/bin/../lib/gcc/arm-none-eabi/4.7.1/../../../../arm-none-eabi/lib/thumb\libg.a(lib_a-strcmp.o)
                                                  c:/gnuarm-471_eabi/bin/../lib/gcc/arm-none-eabi/4.7.1/../../../../arm-none-eabi/lib/thumb\libg.a(lib_a-locale.o)
strcpy                                            c:/gnuarm-471_eabi/bin/../lib/gcc/arm-none-eabi/4.7.1/../../../../arm-none-eabi/lib/thumb\libg.a(lib_a-strcpy.o)
                                                  c:/gnuarm-471_eabi/bin/../lib/gcc/arm-none-eabi/4.7.1/../../../../arm-none-eabi/lib/thumb\libg.a(lib_a-strcat.o)
                                                  display.o
strlen                                            c:/gnuarm-471_eabi/bin/../lib/gcc/arm-none-eabi/4.7.1/../../../../arm-none-eabi/lib/thumb\libg.a(lib_a-strlen.o)
                                                  c:/gnuarm-471_eabi/bin/../lib/gcc/arm-none-eabi/4.7.1/../../../../arm-none-eabi/lib/thumb\libg.a(lib_a-svfiprintf.o)
                                                  c:/gnuarm-471_eabi/bin/../lib/gcc/arm-none-eabi/4.7.1/../../../../arm-none-eabi/lib/thumb\libg.a(lib_a-gdtoa-gethex.o)
                                                  c:/gnuarm-471_eabi/bin/../lib/gcc/arm-none-eabi/4.7.1/../../../../arm-none-eabi/lib/thumb\libg.a(lib_a-svfprintf.o)
                                                  c:/gnuarm-471_eabi/bin/../lib/gcc/arm-none-eabi/4.7.1/../../../../arm-none-eabi/lib/thumb\libg.a(lib_a-strtod.o)
                                                  tasks.o
                                                  display.o
strncmp                                           c:/gnuarm-471_eabi/bin/../lib/gcc/arm-none-eabi/4.7.1/../../../../arm-none-eabi/lib/thumb\libg.a(lib_a-strncmp.o)
                                                  c:/gnuarm-471_eabi/bin/../lib/gcc/arm-none-eabi/4.7.1/../../../../arm-none-eabi/lib/thumb\libg.a(lib_a-gdtoa-gethex.o)
                                                  c:/gnuarm-471_eabi/bin/../lib/gcc/arm-none-eabi/4.7.1/../../../../arm-none-eabi/lib/thumb\libg.a(lib_a-strtod.o)
strncpy                                           c:/gnuarm-471_eabi/bin/../lib/gcc/arm-none-eabi/4.7.1/../../../../arm-none-eabi/lib/thumb\libg.a(lib_a-strncpy.o)
                                                  tasks.o
strtod                                            c:/gnuarm-471_eabi/bin/../lib/gcc/arm-none-eabi/4.7.1/../../../../arm-none-eabi/lib/thumb\libg.a(lib_a-strtod.o)
strtof                                            c:/gnuarm-471_eabi/bin/../lib/gcc/arm-none-eabi/4.7.1/../../../../arm-none-eabi/lib/thumb\libg.a(lib_a-strtod.o)
                                                  c:/gnuarm-471_eabi/bin/../lib/gcc/arm-none-eabi/4.7.1/../../../../arm-none-eabi/lib/thumb\libg.a(lib_a-atoff.o)
strtol                                            c:/gnuarm-471_eabi/bin/../lib/gcc/arm-none-eabi/4.7.1/../../../../arm-none-eabi/lib/thumb\libg.a(lib_a-strtol.o)
                                                  c:/gnuarm-471_eabi/bin/../lib/gcc/arm-none-eabi/4.7.1/../../../../arm-none-eabi/lib/thumb\libg.a(lib_a-atol.o)
                                                  c:/gnuarm-471_eabi/bin/../lib/gcc/arm-none-eabi/4.7.1/../../../../arm-none-eabi/lib/thumb\libg.a(lib_a-atoi.o)
swrel                                             screens.o
                                                  display.o
                                                  functions.o
target_bale_dia_reached_cont_beep                 functions.o
tl_confimation_delay                              functions.o
                                                  interrupts.o
tl_target_count                                   functions.o
                                                  interrupts.o
ulCriticalNesting                                 portISR.o
                                                  interrupts.o
ulTaskEndTrace                                    tasks.o
uxQueueMessagesWaiting                            queue.o
                                                  comtest.o
uxQueueMessagesWaitingFromISR                     queue.o
uxTaskGetNumberOfTasks                            tasks.o
uxTaskPriorityGet                                 tasks.o
vListInitialise                                   list.o
                                                  queue.o
                                                  tasks.o
vListInitialiseItem                               list.o
                                                  tasks.o
vListInsert                                       list.o
                                                  tasks.o
vListInsertEnd                                    list.o
                                                  tasks.o
vListRemove                                       list.o
                                                  tasks.o
vPortDisableInterruptsFromThumb                   portISR.o
                                                  tasks.o
vPortEnableInterruptsFromThumb                    portISR.o
vPortEndScheduler                                 port.o
                                                  tasks.o
vPortEnterCritical                                portISR.o
                                                  serial.o
                                                  queue.o
                                                  tasks.o
vPortExitCritical                                 portISR.o
                                                  serial.o
                                                  queue.o
                                                  tasks.o
vPortFree                                         heap_2.o
                                                  Power.o
                                                  queue.o
                                                  tasks.o
vPortISRStartFirstTask                            portISR.o
                                                  port.o
vPortInitialiseBlocks                             heap_2.o
vPortYieldProcessor                               portISR.o
                                                  Cstartup.o
vPreemptiveTick                                   portISR.o
                                                  port.o
vQueueDelete                                      queue.o
vSerialClose                                      serial.o
vSerialISRCreateQueues                            serial.o
vSerialPutString                                  serial.o
                                                  comtest.o
vStartComTasks                                    comtest.o
                                                  main.o
vStartDisplayTask                                 display.o
                                                  main.o
vStartOperateTask                                 Operate.o
                                                  main.o
vStartPowerTask                                   Power.o
                                                  main.o
vStartTWITask                                     TWI_task.o
                                                  main.o
vTaskDelay                                        tasks.o
                                                  Operate.o
                                                  TWI_task.o
                                                  comtest.o
                                                  screens.o
                                                  display.o
vTaskDelayUntil                                   tasks.o
                                                  Operate.o
                                                  display.o
vTaskEndScheduler                                 tasks.o
vTaskIncrementTick                                tasks.o
                                                  portISR.o
vTaskList                                         tasks.o
                                                  comtest.o
vTaskMissedYield                                  tasks.o
                                                  queue.o
vTaskPlaceOnEventList                             tasks.o
                                                  queue.o
vTaskPrioritySet                                  tasks.o
                                                  TWI_task.o
                                                  screens.o
vTaskResume                                       tasks.o
                                                  screens.o
vTaskSetTimeOutState                              tasks.o
                                                  queue.o
vTaskStartScheduler                               tasks.o
                                                  main.o
vTaskStartTrace                                   tasks.o
vTaskSuspend                                      tasks.o
                                                  Power.o
                                                  screens.o
vTaskSuspendAll                                   tasks.o
                                                  Power.o
                                                  comtest.o
                                                  queue.o
                                                  heap_2.o
vTaskSwitchContext                                tasks.o
                                                  interrupts.o
                                                  portISR.o
valuechanged                                      screens.o
                                                  display.o
                                                  functions.o
window                                            screens.o
                                                  display.o
                                                  functions.o
windowdepth                                       screens.o
                                                  display.o
                                                  functions.o
write_bitmap                                      display.o
                                                  screens.o
                                                  functions.o
xPort                                             comtest.o
xPortGetFreeHeapSize                              heap_2.o
xPortStartScheduler                               port.o
                                                  tasks.o
xQueueCreate                                      queue.o
                                                  TWI_task.o
                                                  serial.o
xQueueGenericReceive                              queue.o
                                                  TWI_task.o
                                                  serial.o
                                                  screens.o
                                                  syscalls.o
xQueueGenericSend                                 queue.o
                                                  TWI_task.o
                                                  serial.o
                                                  syscalls.o
xQueueGenericSendFromISR                          queue.o
                                                  portISR.o
xQueueIsQueueEmptyFromISR                         queue.o
xQueueIsQueueFullFromISR                          queue.o
xQueueReceiveFromISR                              queue.o
                                                  portISR.o
xSerialGetChar                                    serial.o
                                                  comtest.o
xSerialPortInit                                   serial.o
                                                  comtest.o
xSerialPutChar                                    serial.o
xTaskCheckForTimeOut                              tasks.o
                                                  queue.o
xTaskGenericCreate                                tasks.o
                                                  Power.o
                                                  Operate.o
                                                  TWI_task.o
                                                  comtest.o
                                                  display.o
xTaskGetCurrentTaskHandle                         tasks.o
xTaskGetTickCount                                 tasks.o
                                                  Operate.o
                                                  comtest.o
                                                  display.o
xTaskGetTickCountFromISR                          tasks.o
xTaskIsTaskSuspended                              tasks.o
xTaskRemoveFromEventList                          tasks.o
                                                  queue.o
xTaskResumeAll                                    tasks.o
                                                  Power.o
                                                  comtest.o
                                                  queue.o
                                                  heap_2.o
xTaskResumeFromISR                                tasks.o
                                                  interrupts.o
